MPLINK 5.00, LINKER
Linker Map File - Created Mon Feb 13 13:40:30 2017

                                 Section Info
                  Section       Type    Address   Location Size(Bytes)
                ---------  ---------  ---------  ---------  ---------
               _entry_scn       code   0x000000    program   0x000006
               highVector       code   0x000008    program   0x000006
                lowVector       code   0x000018    program   0x000006
                   .cinit    romdata   0x00002a    program   0x00016a
              .code_TCP.o       code   0x000194    program   0x00361e
            .code_HTTP2.o       code   0x0037b2    program   0x001e36
    .code_CustomHTTPApp.o       code   0x0055e8    program   0x001b42
             .code_SMTP.o       code   0x00712a    program   0x001150
             .stringtable    romdata   0x00827a    program   0x001100
      .code_BerkeleyAPI.o       code   0x00937a    program   0x000e6a
            .code_MPFS2.o       code   0x00a1e4    program   0x000bd6
            .code_DHCPs.o       code   0x00adba    program   0x000bae
              .code_UDP.o       code   0x00b968    program   0x000b9a
          .code_Helpers.o       code   0x00c502    program   0x000b56
             .code_DHCP.o       code   0x00d058    program   0x00097c
           .code_Hashes.o       code   0x00d9d4    program   0x000862
         .code_ETH97J60.o       code   0x00e236    program   0x000842
              .code_DNS.o       code   0x00ea78    program   0x0006b8
           .code_AutoIP.o       code   0x00f130    program   0x000610
         .code_MainDemo.o       code   0x00f740    program   0x0005e2
                     PROG       code   0x00fd22    program   0x0005cc
           .code_Telnet.o       code   0x0102ee    program   0x000588
.code_TCPPerformanceTest.o       code   0x010876    program   0x000508
              .code_log.o       code   0x010d7e    program   0x0004fa
                   STDLIB       code   0x011278    program   0x0004ee
       .code_UARTConfig.o       code   0x011766    program   0x0004a0
              .code_ARP.o       code   0x011c06    program   0x00043c
                   STRING       code   0x012042    program   0x0003ae
   .code_Misc_Functions.o       code   0x0123f0    program   0x00039e
.code_BerkeleyUDPClientDemo.o       code   0x01278e    program   0x000388
         .code_SPIFlash.o       code   0x012b16    program   0x000380
             .code_ICMP.o       code   0x012e96    program   0x00037e
             .code_NBNS.o       code   0x013214    program   0x00037c
             .code_SNTP.o       code   0x013590    program   0x0002e0
   .code_UART2TCPBridge.o       code   0x013870    program   0x0002da
         .code_StackTsk.o       code   0x013b4a    program   0x00027a
               .code_IP.o       code   0x013dc4    program   0x000248
 .code_GenericTCPClient.o       code   0x01400c    program   0x0001f6
.code_BerkeleyTCPServerDemo.o       code   0x014202    program   0x0001ee
         .code_Announce.o       code   0x0143f0    program   0x0001de
.code_BerkeleyTCPClientDemo.o       code   0x0145ce    program   0x0001da
 .code_GenericTCPServer.o       code   0x0147a8    program   0x000162
        .romdata_Telnet.o    romdata   0x01490a    program   0x00015c
        .romdata_Hashes.o    romdata   0x014a66    program   0x000140
           .code_Reboot.o       code   0x014ba6    program   0x000126
            .code_frexp.o       code   0x014ccc    program   0x000124
       .code_Custom_I2C.o       code   0x014df0    program   0x00011e
         .code_UnpkMath.o       code   0x014f0e    program   0x00011c
         .code_PackMath.o       code   0x01502a    program   0x00011a
      .code_Custom_UART.o       code   0x015144    program   0x00011a
             .code_UART.o       code   0x01525e    program   0x000118
   .code_Custom_I2C_Low.o       code   0x015376    program   0x0000fe
         .code_SMTPDemo.o       code   0x015474    program   0x0000e6
         .code_PingDemo.o       code   0x01555a    program   0x0000e4
             .code_Tick.o       code   0x01563e    program   0x0000e0
   .code_Custom_SPI_Low.o       code   0x01571e    program   0x0000c2
  .code_Custom_UART_Low.o       code   0x0157e0    program   0x0000a8
               _cinit_scn       code   0x015888    program   0x00009e
         .romdata_HTTP2.o    romdata   0x015926    program   0x00007e
          .code_fxm3232.o       code   0x0159a4    program   0x000070
         .code_swgtci2c.o       code   0x015a14    program   0x00005c
         .code_fxd3232u.o       code   0x015a70    program   0x000048
       .code_Custom_SPI.o       code   0x015ab8    program   0x000040
           .romdata_TCP.o    romdata   0x015af8    program   0x000036
.romdata_GenericTCPClient.o    romdata   0x015b2e    program   0x000033
.romdata_UART2TCPBridge.o    romdata   0x015b61    program   0x000000
     .idata_SPIEEPROM.o_i    romdata   0x015b61    program   0x000000
     .romdata_SPIEEPROM.o    romdata   0x015b61    program   0x000000
.romdata_Custom_UART_Low.o    romdata   0x015b61    program   0x000000
      .romdata_fxd3232u.o    romdata   0x015b61    program   0x000000
      .idata_SPIFlash.o_i    romdata   0x015b61    program   0x000000
        .idata_SPIRAM.o_i    romdata   0x015b61    program   0x000000
        .romdata_SPIRAM.o    romdata   0x015b61    program   0x000000
           .romdata_UDP.o    romdata   0x015b61    program   0x000000
      .idata_fxd1616u.o_i    romdata   0x015b61    program   0x000000
    .romdata_ENCX24J600.o    romdata   0x015b61    program   0x000000
.romdata_Custom_SPI_Low.o    romdata   0x015b61    program   0x000000
          .romdata_Tick.o    romdata   0x015b61    program   0x000000
.romdata_TCPPerformanceTest.o    romdata   0x015b61    program   0x000000
      .idata_swckti2c.o_i    romdata   0x015b61    program   0x000000
        .romdata_DynDNS.o    romdata   0x015b61    program   0x000000
           .romdata_ARP.o    romdata   0x015b61    program   0x000000
      .romdata_swgtci2c.o    romdata   0x015b61    program   0x000000
          .idata_UART.o_i    romdata   0x015b61    program   0x000000
         .idata_TFTPc.o_i    romdata   0x015b61    program   0x000000
.romdata_BerkeleyTCPServerDemo.o    romdata   0x015b61    program   0x000000
       .romdata_Helpers.o    romdata   0x015b61    program   0x000000
         .romdata_c018i.o    romdata   0x015b61    program   0x000000
         .romdata_DHCPs.o    romdata   0x015b61    program   0x000000
         .romdata_frexp.o    romdata   0x015b61    program   0x000000
            .romdata_IP.o    romdata   0x015b61    program   0x000000
      .romdata_PingDemo.o    romdata   0x015b61    program   0x000000
         .idata_errno.o_i    romdata   0x015b61    program   0x000000
      .romdata_UnpkMath.o    romdata   0x015b61    program   0x000000
         .romdata_MPFS2.o    romdata   0x015b61    program   0x000000
 .romdata_CustomSNMPApp.o    romdata   0x015b61    program   0x000000
           .romdata_log.o    romdata   0x015b61    program   0x000000
          .romdata_NBNS.o    romdata   0x015b61    program   0x000000
           .romdata_FTP.o    romdata   0x015b61    program   0x000000
        .idata_Reboot.o_i    romdata   0x015b61    program   0x000001
          .romdata_DNSs.o    romdata   0x015b61    program   0x000000
.romdata_Custom_I2C_Low.o    romdata   0x015b61    program   0x000000
        .romdata_AutoIP.o    romdata   0x015b61    program   0x000000
          .romdata_SMTP.o    romdata   0x015b61    program   0x000000
        .idata___init.o_i    romdata   0x015b61    program   0x000000
          .idata_SNMP.o_i    romdata   0x015b61    program   0x000000
          .romdata_SNMP.o    romdata   0x015b61    program   0x000000
.idata_UDPPerformanceTest.o_i    romdata   0x015b61    program   0x000000
       .idata_fxm3232.o_i    romdata   0x015b61    program   0x000000
         .code_fxd1616u.o       code   0x015b62    program   0x00002c
                    .code       code   0x015b8e    program   0x00002c
              D1KTCYXCODE       code   0x015bba    program   0x000020
             _startup_scn       code   0x015bda    program   0x00001c
              D10TCYXCODE       code   0x015bf6    program   0x000016
         .code_swckti2c.o       code   0x015c0c    program   0x000010
.romdata_BerkeleyTCPClientDemo.o    romdata   0x015c1c    program   0x00000f
      .romdata_MainDemo.o    romdata   0x015c2b    program   0x000006
 .romdata_CustomHTTPApp.o    romdata   0x015c31    program   0x000006
         .idata_c018i.o_i    romdata   0x015c37    program   0x000000
.romdata_BerkeleyUDPClientDemo.o    romdata   0x015c37    program   0x000000
      .romdata_PackMath.o    romdata   0x015c37    program   0x000000
          .romdata_DHCP.o    romdata   0x015c37    program   0x000000
         .idata_frexp.o_i    romdata   0x015c37    program   0x000000
.romdata_GenericTCPServer.o    romdata   0x015c37    program   0x000000
         .romdata_errno.o    romdata   0x015c37    program   0x000000
         .romdata_Delay.o    romdata   0x015c37    program   0x000000
      .romdata_SMTPDemo.o    romdata   0x015c37    program   0x000000
    .idata_UARTConfig.o_i    romdata   0x015c37    program   0x000000
    .romdata_UARTConfig.o    romdata   0x015c37    program   0x000000
   .romdata_BerkeleyAPI.o    romdata   0x015c37    program   0x000000
      .idata_UnpkMath.o_i    romdata   0x015c37    program   0x000000
    .romdata_Custom_I2C.o    romdata   0x015c37    program   0x000000
           .idata_log.o_i    romdata   0x015c37    program   0x000000
      .romdata_Announce.o    romdata   0x015c37    program   0x000000
        .romdata___init.o    romdata   0x015c37    program   0x000000
    .romdata_Custom_SPI.o    romdata   0x015c37    program   0x000000
       .romdata_fxm3232.o    romdata   0x015c37    program   0x000000
      .idata_fxd3232u.o_i    romdata   0x015c37    program   0x000000
      .romdata_fxd1616u.o    romdata   0x015c37    program   0x000000
      .romdata_swckti2c.o    romdata   0x015c37    program   0x000000
   .romdata_Custom_UART.o    romdata   0x015c37    program   0x000000
      .idata_swgtci2c.o_i    romdata   0x015c37    program   0x000000
.romdata_Misc_Functions.o    romdata   0x015c37    program   0x000000
.romdata_UDPPerformanceTest.o    romdata   0x015c37    program   0x000000
      .romdata_StackTsk.o    romdata   0x015c37    program   0x000000
          .romdata_ICMP.o    romdata   0x015c37    program   0x000000
      .romdata_SPIFlash.o    romdata   0x015c37    program   0x000000
          .romdata_UART.o    romdata   0x015c37    program   0x000000
          .romdata_SNTP.o    romdata   0x015c37    program   0x000000
         .romdata_TFTPc.o    romdata   0x015c37    program   0x000000
   .romdata_LCDBlocking.o    romdata   0x015c37    program   0x000000
      .romdata_ENC28J60.o    romdata   0x015c37    program   0x000000
      .romdata_ETH97J60.o    romdata   0x015c37    program   0x000000
        .idata_Telnet.o_i    romdata   0x015c37    program   0x000001
        .romdata_Reboot.o    romdata   0x015c37    program   0x000000
           .romdata_DNS.o    romdata   0x015c37    program   0x000000
           .code___init.o       code   0x015c38    program   0x000002
           .idata_UDP.o_i    romdata   0x015c3a    program   0x000002
.idata_UART2TCPBridge.o_i    romdata   0x015c3c    program   0x00000a
          .idata_Tick.o_i    romdata   0x015c46    program   0x000004
.idata_TCPPerformanceTest.o_i    romdata   0x015c4a    program   0x000002
           .idata_TCP.o_i    romdata   0x015c4c    program   0x000002
      .idata_StackTsk.o_i    romdata   0x015c4e    program   0x000002
          .idata_SNTP.o_i    romdata   0x015c50    program   0x00000a
      .idata_SMTPDemo.o_i    romdata   0x015c5a    program   0x000048
          .idata_SMTP.o_i    romdata   0x015ca2    program   0x000003
      .idata_PingDemo.o_i    romdata   0x015ca5    program   0x000001
          .idata_NBNS.o_i    romdata   0x015ca6    program   0x000001
      .idata_PackMath.o_i    romdata   0x015ca6    program   0x000000
.idata_Misc_Functions.o_i    romdata   0x015ca7    program   0x000000
      .idata_MainDemo.o_i    romdata   0x015ca7    program   0x00000a
         .idata_MPFS2.o_i    romdata   0x015cb1    program   0x000000
   .idata_LCDBlocking.o_i    romdata   0x015cb1    program   0x000000
            .idata_IP.o_i    romdata   0x015cb1    program   0x000002
          .idata_ICMP.o_i    romdata   0x015cb3    program   0x000001
       .idata_Helpers.o_i    romdata   0x015cb4    program   0x000004
        .idata_Hashes.o_i    romdata   0x015cb8    program   0x000000
         .idata_HTTP2.o_i    romdata   0x015cb8    program   0x000000
.idata_GenericTCPServer.o_i    romdata   0x015cb8    program   0x000001
.idata_GenericTCPClient.o_i    romdata   0x015cb9    program   0x000013
           .idata_DNS.o_i    romdata   0x015ccc    program   0x000003
        .idata_DynDNS.o_i    romdata   0x015ccc    program   0x000000
      .idata_ENC28J60.o_i    romdata   0x015ccc    program   0x000000
           .idata_FTP.o_i    romdata   0x015ccc    program   0x000000
         .idata_Delay.o_i    romdata   0x015ccc    program   0x000000
          .idata_DNSs.o_i    romdata   0x015ccc    program   0x000000
      .idata_ETH97J60.o_i    romdata   0x015ccc    program   0x000000
    .idata_ENCX24J600.o_i    romdata   0x015ccc    program   0x000000
         .idata_DHCPs.o_i    romdata   0x015ccf    program   0x000008
          .idata_DHCP.o_i    romdata   0x015cd7    program   0x000001
.idata_Custom_I2C_Low.o_i    romdata   0x015cd8    program   0x000001
.idata_Custom_UART_Low.o_i    romdata   0x015cd8    program   0x000000
   .idata_Custom_UART.o_i    romdata   0x015cd8    program   0x000000
.idata_Custom_SPI_Low.o_i    romdata   0x015cd8    program   0x000000
    .idata_Custom_SPI.o_i    romdata   0x015cd8    program   0x000000
    .idata_Custom_I2C.o_i    romdata   0x015cd9    program   0x000000
 .idata_CustomSNMPApp.o_i    romdata   0x015cd9    program   0x000000
 .idata_CustomHTTPApp.o_i    romdata   0x015cd9    program   0x00001a
.idata_BerkeleyUDPClientDemo.o_i    romdata   0x015cf3    program   0x000009
.idata_BerkeleyTCPServerDemo.o_i    romdata   0x015cfc    program   0x000001
.idata_BerkeleyTCPClientDemo.o_i    romdata   0x015cfd    program   0x00006e
   .idata_BerkeleyAPI.o_i    romdata   0x015d6b    program   0x000002
        .idata_AutoIP.o_i    romdata   0x015d6d    program   0x000000
      .idata_Announce.o_i    romdata   0x015d6d    program   0x000001
           .idata_ARP.o_i    romdata   0x015d6e    program   0x000001
            .code_c018i.o       code   0x015d70    program   0x000000
           .code_DynDNS.o       code   0x015d70    program   0x000000
            .code_errno.o       code   0x015d70    program   0x000000
      .code_LCDBlocking.o       code   0x015d70    program   0x000000
            .code_Delay.o       code   0x015d70    program   0x000000
              .code_FTP.o       code   0x015d70    program   0x000000
            .code_TFTPc.o       code   0x015d70    program   0x000000
.code_UDPPerformanceTest.o       code   0x015d70    program   0x000000
             .code_DNSs.o       code   0x015d70    program   0x000000
         .code_ENC28J60.o       code   0x015d70    program   0x000000
    .code_CustomSNMPApp.o       code   0x015d70    program   0x000000
             .code_SNMP.o       code   0x015d70    program   0x000000
           .code_SPIRAM.o       code   0x015d70    program   0x000000
       .code_ENCX24J600.o       code   0x015d70    program   0x000000
        .code_SPIEEPROM.o       code   0x015d70    program   0x000000
 .config_1fff8_MainDemo.o    romdata   0x01fff8    program   0x000001
 .config_1fffa_MainDemo.o    romdata   0x01fffa    program   0x000001
 .config_1fffd_MainDemo.o    romdata   0x01fffd    program   0x000001
                 .tmpdata      udata   0x000000       data   0x000020
                MATH_DATA      udata   0x000020       data   0x000014
                DELAYDAT1      udata   0x000034       data   0x000001
           .udata_MPFS2.o      udata   0x000060       data   0x00009a
          .udata_Telnet.o      udata   0x0000fa       data   0x000006
                 TCB_uRAM      udata   0x000100       data   0x0000fc
            .udata_SNTP.o      udata   0x0001fc       data   0x000004
             .udata_UDP.o      udata   0x000200       data   0x0000f6
           .udata_c018i.o      udata   0x0002f6       data   0x00000a
             .udata_TCP.o      udata   0x000300       data   0x0000cf
            .udata_DHCP.o      udata   0x0003cf       data   0x000031
   HTTP_CONNECTION_STATES      udata   0x000400       data   0x000084
           .udata_DHCPs.o      udata   0x000484       data   0x000077
            .udata_NBNS.o      udata   0x0004fb       data   0x000005
.idata_BerkeleyTCPClientDemo.o      idata   0x000500       data   0x00006e
          .udata_Hashes.o      udata   0x00056e       data   0x00006a
             .udata_ARP.o      udata   0x0005d8       data   0x000027
.udata_GenericTCPServer.o      udata   0x0005ff       data   0x000001
  .udata_UART2TCPBridge.o      udata   0x000600       data   0x000053
                 BSD_uRAM      udata   0x000653       data   0x00004b
         .udata_Helpers.o      udata   0x00069e       data   0x00004a
.idata_GenericTCPClient.o      idata   0x0006e8       data   0x000013
 .udata_Custom_UART_Low.o      udata   0x0006fb       data   0x000005
        .idata_SMTPDemo.o      idata   0x000700       data   0x000048
     .udata_BerkeleyAPI.o      udata   0x000748       data   0x000046
        .udata_MainDemo.o      udata   0x00078e       data   0x000043
             .udata_DNS.o      udata   0x0007d1       data   0x000026
  .udata_Custom_SPI_Low.o      udata   0x0007f7       data   0x000009
       SYN_QUEUE_RAM_SECT      udata   0x000800       data   0x00003c
          .udata_AutoIP.o      udata   0x00083c       data   0x00003c
        .udata_SPIFlash.o      udata   0x000878       data   0x000037
        .udata_ETH97J60.o      udata   0x0008af       data   0x000034
   .idata_CustomHTTPApp.o      idata   0x0008e3       data   0x00001a
            .idata_SMTP.o      idata   0x0008fd       data   0x000003
           .udata_HTTP2.o      udata   0x000900       data   0x000021
.udata_TCPPerformanceTest.o      udata   0x000921       data   0x000020
            .udata_ICMP.o      udata   0x000941       data   0x00001e
.udata_BerkeleyUDPClientDemo.o      udata   0x00095f       data   0x000019
              .udata_IP.o      udata   0x000978       data   0x000012
.udata_BerkeleyTCPClientDemo.o      udata   0x00098a       data   0x000011
      .udata_Custom_I2C.o      udata   0x00099b       data   0x00000d
            .udata_UART.o      udata   0x0009a8       data   0x00000c
     .udata_Custom_UART.o      udata   0x0009b4       data   0x00000c
            .udata_Tick.o      udata   0x0009c0       data   0x00000a
  .idata_UART2TCPBridge.o      idata   0x0009ca       data   0x00000a
            .idata_SNTP.o      idata   0x0009d4       data   0x00000a
        .idata_MainDemo.o      idata   0x0009de       data   0x00000a
           .idata_DHCPs.o      idata   0x0009e8       data   0x000008
  .udata_Misc_Functions.o      udata   0x0009f0       data   0x000007
      .udata_Custom_SPI.o      udata   0x0009f7       data   0x000005
        .udata_SMTPDemo.o      udata   0x0009fc       data   0x000004
              UART_BUFFER      udata   0x000a00       data   0x000100
        .udata_PingDemo.o      udata   0x000b00       data   0x000004
.udata_GenericTCPClient.o      udata   0x000b04       data   0x000004
.udata_BerkeleyTCPServerDemo.o      udata   0x000b08       data   0x000004
            .idata_Tick.o      idata   0x000b0c       data   0x000004
         .idata_Helpers.o      idata   0x000b10       data   0x000004
             .idata_DNS.o      idata   0x000b14       data   0x000003
              temp_tblptr      udata   0x000b17       data   0x000002
        .udata_swgtci2c.o      udata   0x000b19       data   0x000002
           .udata_errno.o      udata   0x000b1b       data   0x000002
             .idata_UDP.o      idata   0x000b1d       data   0x000002
.idata_TCPPerformanceTest.o      idata   0x000b1f       data   0x000002
             .idata_TCP.o      idata   0x000b21       data   0x000002
        .idata_StackTsk.o      idata   0x000b23       data   0x000002
              .idata_IP.o      idata   0x000b25       data   0x000002
     .idata_BerkeleyAPI.o      idata   0x000b27       data   0x000002
  .udata_Custom_I2C_Low.o      udata   0x000b29       data   0x000001
        .udata_Announce.o      udata   0x000b2a       data   0x000001
          .idata_Telnet.o      idata   0x000b2b       data   0x000001
          .idata_Reboot.o      idata   0x000b2c       data   0x000001
        .idata_PingDemo.o      idata   0x000b2d       data   0x000001
            .idata_NBNS.o      idata   0x000b2e       data   0x000001
            .idata_ICMP.o      idata   0x000b2f       data   0x000001
.idata_GenericTCPServer.o      idata   0x000b30       data   0x000001
            .idata_DHCP.o      idata   0x000b31       data   0x000001
  .idata_Custom_I2C_Low.o      idata   0x000b32       data   0x000001
.idata_BerkeleyTCPServerDemo.o      idata   0x000b33       data   0x000001
        .idata_Announce.o      idata   0x000b34       data   0x000001
             .idata_ARP.o      idata   0x000b35       data   0x000001
           .udata_TFTPc.o      udata   0x000b36       data   0x000000
      .udata_UARTConfig.o      udata   0x000b36       data   0x000000
      .idata_UARTConfig.o      idata   0x000b36       data   0x000000
          .idata_AutoIP.o      idata   0x000b36       data   0x000000
      .idata_Custom_I2C.o      idata   0x000b36       data   0x000000
      .idata_Custom_SPI.o      idata   0x000b36       data   0x000000
            .udata_DNSs.o      udata   0x000b36       data   0x000000
           .idata_HTTP2.o      idata   0x000b36       data   0x000000
            .idata_DNSs.o      idata   0x000b36       data   0x000000
.udata_UDPPerformanceTest.o      udata   0x000b36       data   0x000000
.idata_UDPPerformanceTest.o      idata   0x000b36       data   0x000000
            .udata_SNMP.o      udata   0x000b36       data   0x000000
            .idata_SNMP.o      idata   0x000b36       data   0x000000
           .udata_Delay.o      udata   0x000b36       data   0x000000
           .idata_Delay.o      idata   0x000b36       data   0x000000
          .udata_Reboot.o      udata   0x000b36       data   0x000000
       .udata_SPIEEPROM.o      udata   0x000b36       data   0x000000
       .idata_SPIEEPROM.o      idata   0x000b36       data   0x000000
        .idata_SPIFlash.o      idata   0x000b36       data   0x000000
            .idata_UART.o      idata   0x000b36       data   0x000000
   .udata_CustomSNMPApp.o      udata   0x000b36       data   0x000000
   .idata_CustomSNMPApp.o      idata   0x000b36       data   0x000000
           .idata_MPFS2.o      idata   0x000b36       data   0x000000
          .udata_SPIRAM.o      udata   0x000b36       data   0x000000
     .idata_LCDBlocking.o      idata   0x000b36       data   0x000000
     .udata_LCDBlocking.o      udata   0x000b36       data   0x000000
          .idata_SPIRAM.o      idata   0x000b36       data   0x000000
           .idata_TFTPc.o      idata   0x000b36       data   0x000000
         .udata_fxm3232.o      udata   0x000b36       data   0x000000
          .idata_Hashes.o      idata   0x000b36       data   0x000000
        .udata_ENC28J60.o      udata   0x000b36       data   0x000000
             .idata_FTP.o      idata   0x000b36       data   0x000000
             .udata_FTP.o      udata   0x000b36       data   0x000000
         .idata_fxm3232.o      idata   0x000b36       data   0x000000
          .udata___init.o      udata   0x000b36       data   0x000000
          .idata___init.o      idata   0x000b36       data   0x000000
             .udata_log.o      udata   0x000b36       data   0x000000
             .idata_log.o      idata   0x000b36       data   0x000000
        .udata_UnpkMath.o      udata   0x000b36       data   0x000000
        .idata_UnpkMath.o      idata   0x000b36       data   0x000000
           .idata_errno.o      idata   0x000b36       data   0x000000
           .udata_frexp.o      udata   0x000b36       data   0x000000
           .idata_frexp.o      idata   0x000b36       data   0x000000
        .udata_PackMath.o      udata   0x000b36       data   0x000000
        .idata_PackMath.o      idata   0x000b36       data   0x000000
           .idata_c018i.o      idata   0x000b36       data   0x000000
        .idata_ETH97J60.o      idata   0x000b36       data   0x000000
        .idata_ENC28J60.o      idata   0x000b36       data   0x000000
      .idata_ENCX24J600.o      idata   0x000b36       data   0x000000
      .udata_ENCX24J600.o      udata   0x000b36       data   0x000000
  .idata_Custom_SPI_Low.o      idata   0x000b36       data   0x000000
     .idata_Custom_UART.o      idata   0x000b36       data   0x000000
 .idata_Custom_UART_Low.o      idata   0x000b36       data   0x000000
  .idata_Misc_Functions.o      idata   0x000b36       data   0x000000
        .idata_swgtci2c.o      idata   0x000b36       data   0x000000
        .udata_swckti2c.o      udata   0x000b36       data   0x000000
        .idata_swckti2c.o      idata   0x000b36       data   0x000000
        .idata_fxd3232u.o      idata   0x000b36       data   0x000000
        .udata_fxd1616u.o      udata   0x000b36       data   0x000000
          .udata_DynDNS.o      udata   0x000b36       data   0x000000
          .idata_DynDNS.o      idata   0x000b36       data   0x000000
        .idata_fxd1616u.o      idata   0x000b36       data   0x000000
        .udata_fxd3232u.o      udata   0x000b36       data   0x000000
            UDP.o:UDPTask     actrec   0x000c00       data   0x000005
         TCP.o:TCPProcess     actrec   0x000c00       data   0x000025
         DHCP.o:_DHCPSend     actrec   0x000c00       data   0x000005
  TCP.o:TCPAdjustFIFOSize     actrec   0x000c00       data   0x000006
            UDP.o:UDPInit     actrec   0x000c00       data   0x000001
            TCP.o:TCPTick     actrec   0x000c00       data   0x00000a
  TCP.o:TCPFindROMArrayEx     actrec   0x000c00       data   0x000031
         UART.o:getsUSART     actrec   0x000c00       data   0x000002
       TCP.o:TCPPeekArray     actrec   0x000c00       data   0x000006
   TCP.o:TCPGetTxFIFOFull     actrec   0x000c00       data   0x000004
TCPPerformanceTest.o:TCPTXPerformanceTask     actrec   0x000c00       data   0x000014
    UART.o:ReadStringUART     actrec   0x000c00       data   0x000002
TCPPerformanceTest.o:TCPRXPerformanceTask     actrec   0x000c00       data   0x000018
   DHCPs.o:DHCPServerTask     actrec   0x000c00       data   0x00002f
UART2TCPBridge.o:UART2TCPBridgeTask     actrec   0x000c00       data   0x00000f
          DHCP.o:DHCPInit     actrec   0x000c00       data   0x000001
      DHCP.o:_DHCPReceive     actrec   0x000c00       data   0x000009
 Announce.o:DiscoveryTask     actrec   0x000c00       data   0x000001
Custom_UART.o:UART_Read_Array     actrec   0x000c00       data   0x000002
Custom_UART.o:UART_Read_String     actrec   0x000c00       data   0x000002
Custom_UART.o:UART_Write_Array     actrec   0x000c00       data   0x000002
         ARP.o:ARPSendPkt     actrec   0x000c00       data   0x00001c
         ARP.o:ARPProcess     actrec   0x000c00       data   0x00001d
UARTConfig.o:DownloadMPFS     actrec   0x000c00       data   0x00008e
BerkeleyAPI.o:BerkeleySocketInit     actrec   0x000c00       data   0x000004
GenericTCPServer.o:GenericTCPServer     actrec   0x000c00       data   0x00002b
GenericTCPClient.o:GenericTCPClient     actrec   0x000c00       data   0x00000c
BerkeleyUDPClientDemo.o:BerkeleySNTPGetUTCSeconds     actrec   0x000c00       data   0x000008
BerkeleyUDPClientDemo.o:BerkeleyUDPClientDemo     actrec   0x000c00       data   0x000034
BerkeleyTCPServerDemo.o:BerkeleyTCPServerDemo     actrec   0x000c00       data   0x000035
BerkeleyTCPClientDemo.o:BerkeleyTCPClientDemo     actrec   0x000c00       data   0x00000d
 MainDemo.o:InitAppConfig     actrec   0x000c00       data   0x000007
     MainDemo.o:ProcessIO     actrec   0x000c00       data   0x000001
MainDemo.o:DisplayIPValue     actrec   0x000c00       data   0x000005
BerkeleyAPI.o:gethostname     actrec   0x000c00       data   0x000005
CustomHTTPApp.o:HTTPPrint_config_mac     actrec   0x000c00       data   0x000001
CustomHTTPApp.o:HTTPPrintIP     actrec   0x000c00       data   0x000005
CustomHTTPApp.o:HTTPPrint_uploadedmd5     actrec   0x000c00       data   0x000001
CustomHTTPApp.o:HTTPPrint_cookiename     actrec   0x000c00       data   0x000002
CustomHTTPApp.o:HTTPPrint_hellomsg     actrec   0x000c00       data   0x000002
CustomHTTPApp.o:HTTPPrint_lcdtext     actrec   0x000c00       data   0x000002
CustomHTTPApp.o:HTTPPrint_UART_Output     actrec   0x000c00       data   0x000082
CustomHTTPApp.o:HTTPPrint_pot     actrec   0x000c00       data   0x00000a
CustomHTTPApp.o:HTTPPrint_temp     actrec   0x000c00       data   0x000014
CustomHTTPApp.o:HTTPPostEmail     actrec   0x000c00       data   0x00000c
CustomHTTPApp.o:HTTPPostConfig     actrec   0x000c00       data   0x000039
CustomHTTPApp.o:HTTPExecuteGet     actrec   0x000c00       data   0x000044
         UDP.o:UDPProcess     actrec   0x000c00       data   0x000019
 SNTP.o:SNTPGetUTCSeconds     actrec   0x000c00       data   0x000008
        SNTP.o:SNTPClient     actrec   0x000c00       data   0x000032
SMTP.o:FindROMEmailAddress     actrec   0x000c00       data   0x000005
  SMTP.o:FindEmailAddress     actrec   0x000c00       data   0x000004
   SMTP.o:SMTPPutROMArray     actrec   0x000c00       data   0x000002
      SMTP.o:SMTPPutArray     actrec   0x000c00       data   0x000002
      Reboot.o:RebootTask     actrec   0x000c00       data   0x00000e
          NBNS.o:NBNSTask     actrec   0x000c00       data   0x000021
         MPFS2.o:MPFSOpen     actrec   0x000c00       data   0x000018
         MPFS2.o:MPFSInit     actrec   0x000c00       data   0x000001
         IP.o:IPGetHeader     actrec   0x000c00       data   0x000016
      ICMP.o:ICMPGetReply     actrec   0x000c00       data   0x00000a
       ICMP.o:ICMPProcess     actrec   0x000c00       data   0x000004
      HTTP2.o:HTTPIncFile     actrec   0x000c00       data   0x000045
     HTTP2.o:HTTPSendFile     actrec   0x000c00       data   0x000045
     HTTP2.o:HTTPLoadConn     actrec   0x000c00       data   0x000002
         HTTP2.o:HTTPInit     actrec   0x000c00       data   0x000002
      Helpers.o:strncpy_m     actrec   0x000c00       data   0x000008
        Helpers.o:strnchr     actrec   0x000c00       data   0x000001
 Helpers.o:stricmppgm2ram     actrec   0x000c00       data   0x000002
   Helpers.o:Base64Encode     actrec   0x000c00       data   0x000008
   Helpers.o:Base64Decode     actrec   0x000c00       data   0x000004
  ETH97J60.o:MACGetHeader     actrec   0x000c00       data   0x000014
    ETH97J60.o:ReadPHYReg     actrec   0x000c00       data   0x000002
   ETH97J60.o:WritePHYReg     actrec   0x000c00       data   0x000001
    Hashes.o:MD5HashBlock     actrec   0x000c00       data   0x00001a
Helpers.o:GenerateRandomDWORD     actrec   0x000c00       data   0x000014
       ETH97J60.o:MACInit     actrec   0x000c01       data   0x000001
    Announce.o:AnnounceIP     actrec   0x000c02       data   0x000002
     AutoIP.o:AutoIPTasks     actrec   0x000c02       data   0x000001
            TCP.o:TCPPeek     actrec   0x000c06       data   0x000001
          SMTP.o:SMTPTask     actrec   0x000c08       data   0x000007
          DHCP.o:DHCPTask     actrec   0x000c09       data   0x000001
      PingDemo.o:PingDemo     actrec   0x000c0a       data   0x000004
     SMTP.o:SMTPPutString     actrec   0x000c0c       data   0x000002
  SMTP.o:SMTPPutROMString     actrec   0x000c0c       data   0x000002
          Helpers.o:uitoa     actrec   0x000c0c       data   0x000006
    BerkeleyAPI.o:connect     actrec   0x000c0d       data   0x00000c
             TCP.o:TCPPut     actrec   0x000c0f       data   0x000002
            TCP.o:TCPInit     actrec   0x000c14       data   0x00000b
ETH97J60.o:MACCalcRxChecksum     actrec   0x000c16       data   0x000004
      TCP.o:TCPRAMCopyROM     actrec   0x000c18       data   0x000012
 UDP.o:FindMatchingSocket     actrec   0x000c19       data   0x000004
      Hashes.o:MD5AddData     actrec   0x000c1a       data   0x000002
   Hashes.o:MD5AddROMData     actrec   0x000c1a       data   0x000002
    Hashes.o:MD5Calculate     actrec   0x000c1a       data   0x000015
   Helpers.o:LFSRSeedRand     actrec   0x000c1f       data   0x000005
       NBNS.o:NBNSGetName     actrec   0x000c21       data   0x000003
       NBNS.o:NBNSPutName     actrec   0x000c21       data   0x000002
 TCP.o:FindMatchingSocket     actrec   0x000c25       data   0x000006
       TCP.o:HandleTCPSeg     actrec   0x000c25       data   0x00001c
     TCP.o:TCPPutROMArray     actrec   0x000c2a       data   0x000006
   DHCPs.o:DHCPServerInit     actrec   0x000c2f       data   0x000002
DHCPs.o:DHCPReplyToRequest     actrec   0x000c2f       data   0x000012
 DHCPs.o:renew_dhcps_Pool     actrec   0x000c2f       data   0x000006
   DHCPs.o:isIpAddrInPool     actrec   0x000c2f       data   0x000002
DHCPs.o:preAssign_ToDHCPClient_FromPool     actrec   0x000c2f       data   0x000006
Helpers.o:leftRotateDWORD     actrec   0x000c2f       data   0x000002
HTTP2.o:HTTPHeaderParseAuthorization     actrec   0x000c31       data   0x00002c
CustomHTTPApp.o:HTTPPostMD5     actrec   0x000c31       data   0x000004
HTTP2.o:HTTPHeaderParseCookie     actrec   0x000c31       data   0x000004
   HTTP2.o:HTTPMPFSUpload     actrec   0x000c31       data   0x000014
HTTP2.o:HTTPHeaderParseContentLength     actrec   0x000c31       data   0x00000c
     Tick.o:TickGetDiv64K     actrec   0x000c34       data   0x000004
Helpers.o:ROMStringToIPAddress     actrec   0x000c34       data   0x000007
      DNS.o:DNSIsResolved     actrec   0x000c34       data   0x000019
   BerkeleyAPI.o:recvfrom     actrec   0x000c34       data   0x000006
     BerkeleyAPI.o:listen     actrec   0x000c35       data   0x000006
     BerkeleyAPI.o:socket     actrec   0x000c35       data   0x000003
     BerkeleyAPI.o:accept     actrec   0x000c35       data   0x000009
     BerkeleyAPI.o:sendto     actrec   0x000c35       data   0x000020
DHCPs.o:DHCPReplyToDiscovery     actrec   0x000c35       data   0x000006
BerkeleyAPI.o:closesocket     actrec   0x000c35       data   0x000003
    HTTP2.o:HTTPURLDecode     actrec   0x000c39       data   0x000009
Helpers.o:FormatNetBIOSName     actrec   0x000c39       data   0x000001
Helpers.o:StringToIPAddress     actrec   0x000c39       data   0x000007
     TCP.o:TCPFindArrayEx     actrec   0x000c39       data   0x000030
   TCP.o:TCPGetRxFIFOFree     actrec   0x000c39       data   0x000004
 MainDemo.o:SaveAppConfig     actrec   0x000c39       data   0x000006
             TCP.o:TCPGet     actrec   0x000c39       data   0x000002
       BerkeleyAPI.o:recv     actrec   0x000c3a       data   0x000002
            TCP.o:TCPOpen     actrec   0x000c3b       data   0x000001
DHCPs.o:isMacAddr_Effective     actrec   0x000c41       data   0x000002
DHCPs.o:GetIPAddrFromIndex_DhcpPool     actrec   0x000c41       data   0x000004
DHCPs.o:postAssign_ToDHCPClient_FromPool     actrec   0x000c41       data   0x000002
TCP.o:GetMaxSegSizeOption     actrec   0x000c41       data   0x000004
DHCPs.o:getIndexByMacaddr_DhcpPool     actrec   0x000c43       data   0x000002
Custom_UART.o:UART_Write_String     actrec   0x000c44       data   0x000002
Misc_Functions.o:ConvertArrayToString     actrec   0x000c44       data   0x000003
Custom_SPI_Low.o:ReadSPI1     actrec   0x000c44       data   0x000001
Custom_SPI_Low.o:WriteSPI1     actrec   0x000c44       data   0x000001
 Custom_I2C.o:I2C_Receive     actrec   0x000c44       data   0x000003
Custom_I2C.o:I2C_Transmit     actrec   0x000c44       data   0x000002
Misc_Functions.o:Convert_String_to_Int     actrec   0x000c44       data   0x00000e
  MPFS2.o:MPFSGetFilename     actrec   0x000c44       data   0x000004
      MPFS2.o:MPFSOpenROM     actrec   0x000c45       data   0x000019
       MPFS2.o:MPFSOpenID     actrec   0x000c45       data   0x000001
 DHCPs.o:Compare_MAC_addr     actrec   0x000c45       data   0x000002
         MPFS2.o:MPFSSeek     actrec   0x000c45       data   0x000004
ETH97J60.o:MACSetReadPtrInRx     actrec   0x000c4d       data   0x000002
       DNS.o:DNSPutString     actrec   0x000c4d       data   0x000004
        UDP.o:UDPGetArray     actrec   0x000c4d       data   0x000002
    DNS.o:DNSPutROMString     actrec   0x000c4d       data   0x000005
  ETH97J60.o:MACDiscardRx     actrec   0x000c4d       data   0x000002
     DNS.o:DNSDiscardName     actrec   0x000c4f       data   0x000001
     UDP.o:UDPPutROMArray     actrec   0x000c52       data   0x000002
       BerkeleyAPI.o:bind     actrec   0x000c55       data   0x000006
BerkeleyAPI.o:HandlePossibleTCPDisconnection     actrec   0x000c55       data   0x000004
           UDP.o:UDPFlush     actrec   0x000c55       data   0x00001c
        UDP.o:UDPPutArray     actrec   0x000c55       data   0x000002
         ARP.o:ARPResolve     actrec   0x000c55       data   0x00001c
       Helpers.o:LFSRRand     actrec   0x000c59       data   0x000001
          UDP.o:UDPOpenEx     actrec   0x000c5b       data   0x000003
        TCP.o:TCPGetArray     actrec   0x000c5d       data   0x000004
      Telnet.o:TelnetTask     actrec   0x000c69       data   0x000013
CustomHTTPApp.o:HTTPExecutePost     actrec   0x000c69       data   0x000014
     StackTsk.o:StackTask     actrec   0x000c71       data   0x000009
       HTTP2.o:HTTPReadTo     actrec   0x000c7d       data   0x000003
HTTP2.o:HTTPReadPostValue     actrec   0x000c80       data   0x000001
 HTTP2.o:HTTPReadPostName     actrec   0x000c80       data   0x000001
      TCP.o:TCPIsPutReady     actrec   0x000c82       data   0x000001
     Tick.o:TickGetDiv256     actrec   0x000c82       data   0x000004
            TCP.o:SendTCP     actrec   0x000c82       data   0x000028
UARTConfig.o:DoUARTConfig     actrec   0x000c8e       data   0x00001d
ETH97J60.o:MACMemCopyAsync     actrec   0x000caa       data   0x000006
ETH97J60.o:CalcIPBufferChecksum     actrec   0x000caa       data   0x00001e
 ETH97J60.o:MACSetReadPtr     actrec   0x000caa       data   0x000002
ETH97J60.o:MACSetWritePtr     actrec   0x000caa       data   0x000002
      ETH97J60.o:MACFlush     actrec   0x000caa       data   0x000001
         IP.o:IPPutHeader     actrec   0x000caa       data   0x000014
ETH97J60.o:MACGetFreeRxSize     actrec   0x000caa       data   0x000004
SPIFlash.o:SPIFlashReadArray     actrec   0x000cab       data   0x000004
SPIFlash.o:WriteBufferToMainMemory     actrec   0x000cab       data   0x000002
SPIFlash.o:ReadBufferFromMainMemory     actrec   0x000cab       data   0x000002
           Tick.o:TickGet     actrec   0x000cab       data   0x000004
  SPIFlash.o:ByteToBuffer     actrec   0x000cab       data   0x000002
       MPFS2.o:MPFSFormat     actrec   0x000cab       data   0x000001
SPIFlash.o:SPIFlashIsBusy     actrec   0x000cad       data   0x000001
          Helpers.o:swaps     actrec   0x000cbe       data   0x000003
 Helpers.o:CalcIPChecksum     actrec   0x000cbe       data   0x000008
      HTTP2.o:HTTPProcess     actrec   0x000cc8       data   0x000019
        TCP.o:TCPPutArray     actrec   0x000ce1       data   0x000006
          MainDemo.o:main     actrec   0x000ce7       data   0x000004
   ETH97J60.o:MACGetArray     actrec   0x000ceb       data   0x000003
       HTTP2.o:HTTPServer     actrec   0x000cee       data   0x000001
                   .stack      udata   0x000d00       data   0x000100
   .udata_CustomHTTPApp.o      udata   0x000e00       data   0x000075
        .udata_StackTsk.o      udata   0x000e75       data   0x00000b
              SFR_BANKED0      udata   0x000e80       data   0x000006
              SFR_BANKED1      udata   0x000e8a       data   0x000001
              SFR_BANKED2      udata   0x000e97       data   0x000003
              SFR_BANKED3      udata   0x000ea0       data   0x000001
              SFR_BANKED4      udata   0x000ea2       data   0x000003
              SFR_BANKED5      udata   0x000ea6       data   0x000002
              SFR_BANKED6      udata   0x000eaa       data   0x000002
              SFR_BANKED7      udata   0x000eb2       data   0x000001
              SFR_BANKED8      udata   0x000eb4       data   0x000001
              SFR_BANKED9      udata   0x000eb6       data   0x000004
             SFR_BANKED10      udata   0x000ec0       data   0x000012
             SFR_BANKED11      udata   0x000ed4       data   0x000002
             SFR_BANKED12      udata   0x000ed8       data   0x000002
             SFR_BANKED13      udata   0x000ee2       data   0x000016
             SFR_BANKED14      udata   0x000efb       data   0x000001
             SFR_BANKED15      udata   0x000efd       data   0x000002
            .udata_SMTP.o      udata   0x000f00       data   0x000057
.idata_BerkeleyUDPClientDemo.o      idata   0x000f57       data   0x000009
            SFR_UNBANKED0      udata   0x000f60       data   0x0000a0



                              Program Memory Usage 
                               Start         End      
                           ---------   ---------      
                            0x000000    0x000005      
                            0x000008    0x00000d      
                            0x000018    0x00001d      
                            0x00002a    0x015d6e      
                            0x01fff8    0x01fff8      
                            0x01fffa    0x01fffa      
                            0x01fffd    0x01fffd      
            89434 out of 131072 program addresses used, program memory utilization is 68%



                              Symbols - Sorted by Name
                     Name    Address   Location    Storage File                     
                ---------  ---------  ---------  --------- ---------                
                  ARPInit   0x011d10    program     extern F:\PIC-web\c18\PIC-WEB-5-42-UEXT-full\Microchip\TCPIP Stack\ARP.c
            ARPIsResolved   0x011f30    program     extern F:\PIC-web\c18\PIC-WEB-5-42-UEXT-full\Microchip\TCPIP Stack\ARP.c
               ARPProcess   0x011d28    program     extern F:\PIC-web\c18\PIC-WEB-5-42-UEXT-full\Microchip\TCPIP Stack\ARP.c
                   ARPPut   0x011c4a    program     static F:\PIC-web\c18\PIC-WEB-5-42-UEXT-full\Microchip\TCPIP Stack\ARP.c
               ARPResolve   0x011ed6    program     extern F:\PIC-web\c18\PIC-WEB-5-42-UEXT-full\Microchip\TCPIP Stack\ARP.c
               ARPSendPkt   0x011c06    program     extern F:\PIC-web\c18\PIC-WEB-5-42-UEXT-full\Microchip\TCPIP Stack\ARP.c
               AnnounceIP   0x0143f0    program     extern F:\PIC-web\c18\PIC-WEB-5-42-UEXT-full\Microchip\TCPIP Stack\Announce.c
 AutoIPConfigIsInProgress   0x00f154    program     extern F:\PIC-web\c18\PIC-WEB-5-42-UEXT-full\Microchip\TCPIP Stack\AutoIP.c
           AutoIPConflict   0x00f4e2    program     extern F:\PIC-web\c18\PIC-WEB-5-42-UEXT-full\Microchip\TCPIP Stack\AutoIP.c
            AutoIPDisable   0x00f582    program     extern F:\PIC-web\c18\PIC-WEB-5-42-UEXT-full\Microchip\TCPIP Stack\AutoIP.c
             AutoIPEnable   0x00f596    program     extern F:\PIC-web\c18\PIC-WEB-5-42-UEXT-full\Microchip\TCPIP Stack\AutoIP.c
               AutoIPInit   0x00f130    program     extern F:\PIC-web\c18\PIC-WEB-5-42-UEXT-full\Microchip\TCPIP Stack\AutoIP.c
       AutoIPIsConfigured   0x00f148    program     extern F:\PIC-web\c18\PIC-WEB-5-42-UEXT-full\Microchip\TCPIP Stack\AutoIP.c
         AutoIPIsDisabled   0x00f5a0    program     extern F:\PIC-web\c18\PIC-WEB-5-42-UEXT-full\Microchip\TCPIP Stack\AutoIP.c
               AutoIPRand   0x00f5bc    program     extern F:\PIC-web\c18\PIC-WEB-5-42-UEXT-full\Microchip\TCPIP Stack\AutoIP.c
           AutoIPRandSeed   0x00f5aa    program     extern F:\PIC-web\c18\PIC-WEB-5-42-UEXT-full\Microchip\TCPIP Stack\AutoIP.c
              AutoIPTasks   0x00f160    program     extern F:\PIC-web\c18\PIC-WEB-5-42-UEXT-full\Microchip\TCPIP Stack\AutoIP.c
             Base64Decode   0x00c906    program     extern F:\PIC-web\c18\PIC-WEB-5-42-UEXT-full\Microchip\TCPIP Stack\Helpers.c
             Base64Encode   0x00c9fe    program     extern F:\PIC-web\c18\PIC-WEB-5-42-UEXT-full\Microchip\TCPIP Stack\Helpers.c
BerkeleySNTPGetUTCSeconds   0x012a28    program     extern F:\PIC-web\c18\PIC-WEB-5-42-UEXT-full\TCPIP\Demo App\BerkeleyUDPClientDemo.c
       BerkeleySocketInit   0x00937a    program     extern F:\PIC-web\c18\PIC-WEB-5-42-UEXT-full\Microchip\TCPIP Stack\BerkeleyAPI.c
    BerkeleyTCPClientDemo   0x0145ce    program     extern F:\PIC-web\c18\PIC-WEB-5-42-UEXT-full\TCPIP\Demo App\BerkeleyTCPClientDemo.c
    BerkeleyTCPServerDemo   0x014202    program     extern F:\PIC-web\c18\PIC-WEB-5-42-UEXT-full\TCPIP\Demo App\BerkeleyTCPServerDemo.c
    BerkeleyUDPClientDemo   0x01278e    program     extern F:\PIC-web\c18\PIC-WEB-5-42-UEXT-full\TCPIP\Demo App\BerkeleyUDPClientDemo.c
                BusyUSART   0x0152ac    program     extern F:\PIC-web\c18\PIC-WEB-5-42-UEXT-full\Microchip\TCPIP Stack\UART.c
             ByteToBuffer   0x012d9c    program     extern F:\PIC-web\c18\PIC-WEB-5-42-UEXT-full\Microchip\TCPIP Stack\SPIFlash.c
     CalcIPBufferChecksum   0x00e66c    program     extern F:\PIC-web\c18\PIC-WEB-5-42-UEXT-full\Microchip\TCPIP Stack\ETH97J60.c
           CalcIPChecksum   0x00cce8    program     extern F:\PIC-web\c18\PIC-WEB-5-42-UEXT-full\Microchip\TCPIP Stack\Helpers.c
               Clock_test   0x015c0c    program     extern E:\3.46\pic18-lt\cxx-framework\src\pmc_common\SW_I2C\swckti2c.c
                CloseSPI1   0x01575a    program     extern F:\PIC-web\c18\PIC-WEB-5-42-UEXT-full\TCPIP\Demo App\Olimex_Demo_Files\Custom_SPI_Low.c
              CloseSocket   0x00200a    program     static F:\PIC-web\c18\PIC-WEB-5-42-UEXT-full\Microchip\TCPIP Stack\TCP.c
               CloseUSART   0x0152b8    program     extern F:\PIC-web\c18\PIC-WEB-5-42-UEXT-full\Microchip\TCPIP Stack\UART.c
         Compare_MAC_addr   0x00b452    program     static F:\PIC-web\c18\PIC-WEB-5-42-UEXT-full\Microchip\TCPIP Stack\DHCPs.c
     ConvertArrayToString   0x0123f0    program     extern F:\PIC-web\c18\PIC-WEB-5-42-UEXT-full\TCPIP\Demo App\Olimex_Demo_Files\Misc_Functions.c
    Convert_String_to_Int   0x012454    program     extern F:\PIC-web\c18\PIC-WEB-5-42-UEXT-full\TCPIP\Demo App\Olimex_Demo_Files\Misc_Functions.c
          Custom_SWAckI2C   0x015444    program     extern F:\PIC-web\c18\PIC-WEB-5-42-UEXT-full\TCPIP\Demo App\Olimex_Demo_Files\Custom_I2C_Low.c
       Custom_SWNotAckI2C   0x015452    program     extern F:\PIC-web\c18\PIC-WEB-5-42-UEXT-full\TCPIP\Demo App\Olimex_Demo_Files\Custom_I2C_Low.c
         Custom_SWReadI2C   0x015414    program     extern F:\PIC-web\c18\PIC-WEB-5-42-UEXT-full\TCPIP\Demo App\Olimex_Demo_Files\Custom_I2C_Low.c
        Custom_SWStartI2C   0x015376    program     extern F:\PIC-web\c18\PIC-WEB-5-42-UEXT-full\TCPIP\Demo App\Olimex_Demo_Files\Custom_I2C_Low.c
         Custom_SWStopI2C   0x01537e    program     extern F:\PIC-web\c18\PIC-WEB-5-42-UEXT-full\TCPIP\Demo App\Olimex_Demo_Files\Custom_I2C_Low.c
        Custom_SWWriteI2C   0x0153ac    program     extern F:\PIC-web\c18\PIC-WEB-5-42-UEXT-full\TCPIP\Demo App\Olimex_Demo_Files\Custom_I2C_Low.c
                    D10_1   0x015c06    program     static E:\3.46\pic18-lt\cxx-framework\src\traditional\delays\d10tcyx.asm
                     D10x   0x015bfe    program     static E:\3.46\pic18-lt\cxx-framework\src\traditional\delays\d10tcyx.asm
                    D1K_1   0x015bc6    program     static E:\3.46\pic18-lt\cxx-framework\src\traditional\delays\d1ktcyx.asm
                     D1Kx   0x015bc4    program     static E:\3.46\pic18-lt\cxx-framework\src\traditional\delays\d1ktcyx.asm
              DHCPDisable   0x00d08e    program     extern F:\PIC-web\c18\PIC-WEB-5-42-UEXT-full\Microchip\TCPIP Stack\DHCP.c
               DHCPEnable   0x00d09e    program     extern F:\PIC-web\c18\PIC-WEB-5-42-UEXT-full\Microchip\TCPIP Stack\DHCP.c
                 DHCPInit   0x00d058    program     extern F:\PIC-web\c18\PIC-WEB-5-42-UEXT-full\Microchip\TCPIP Stack\DHCP.c
              DHCPIsBound   0x00d0b6    program     extern F:\PIC-web\c18\PIC-WEB-5-42-UEXT-full\Microchip\TCPIP Stack\DHCP.c
            DHCPIsEnabled   0x00d0ac    program     extern F:\PIC-web\c18\PIC-WEB-5-42-UEXT-full\Microchip\TCPIP Stack\DHCP.c
     DHCPIsServerDetected   0x00d0ca    program     extern F:\PIC-web\c18\PIC-WEB-5-42-UEXT-full\Microchip\TCPIP Stack\DHCP.c
     DHCPReplyToDiscovery   0x00afec    program     static F:\PIC-web\c18\PIC-WEB-5-42-UEXT-full\Microchip\TCPIP Stack\DHCPs.c
       DHCPReplyToRequest   0x00b082    program     static F:\PIC-web\c18\PIC-WEB-5-42-UEXT-full\Microchip\TCPIP Stack\DHCPs.c
           DHCPServerInit   0x00b234    program     static F:\PIC-web\c18\PIC-WEB-5-42-UEXT-full\Microchip\TCPIP Stack\DHCPs.c
           DHCPServerTask   0x00adba    program     extern F:\PIC-web\c18\PIC-WEB-5-42-UEXT-full\Microchip\TCPIP Stack\DHCPs.c
       DHCPServer_Disable   0x00b660    program     extern F:\PIC-web\c18\PIC-WEB-5-42-UEXT-full\Microchip\TCPIP Stack\DHCPs.c
        DHCPServer_Enable   0x00b678    program     extern F:\PIC-web\c18\PIC-WEB-5-42-UEXT-full\Microchip\TCPIP Stack\DHCPs.c
         DHCPStateChanged   0x00d0be    program     extern F:\PIC-web\c18\PIC-WEB-5-42-UEXT-full\Microchip\TCPIP Stack\DHCP.c
                 DHCPTask   0x00d0da    program     extern F:\PIC-web\c18\PIC-WEB-5-42-UEXT-full\Microchip\TCPIP Stack\DHCP.c
           DHCPTempIPAddr   0x00d0d6    program     extern F:\PIC-web\c18\PIC-WEB-5-42-UEXT-full\Microchip\TCPIP Stack\DHCP.c
            DNSBeginUsage   0x00ea78    program     extern F:\PIC-web\c18\PIC-WEB-5-42-UEXT-full\Microchip\TCPIP Stack\DNS.c
           DNSDiscardName   0x00efb0    program     static F:\PIC-web\c18\PIC-WEB-5-42-UEXT-full\Microchip\TCPIP Stack\DNS.c
              DNSEndUsage   0x00ea82    program     extern F:\PIC-web\c18\PIC-WEB-5-42-UEXT-full\Microchip\TCPIP Stack\DNS.c
            DNSIsResolved   0x00eb22    program     extern F:\PIC-web\c18\PIC-WEB-5-42-UEXT-full\Microchip\TCPIP Stack\DNS.c
          DNSPutROMString   0x00eef6    program     static F:\PIC-web\c18\PIC-WEB-5-42-UEXT-full\Microchip\TCPIP Stack\DNS.c
             DNSPutString   0x00ee5c    program     static F:\PIC-web\c18\PIC-WEB-5-42-UEXT-full\Microchip\TCPIP Stack\DNS.c
               DNSResolve   0x00ea9c    program     extern F:\PIC-web\c18\PIC-WEB-5-42-UEXT-full\Microchip\TCPIP Stack\DNS.c
            DNSResolveROM   0x00eadc    program     extern F:\PIC-web\c18\PIC-WEB-5-42-UEXT-full\Microchip\TCPIP Stack\DNS.c
              DataRdySPI1   0x0157ca    program     extern F:\PIC-web\c18\PIC-WEB-5-42-UEXT-full\TCPIP\Demo App\Olimex_Demo_Files\Custom_SPI_Low.c
             DataRdyUSART   0x0152c4    program     extern F:\PIC-web\c18\PIC-WEB-5-42-UEXT-full\Microchip\TCPIP Stack\UART.c
              Delay10TCYx   0x015bf6    program     extern E:\3.46\pic18-lt\cxx-framework\src\traditional\delays\d10tcyx.asm
              Delay1KTCYx   0x015bba    program     extern E:\3.46\pic18-lt\cxx-framework\src\traditional\delays\d1ktcyx.asm
            DiscoveryTask   0x01445e    program     extern F:\PIC-web\c18\PIC-WEB-5-42-UEXT-full\Microchip\TCPIP Stack\Announce.c
           DisplayIPValue   0x00f9de    program     extern F:\PIC-web\c18\PIC-WEB-5-42-UEXT-full\TCPIP\Demo App\MainDemo.c
             DoUARTConfig   0x011766    program     extern F:\PIC-web\c18\PIC-WEB-5-42-UEXT-full\TCPIP\Demo App\UARTConfig.c
             DownloadMPFS   0x011a58    program     static F:\PIC-web\c18\PIC-WEB-5-42-UEXT-full\TCPIP\Demo App\UARTConfig.c
                 FLO1632S   0x00fd26    program     extern E:\3.46\pic18-lt\cxx-framework\src\traditional\math\cast16FP.asm
                 FLO1632U   0x00fd22    program     extern E:\3.46\pic18-lt\cxx-framework\src\traditional\math\cast16FP.asm
                    FPA32   0x00fdf4    program     extern E:\3.46\pic18-lt\cxx-framework\src\traditional\math\addFP.asm
                    FPD32   0x00fd4c    program     extern E:\3.46\pic18-lt\cxx-framework\src\traditional\math\divFP.asm
                    FPM32   0x010158    program     extern E:\3.46\pic18-lt\cxx-framework\src\traditional\math\mulFP.asm
                    FPS32   0x00fdf2    program     extern E:\3.46\pic18-lt\cxx-framework\src\traditional\math\addFP.asm
                 FXD1616U   0x015b62    program     extern E:\3.46\pic18-lt\cxx-framework\src\traditional\math\fxd1616u.c
                 FXD3232U   0x015a70    program     extern E:\3.46\pic18-lt\cxx-framework\src\traditional\math\fxd3232u.c
                 FXM1616U   0x00ff20    program     extern E:\3.46\pic18-lt\cxx-framework\src\traditional\math\fxm1616u.asm
                 FXM2424U   0x00ff5c    program     extern E:\3.46\pic18-lt\cxx-framework\src\traditional\math\fxm2424u.asm
                  FXM3232   0x0159a4    program     extern E:\3.46\pic18-lt\cxx-framework\src\traditional\math\fxm3232.c
         FindEmailAddress   0x007e18    program     static F:\PIC-web\c18\PIC-WEB-5-42-UEXT-full\Microchip\TCPIP Stack\SMTP.c
       FindMatchingSocket   0x00c2d2    program     static F:\PIC-web\c18\PIC-WEB-5-42-UEXT-full\Microchip\TCPIP Stack\UDP.c
       FindMatchingSocket   0x001d12    program     static F:\PIC-web\c18\PIC-WEB-5-42-UEXT-full\Microchip\TCPIP Stack\TCP.c
      FindROMEmailAddress   0x007eb0    program     static F:\PIC-web\c18\PIC-WEB-5-42-UEXT-full\Microchip\TCPIP Stack\SMTP.c
        FormatNetBIOSName   0x00ce28    program     extern F:\PIC-web\c18\PIC-WEB-5-42-UEXT-full\Microchip\TCPIP Stack\Helpers.c
      GenerateRandomDWORD   0x00c5d4    program     extern F:\PIC-web\c18\PIC-WEB-5-42-UEXT-full\Microchip\TCPIP Stack\Helpers.c
         GenericTCPClient   0x01400c    program     extern F:\PIC-web\c18\PIC-WEB-5-42-UEXT-full\TCPIP\Demo App\GenericTCPClient.c
         GenericTCPServer   0x0147a8    program     extern F:\PIC-web\c18\PIC-WEB-5-42-UEXT-full\TCPIP\Demo App\GenericTCPServer.c
GetIPAddrFromIndex_DhcpPool   0x00b404    program     static F:\PIC-web\c18\PIC-WEB-5-42-UEXT-full\Microchip\TCPIP Stack\DHCPs.c
      GetMaxSegSizeOption   0x002088    program     static F:\PIC-web\c18\PIC-WEB-5-42-UEXT-full\Microchip\TCPIP Stack\TCP.c
              GetTickCopy   0x01564e    program     static F:\PIC-web\c18\PIC-WEB-5-42-UEXT-full\Microchip\TCPIP Stack\Tick.c
          HTML_DOWN_ARROW   0x015c34    program     extern F:\PIC-web\c18\PIC-WEB-5-42-UEXT-full\TCPIP\Demo App\CustomHTTPApp.c
            HTML_UP_ARROW   0x015c31    program     extern F:\PIC-web\c18\PIC-WEB-5-42-UEXT-full\TCPIP\Demo App\CustomHTTPApp.c
            HTTPCheckAuth   0x00561a    program     extern F:\PIC-web\c18\PIC-WEB-5-42-UEXT-full\TCPIP\Demo App\CustomHTTPApp.c
           HTTPExecuteGet   0x00565c    program     extern F:\PIC-web\c18\PIC-WEB-5-42-UEXT-full\TCPIP\Demo App\CustomHTTPApp.c
          HTTPExecutePost   0x005dee    program     extern F:\PIC-web\c18\PIC-WEB-5-42-UEXT-full\TCPIP\Demo App\CustomHTTPApp.c
               HTTPGetArg   0x004b44    program     extern F:\PIC-web\c18\PIC-WEB-5-42-UEXT-full\Microchip\TCPIP Stack\HTTP2.c
            HTTPGetROMArg   0x004b96    program     extern F:\PIC-web\c18\PIC-WEB-5-42-UEXT-full\Microchip\TCPIP Stack\HTTP2.c
HTTPHeaderParseAuthorization   0x004878    program     static F:\PIC-web\c18\PIC-WEB-5-42-UEXT-full\Microchip\TCPIP Stack\HTTP2.c
HTTPHeaderParseContentLength   0x004a08    program     static F:\PIC-web\c18\PIC-WEB-5-42-UEXT-full\Microchip\TCPIP Stack\HTTP2.c
    HTTPHeaderParseCookie   0x00496a    program     static F:\PIC-web\c18\PIC-WEB-5-42-UEXT-full\Microchip\TCPIP Stack\HTTP2.c
    HTTPHeaderParseLookup   0x00485c    program     static F:\PIC-web\c18\PIC-WEB-5-42-UEXT-full\Microchip\TCPIP Stack\HTTP2.c
              HTTPIncFile   0x004f64    program     extern F:\PIC-web\c18\PIC-WEB-5-42-UEXT-full\Microchip\TCPIP Stack\HTTP2.c
                 HTTPInit   0x003c80    program     extern F:\PIC-web\c18\PIC-WEB-5-42-UEXT-full\Microchip\TCPIP Stack\HTTP2.c
             HTTPLoadConn   0x003d66    program     static F:\PIC-web\c18\PIC-WEB-5-42-UEXT-full\Microchip\TCPIP Stack\HTTP2.c
           HTTPMPFSUpload   0x004da6    program     static F:\PIC-web\c18\PIC-WEB-5-42-UEXT-full\Microchip\TCPIP Stack\HTTP2.c
            HTTPNeedsAuth   0x0055e8    program     extern F:\PIC-web\c18\PIC-WEB-5-42-UEXT-full\TCPIP\Demo App\CustomHTTPApp.c
           HTTPPostConfig   0x005e5a    program     static F:\PIC-web\c18\PIC-WEB-5-42-UEXT-full\TCPIP\Demo App\CustomHTTPApp.c
            HTTPPostEmail   0x00634c    program     static F:\PIC-web\c18\PIC-WEB-5-42-UEXT-full\TCPIP\Demo App\CustomHTTPApp.c
              HTTPPostMD5   0x0061ba    program     static F:\PIC-web\c18\PIC-WEB-5-42-UEXT-full\TCPIP\Demo App\CustomHTTPApp.c
                HTTPPrint   0x0037b2    program     extern F:\PIC-web\c18\PIC-WEB-5-42-UEXT-full\TCPIP\Demo App\HTTPPrint.h
              HTTPPrintIP   0x006ca8    program     extern F:\PIC-web\c18\PIC-WEB-5-42-UEXT-full\TCPIP\Demo App\CustomHTTPApp.c
               HTTPPrint_   0x003c76    program     extern F:\PIC-web\c18\PIC-WEB-5-42-UEXT-full\TCPIP\Demo App\HTTPPrint.h
         HTTPPrint_I2CRes   0x006bb4    program     extern F:\PIC-web\c18\PIC-WEB-5-42-UEXT-full\TCPIP\Demo App\CustomHTTPApp.c
         HTTPPrint_SPIRes   0x006bbe    program     extern F:\PIC-web\c18\PIC-WEB-5-42-UEXT-full\TCPIP\Demo App\CustomHTTPApp.c
    HTTPPrint_UART_Output   0x006b4a    program     extern F:\PIC-web\c18\PIC-WEB-5-42-UEXT-full\TCPIP\Demo App\CustomHTTPApp.c
            HTTPPrint_btn   0x00686e    program     extern F:\PIC-web\c18\PIC-WEB-5-42-UEXT-full\TCPIP\Demo App\CustomHTTPApp.c
      HTTPPrint_builddate   0x006804    program     extern F:\PIC-web\c18\PIC-WEB-5-42-UEXT-full\TCPIP\Demo App\CustomHTTPApp.c
HTTPPrint_config_dhcpchecked   0x006cfe    program     extern F:\PIC-web\c18\PIC-WEB-5-42-UEXT-full\TCPIP\Demo App\CustomHTTPApp.c
    HTTPPrint_config_dns1   0x006d50    program     extern F:\PIC-web\c18\PIC-WEB-5-42-UEXT-full\TCPIP\Demo App\CustomHTTPApp.c
    HTTPPrint_config_dns2   0x006d64    program     extern F:\PIC-web\c18\PIC-WEB-5-42-UEXT-full\TCPIP\Demo App\CustomHTTPApp.c
      HTTPPrint_config_gw   0x006d28    program     extern F:\PIC-web\c18\PIC-WEB-5-42-UEXT-full\TCPIP\Demo App\CustomHTTPApp.c
HTTPPrint_config_hostname   0x006cf4    program     extern F:\PIC-web\c18\PIC-WEB-5-42-UEXT-full\TCPIP\Demo App\CustomHTTPApp.c
      HTTPPrint_config_ip   0x006d14    program     extern F:\PIC-web\c18\PIC-WEB-5-42-UEXT-full\TCPIP\Demo App\CustomHTTPApp.c
     HTTPPrint_config_mac   0x006d78    program     extern F:\PIC-web\c18\PIC-WEB-5-42-UEXT-full\TCPIP\Demo App\CustomHTTPApp.c
  HTTPPrint_config_subnet   0x006d3c    program     extern F:\PIC-web\c18\PIC-WEB-5-42-UEXT-full\TCPIP\Demo App\CustomHTTPApp.c
     HTTPPrint_cookiename   0x006c14    program     extern F:\PIC-web\c18\PIC-WEB-5-42-UEXT-full\TCPIP\Demo App\CustomHTTPApp.c
      HTTPPrint_ddns_host   0x006dc8    program     extern F:\PIC-web\c18\PIC-WEB-5-42-UEXT-full\TCPIP\Demo App\CustomHTTPApp.c
      HTTPPrint_ddns_pass   0x006dc6    program     extern F:\PIC-web\c18\PIC-WEB-5-42-UEXT-full\TCPIP\Demo App\CustomHTTPApp.c
   HTTPPrint_ddns_service   0x006dca    program     extern F:\PIC-web\c18\PIC-WEB-5-42-UEXT-full\TCPIP\Demo App\CustomHTTPApp.c
    HTTPPrint_ddns_status   0x006dcc    program     extern F:\PIC-web\c18\PIC-WEB-5-42-UEXT-full\TCPIP\Demo App\CustomHTTPApp.c
HTTPPrint_ddns_status_msg   0x006ddc    program     extern F:\PIC-web\c18\PIC-WEB-5-42-UEXT-full\TCPIP\Demo App\CustomHTTPApp.c
      HTTPPrint_ddns_user   0x006dc4    program     extern F:\PIC-web\c18\PIC-WEB-5-42-UEXT-full\TCPIP\Demo App\CustomHTTPApp.c
       HTTPPrint_hellomsg   0x006bea    program     extern F:\PIC-web\c18\PIC-WEB-5-42-UEXT-full\TCPIP\Demo App\CustomHTTPApp.c
        HTTPPrint_lcdtext   0x006bc8    program     extern F:\PIC-web\c18\PIC-WEB-5-42-UEXT-full\TCPIP\Demo App\CustomHTTPApp.c
            HTTPPrint_led   0x0068ce    program     extern F:\PIC-web\c18\PIC-WEB-5-42-UEXT-full\TCPIP\Demo App\CustomHTTPApp.c
    HTTPPrint_ledSelected   0x006946    program     extern F:\PIC-web\c18\PIC-WEB-5-42-UEXT-full\TCPIP\Demo App\CustomHTTPApp.c
            HTTPPrint_pot   0x006b14    program     extern F:\PIC-web\c18\PIC-WEB-5-42-UEXT-full\TCPIP\Demo App\CustomHTTPApp.c
      HTTPPrint_read_comm   0x006db2    program     extern F:\PIC-web\c18\PIC-WEB-5-42-UEXT-full\TCPIP\Demo App\CustomHTTPApp.c
         HTTPPrint_reboot   0x006db6    program     extern F:\PIC-web\c18\PIC-WEB-5-42-UEXT-full\TCPIP\Demo App\CustomHTTPApp.c
     HTTPPrint_rebootaddr   0x006dba    program     extern F:\PIC-web\c18\PIC-WEB-5-42-UEXT-full\TCPIP\Demo App\CustomHTTPApp.c
       HTTPPrint_smtps_en   0x006e02    program     extern F:\PIC-web\c18\PIC-WEB-5-42-UEXT-full\TCPIP\Demo App\CustomHTTPApp.c
        HTTPPrint_snmp_en   0x006e08    program     extern F:\PIC-web\c18\PIC-WEB-5-42-UEXT-full\TCPIP\Demo App\CustomHTTPApp.c
    HTTPPrint_status_fail   0x006e22    program     extern F:\PIC-web\c18\PIC-WEB-5-42-UEXT-full\TCPIP\Demo App\CustomHTTPApp.c
      HTTPPrint_status_ok   0x006e0e    program     extern F:\PIC-web\c18\PIC-WEB-5-42-UEXT-full\TCPIP\Demo App\CustomHTTPApp.c
           HTTPPrint_temp   0x0069d8    program     extern F:\PIC-web\c18\PIC-WEB-5-42-UEXT-full\TCPIP\Demo App\CustomHTTPApp.c
   HTTPPrint_uploadeImage   0x006c40    program     extern F:\PIC-web\c18\PIC-WEB-5-42-UEXT-full\TCPIP\Demo App\CustomHTTPApp.c
    HTTPPrint_uploadedmd5   0x006c42    program     extern F:\PIC-web\c18\PIC-WEB-5-42-UEXT-full\TCPIP\Demo App\CustomHTTPApp.c
        HTTPPrint_version   0x00685e    program     extern F:\PIC-web\c18\PIC-WEB-5-42-UEXT-full\TCPIP\Demo App\CustomHTTPApp.c
     HTTPPrint_write_comm   0x006db4    program     extern F:\PIC-web\c18\PIC-WEB-5-42-UEXT-full\TCPIP\Demo App\CustomHTTPApp.c
              HTTPProcess   0x003dda    program     static F:\PIC-web\c18\PIC-WEB-5-42-UEXT-full\Microchip\TCPIP Stack\HTTP2.c
         HTTPReadPostName   0x004bf6    program     extern F:\PIC-web\c18\PIC-WEB-5-42-UEXT-full\Microchip\TCPIP Stack\HTTP2.c
        HTTPReadPostValue   0x004c36    program     extern F:\PIC-web\c18\PIC-WEB-5-42-UEXT-full\Microchip\TCPIP Stack\HTTP2.c
               HTTPReadTo   0x004c9a    program     static F:\PIC-web\c18\PIC-WEB-5-42-UEXT-full\Microchip\TCPIP Stack\HTTP2.c
       HTTPRequestHeaders   0x01599b    program     static F:\PIC-web\c18\PIC-WEB-5-42-UEXT-full\Microchip\TCPIP Stack\HTTP2.c
      HTTPResponseHeaders   0x015971    program     static F:\PIC-web\c18\PIC-WEB-5-42-UEXT-full\Microchip\TCPIP Stack\HTTP2.c
             HTTPSendFile   0x0046d6    program     static F:\PIC-web\c18\PIC-WEB-5-42-UEXT-full\Microchip\TCPIP Stack\HTTP2.c
               HTTPServer   0x003cee    program     extern F:\PIC-web\c18\PIC-WEB-5-42-UEXT-full\Microchip\TCPIP Stack\HTTP2.c
            HTTPURLDecode   0x004a7c    program     extern F:\PIC-web\c18\PIC-WEB-5-42-UEXT-full\Microchip\TCPIP Stack\HTTP2.c
                HTTP_CRLF   0x015926    program     static F:\PIC-web\c18\PIC-WEB-5-42-UEXT-full\Microchip\TCPIP Stack\HTTP2.c
HandlePossibleTCPDisconnection   0x009f04    program     static F:\PIC-web\c18\PIC-WEB-5-42-UEXT-full\Microchip\TCPIP Stack\BerkeleyAPI.c
             HandleTCPSeg   0x002148    program     static F:\PIC-web\c18\PIC-WEB-5-42-UEXT-full\Microchip\TCPIP Stack\TCP.c
              HashAddData   0x00d9d4    program     extern F:\PIC-web\c18\PIC-WEB-5-42-UEXT-full\Microchip\TCPIP Stack\Hashes.c
           HashAddROMData   0x00da00    program     extern F:\PIC-web\c18\PIC-WEB-5-42-UEXT-full\Microchip\TCPIP Stack\Hashes.c
                  HighISR   0x00f78c    program     extern F:\PIC-web\c18\PIC-WEB-5-42-UEXT-full\TCPIP\Demo App\MainDemo.c
               HighVector   0x000008    program     extern F:\PIC-web\c18\PIC-WEB-5-42-UEXT-full\TCPIP\Demo App\MainDemo.c
              I2C_Receive   0x014e44    program     extern F:\PIC-web\c18\PIC-WEB-5-42-UEXT-full\TCPIP\Demo App\Olimex_Demo_Files\Custom_I2C.c
             I2C_Transmit   0x014df0    program     extern F:\PIC-web\c18\PIC-WEB-5-42-UEXT-full\TCPIP\Demo App\Olimex_Demo_Files\Custom_I2C.c
           ICMPBeginUsage   0x0131b4    program     extern F:\PIC-web\c18\PIC-WEB-5-42-UEXT-full\Microchip\TCPIP Stack\ICMP.c
             ICMPEndUsage   0x0131be    program     extern F:\PIC-web\c18\PIC-WEB-5-42-UEXT-full\Microchip\TCPIP Stack\ICMP.c
             ICMPGetReply   0x012ff2    program     extern F:\PIC-web\c18\PIC-WEB-5-42-UEXT-full\Microchip\TCPIP Stack\ICMP.c
              ICMPProcess   0x012e96    program     extern F:\PIC-web\c18\PIC-WEB-5-42-UEXT-full\Microchip\TCPIP Stack\ICMP.c
             ICMPSendPing   0x012fa8    program     extern F:\PIC-web\c18\PIC-WEB-5-42-UEXT-full\Microchip\TCPIP Stack\ICMP.c
       ICMPSendPingToHost   0x012fc2    program     extern F:\PIC-web\c18\PIC-WEB-5-42-UEXT-full\Microchip\TCPIP Stack\ICMP.c
    ICMPSendPingToHostROM   0x012fd8    program     extern F:\PIC-web\c18\PIC-WEB-5-42-UEXT-full\Microchip\TCPIP Stack\ICMP.c
                  INT3216   0x00ffee    program     extern E:\3.46\pic18-lt\cxx-framework\src\traditional\math\castFP16.asm
              IPGetHeader   0x013dc4    program     extern F:\PIC-web\c18\PIC-WEB-5-42-UEXT-full\Microchip\TCPIP Stack\IP.c
              IPPutHeader   0x013eae    program     extern F:\PIC-web\c18\PIC-WEB-5-42-UEXT-full\Microchip\TCPIP Stack\IP.c
            IPSetRxBuffer   0x013f94    program     extern F:\PIC-web\c18\PIC-WEB-5-42-UEXT-full\Microchip\TCPIP Stack\IP.c
            InitAppConfig   0x00fabc    program     static F:\PIC-web\c18\PIC-WEB-5-42-UEXT-full\TCPIP\Demo App\MainDemo.c
          InitializeBoard   0x00fa7a    program     static F:\PIC-web\c18\PIC-WEB-5-42-UEXT-full\TCPIP\Demo App\MainDemo.c
                 LFSRRand   0x00c55c    program     extern F:\PIC-web\c18\PIC-WEB-5-42-UEXT-full\Microchip\TCPIP Stack\Helpers.c
             LFSRSeedRand   0x00c502    program     extern F:\PIC-web\c18\PIC-WEB-5-42-UEXT-full\Microchip\TCPIP Stack\Helpers.c
                   LowISR   0x00f740    program     extern F:\PIC-web\c18\PIC-WEB-5-42-UEXT-full\TCPIP\Demo App\MainDemo.c
                LowVector   0x000018    program     extern F:\PIC-web\c18\PIC-WEB-5-42-UEXT-full\TCPIP\Demo App\MainDemo.c
        MACCalcRxChecksum   0x00e620    program     extern F:\PIC-web\c18\PIC-WEB-5-42-UEXT-full\Microchip\TCPIP Stack\ETH97J60.c
             MACDiscardRx   0x00e358    program     extern F:\PIC-web\c18\PIC-WEB-5-42-UEXT-full\Microchip\TCPIP Stack\ETH97J60.c
                 MACFlush   0x00e59a    program     extern F:\PIC-web\c18\PIC-WEB-5-42-UEXT-full\Microchip\TCPIP Stack\ETH97J60.c
                   MACGet   0x00e8c0    program     extern F:\PIC-web\c18\PIC-WEB-5-42-UEXT-full\Microchip\TCPIP Stack\ETH97J60.c
              MACGetArray   0x00e8c4    program     extern F:\PIC-web\c18\PIC-WEB-5-42-UEXT-full\Microchip\TCPIP Stack\ETH97J60.c
         MACGetFreeRxSize   0x00e3a4    program     extern F:\PIC-web\c18\PIC-WEB-5-42-UEXT-full\Microchip\TCPIP Stack\ETH97J60.c
             MACGetHeader   0x00e422    program     extern F:\PIC-web\c18\PIC-WEB-5-42-UEXT-full\Microchip\TCPIP Stack\ETH97J60.c
                  MACInit   0x00e236    program     extern F:\PIC-web\c18\PIC-WEB-5-42-UEXT-full\Microchip\TCPIP Stack\ETH97J60.c
              MACIsLinked   0x00e320    program     extern F:\PIC-web\c18\PIC-WEB-5-42-UEXT-full\Microchip\TCPIP Stack\ETH97J60.c
         MACIsMemCopyDone   0x00e8b4    program     extern F:\PIC-web\c18\PIC-WEB-5-42-UEXT-full\Microchip\TCPIP Stack\ETH97J60.c
             MACIsTxReady   0x00e332    program     extern F:\PIC-web\c18\PIC-WEB-5-42-UEXT-full\Microchip\TCPIP Stack\ETH97J60.c
          MACMemCopyAsync   0x00e780    program     extern F:\PIC-web\c18\PIC-WEB-5-42-UEXT-full\Microchip\TCPIP Stack\ETH97J60.c
             MACPowerDown   0x00e9da    program     extern F:\PIC-web\c18\PIC-WEB-5-42-UEXT-full\Microchip\TCPIP Stack\ETH97J60.c
               MACPowerUp   0x00e9ec    program     extern F:\PIC-web\c18\PIC-WEB-5-42-UEXT-full\Microchip\TCPIP Stack\ETH97J60.c
                   MACPut   0x00e902    program     extern F:\PIC-web\c18\PIC-WEB-5-42-UEXT-full\Microchip\TCPIP Stack\ETH97J60.c
              MACPutArray   0x00e90c    program     extern F:\PIC-web\c18\PIC-WEB-5-42-UEXT-full\Microchip\TCPIP Stack\ETH97J60.c
             MACPutHeader   0x00e53c    program     extern F:\PIC-web\c18\PIC-WEB-5-42-UEXT-full\Microchip\TCPIP Stack\ETH97J60.c
           MACPutROMArray   0x00e93e    program     extern F:\PIC-web\c18\PIC-WEB-5-42-UEXT-full\Microchip\TCPIP Stack\ETH97J60.c
            MACSetReadPtr   0x00e606    program     extern F:\PIC-web\c18\PIC-WEB-5-42-UEXT-full\Microchip\TCPIP Stack\ETH97J60.c
        MACSetReadPtrInRx   0x00e5be    program     extern F:\PIC-web\c18\PIC-WEB-5-42-UEXT-full\Microchip\TCPIP Stack\ETH97J60.c
           MACSetWritePtr   0x00e5ec    program     extern F:\PIC-web\c18\PIC-WEB-5-42-UEXT-full\Microchip\TCPIP Stack\ETH97J60.c
               MD5AddData   0x00da9a    program     extern F:\PIC-web\c18\PIC-WEB-5-42-UEXT-full\Microchip\TCPIP Stack\Hashes.c
            MD5AddROMData   0x00db2a    program     extern F:\PIC-web\c18\PIC-WEB-5-42-UEXT-full\Microchip\TCPIP Stack\Hashes.c
             MD5Calculate   0x00df22    program     extern F:\PIC-web\c18\PIC-WEB-5-42-UEXT-full\Microchip\TCPIP Stack\Hashes.c
             MD5HashBlock   0x00dbc2    program     static F:\PIC-web\c18\PIC-WEB-5-42-UEXT-full\Microchip\TCPIP Stack\Hashes.c
            MD5Initialize   0x00da30    program     extern F:\PIC-web\c18\PIC-WEB-5-42-UEXT-full\Microchip\TCPIP Stack\Hashes.c
                MPFSClose   0x00a54a    program     extern F:\PIC-web\c18\PIC-WEB-5-42-UEXT-full\Microchip\TCPIP Stack\MPFS2.c
               MPFSFormat   0x00a7b4    program     extern F:\PIC-web\c18\PIC-WEB-5-42-UEXT-full\Microchip\TCPIP Stack\MPFS2.c
                  MPFSGet   0x00a560    program     extern F:\PIC-web\c18\PIC-WEB-5-42-UEXT-full\Microchip\TCPIP Stack\MPFS2.c
             MPFSGetArray   0x00a5d2    program     extern F:\PIC-web\c18\PIC-WEB-5-42-UEXT-full\Microchip\TCPIP Stack\MPFS2.c
          MPFSGetBytesRem   0x00a96e    program     extern F:\PIC-web\c18\PIC-WEB-5-42-UEXT-full\Microchip\TCPIP Stack\MPFS2.c
           MPFSGetEndAddr   0x00a9e4    program     extern F:\PIC-web\c18\PIC-WEB-5-42-UEXT-full\Microchip\TCPIP Stack\MPFS2.c
          MPFSGetFilename   0x00aa3c    program     extern F:\PIC-web\c18\PIC-WEB-5-42-UEXT-full\Microchip\TCPIP Stack\MPFS2.c
             MPFSGetFlags   0x00a8fe    program     extern F:\PIC-web\c18\PIC-WEB-5-42-UEXT-full\Microchip\TCPIP Stack\MPFS2.c
                MPFSGetID   0x00aaf2    program     extern F:\PIC-web\c18\PIC-WEB-5-42-UEXT-full\Microchip\TCPIP Stack\MPFS2.c
              MPFSGetLong   0x00a66e    program     extern F:\PIC-web\c18\PIC-WEB-5-42-UEXT-full\Microchip\TCPIP Stack\MPFS2.c
         MPFSGetMicrotime   0x00a8c4    program     extern F:\PIC-web\c18\PIC-WEB-5-42-UEXT-full\Microchip\TCPIP Stack\MPFS2.c
          MPFSGetPosition   0x00aa90    program     extern F:\PIC-web\c18\PIC-WEB-5-42-UEXT-full\Microchip\TCPIP Stack\MPFS2.c
              MPFSGetSize   0x00a934    program     extern F:\PIC-web\c18\PIC-WEB-5-42-UEXT-full\Microchip\TCPIP Stack\MPFS2.c
         MPFSGetStartAddr   0x00a9a0    program     extern F:\PIC-web\c18\PIC-WEB-5-42-UEXT-full\Microchip\TCPIP Stack\MPFS2.c
         MPFSGetTimestamp   0x00a88a    program     extern F:\PIC-web\c18\PIC-WEB-5-42-UEXT-full\Microchip\TCPIP Stack\MPFS2.c
                 MPFSInit   0x00a1e4    program     extern F:\PIC-web\c18\PIC-WEB-5-42-UEXT-full\Microchip\TCPIP Stack\MPFS2.c
                 MPFSOpen   0x00a20c    program     extern F:\PIC-web\c18\PIC-WEB-5-42-UEXT-full\Microchip\TCPIP Stack\MPFS2.c
               MPFSOpenID   0x00a4ca    program     extern F:\PIC-web\c18\PIC-WEB-5-42-UEXT-full\Microchip\TCPIP Stack\MPFS2.c
              MPFSOpenROM   0x00a372    program     extern F:\PIC-web\c18\PIC-WEB-5-42-UEXT-full\Microchip\TCPIP Stack\MPFS2.c
             MPFSPutArray   0x00a7f4    program     extern F:\PIC-web\c18\PIC-WEB-5-42-UEXT-full\Microchip\TCPIP Stack\MPFS2.c
               MPFSPutEnd   0x00a812    program     extern F:\PIC-web\c18\PIC-WEB-5-42-UEXT-full\Microchip\TCPIP Stack\MPFS2.c
                 MPFSSeek   0x00a696    program     extern F:\PIC-web\c18\PIC-WEB-5-42-UEXT-full\Microchip\TCPIP Stack\MPFS2.c
              NBNSGetName   0x0134d8    program     static F:\PIC-web\c18\PIC-WEB-5-42-UEXT-full\Microchip\TCPIP Stack\NBNS.c
              NBNSPutName   0x013492    program     static F:\PIC-web\c18\PIC-WEB-5-42-UEXT-full\Microchip\TCPIP Stack\NBNS.c
                 NBNSTask   0x013214    program     extern F:\PIC-web\c18\PIC-WEB-5-42-UEXT-full\Microchip\TCPIP Stack\NBNS.c
                  OneByte   0x0115da    program     static E:\3.46\pic18-lt\cxx-framework\src\traditional\stdclib\itobcd.asm
                  OneByte   0x011754    program     static E:\3.46\pic18-lt\cxx-framework\src\traditional\stdclib\ltobcd.asm
                 OpenSPI1   0x015786    program     extern F:\PIC-web\c18\PIC-WEB-5-42-UEXT-full\TCPIP\Demo App\Olimex_Demo_Files\Custom_SPI_Low.c
                 PingDemo   0x01555a    program     extern F:\PIC-web\c18\PIC-WEB-5-42-UEXT-full\TCPIP\Demo App\PingDemo.c
                ProcLower   0x0116ec    program     static E:\3.46\pic18-lt\cxx-framework\src\traditional\stdclib\ultoa.asm
                ProcLower   0x01158e    program     static E:\3.46\pic18-lt\cxx-framework\src\traditional\stdclib\itoa.asm
                ProcUpper   0x011584    program     static E:\3.46\pic18-lt\cxx-framework\src\traditional\stdclib\itoa.asm
                ProcUpper   0x0116e2    program     static E:\3.46\pic18-lt\cxx-framework\src\traditional\stdclib\ultoa.asm
                ProcessIO   0x00fa52    program     static F:\PIC-web\c18\PIC-WEB-5-42-UEXT-full\TCPIP\Demo App\MainDemo.c
     ROMStringToIPAddress   0x00c812    program     extern F:\PIC-web\c18\PIC-WEB-5-42-UEXT-full\Microchip\TCPIP Stack\Helpers.c
 ReadBufferFromMainMemory   0x012d54    program     extern F:\PIC-web\c18\PIC-WEB-5-42-UEXT-full\Microchip\TCPIP Stack\SPIFlash.c
               ReadPHYReg   0x00e97a    program     extern F:\PIC-web\c18\PIC-WEB-5-42-UEXT-full\Microchip\TCPIP Stack\ETH97J60.c
                 ReadSPI1   0x0157d0    program     extern F:\PIC-web\c18\PIC-WEB-5-42-UEXT-full\TCPIP\Demo App\Olimex_Demo_Files\Custom_SPI_Low.c
           ReadStringUART   0x01525e    program     extern F:\PIC-web\c18\PIC-WEB-5-42-UEXT-full\Microchip\TCPIP Stack\UART.c
                ReadUSART   0x0152d6    program     extern F:\PIC-web\c18\PIC-WEB-5-42-UEXT-full\Microchip\TCPIP Stack\UART.c
               RebootTask   0x014ba6    program     extern F:\PIC-web\c18\PIC-WEB-5-42-UEXT-full\Microchip\TCPIP Stack\Reboot.c
                RemoteURL   0x015b2e    program     static F:\PIC-web\c18\PIC-WEB-5-42-UEXT-full\TCPIP\Demo App\GenericTCPClient.c
           SMTPBeginUsage   0x00712a    program     extern F:\PIC-web\c18\PIC-WEB-5-42-UEXT-full\Microchip\TCPIP Stack\SMTP.c
                 SMTPDemo   0x015474    program     extern F:\PIC-web\c18\PIC-WEB-5-42-UEXT-full\TCPIP\Demo App\SMTPDemo.c
             SMTPEndUsage   0x007160    program     extern F:\PIC-web\c18\PIC-WEB-5-42-UEXT-full\Microchip\TCPIP Stack\SMTP.c
                SMTPFlush   0x007e0e    program     extern F:\PIC-web\c18\PIC-WEB-5-42-UEXT-full\Microchip\TCPIP Stack\SMTP.c
               SMTPIsBusy   0x007c52    program     extern F:\PIC-web\c18\PIC-WEB-5-42-UEXT-full\Microchip\TCPIP Stack\SMTP.c
           SMTPIsPutReady   0x007c5c    program     extern F:\PIC-web\c18\PIC-WEB-5-42-UEXT-full\Microchip\TCPIP Stack\SMTP.c
                  SMTPPut   0x007c72    program     extern F:\PIC-web\c18\PIC-WEB-5-42-UEXT-full\Microchip\TCPIP Stack\SMTP.c
             SMTPPutArray   0x007cd4    program     extern F:\PIC-web\c18\PIC-WEB-5-42-UEXT-full\Microchip\TCPIP Stack\SMTP.c
              SMTPPutDone   0x007e12    program     extern F:\PIC-web\c18\PIC-WEB-5-42-UEXT-full\Microchip\TCPIP Stack\SMTP.c
          SMTPPutROMArray   0x007d24    program     extern F:\PIC-web\c18\PIC-WEB-5-42-UEXT-full\Microchip\TCPIP Stack\SMTP.c
         SMTPPutROMString   0x007dbe    program     extern F:\PIC-web\c18\PIC-WEB-5-42-UEXT-full\Microchip\TCPIP Stack\SMTP.c
            SMTPPutString   0x007d76    program     extern F:\PIC-web\c18\PIC-WEB-5-42-UEXT-full\Microchip\TCPIP Stack\SMTP.c
             SMTPSendMail   0x007c4c    program     extern F:\PIC-web\c18\PIC-WEB-5-42-UEXT-full\Microchip\TCPIP Stack\SMTP.c
                 SMTPTask   0x00719a    program     extern F:\PIC-web\c18\PIC-WEB-5-42-UEXT-full\Microchip\TCPIP Stack\SMTP.c
               SNTPClient   0x013590    program     extern F:\PIC-web\c18\PIC-WEB-5-42-UEXT-full\Microchip\TCPIP Stack\SNTP.c
        SNTPGetUTCSeconds   0x013784    program     extern F:\PIC-web\c18\PIC-WEB-5-42-UEXT-full\Microchip\TCPIP Stack\SNTP.c
        SPIFlashBeginRead   0x012b40    program     extern F:\PIC-web\c18\PIC-WEB-5-42-UEXT-full\Microchip\TCPIP Stack\SPIFlash.c
       SPIFlashBeginWrite   0x012c44    program     extern F:\PIC-web\c18\PIC-WEB-5-42-UEXT-full\Microchip\TCPIP Stack\SPIFlash.c
         SPIFlashEndWrite   0x012cde    program     extern F:\PIC-web\c18\PIC-WEB-5-42-UEXT-full\Microchip\TCPIP Stack\SPIFlash.c
             SPIFlashInit   0x012b24    program     extern F:\PIC-web\c18\PIC-WEB-5-42-UEXT-full\Microchip\TCPIP Stack\SPIFlash.c
           SPIFlashIsBusy   0x012cea    program     extern F:\PIC-web\c18\PIC-WEB-5-42-UEXT-full\Microchip\TCPIP Stack\SPIFlash.c
             SPIFlashRead   0x012b5c    program     extern F:\PIC-web\c18\PIC-WEB-5-42-UEXT-full\Microchip\TCPIP Stack\SPIFlash.c
        SPIFlashReadArray   0x012bb6    program     extern F:\PIC-web\c18\PIC-WEB-5-42-UEXT-full\Microchip\TCPIP Stack\SPIFlash.c
            SPIFlashWrite   0x012c64    program     extern F:\PIC-web\c18\PIC-WEB-5-42-UEXT-full\Microchip\TCPIP Stack\SPIFlash.c
       SPIFlashWriteArray   0x012cae    program     extern F:\PIC-web\c18\PIC-WEB-5-42-UEXT-full\Microchip\TCPIP Stack\SPIFlash.c
              SPITransfer   0x012b16    program     extern F:\PIC-web\c18\PIC-WEB-5-42-UEXT-full\Microchip\TCPIP Stack\SPIFlash.c
           SPI_Initialize   0x015ab8    program     extern F:\PIC-web\c18\PIC-WEB-5-42-UEXT-full\TCPIP\Demo App\Olimex_Demo_Files\Custom_SPI.c
              SPI_Receive   0x015ade    program     extern F:\PIC-web\c18\PIC-WEB-5-42-UEXT-full\TCPIP\Demo App\Olimex_Demo_Files\Custom_SPI.c
             SPI_Transmit   0x015acc    program     extern F:\PIC-web\c18\PIC-WEB-5-42-UEXT-full\TCPIP\Demo App\Olimex_Demo_Files\Custom_SPI.c
                SWReadI2C   0x015a14    program     extern E:\3.46\pic18-lt\cxx-framework\src\pmc_common\SW_I2C\swgtci2c.c
            SaveAppConfig   0x00fc20    program     extern F:\PIC-web\c18\PIC-WEB-5-42-UEXT-full\TCPIP\Demo App\MainDemo.c
                  SendTCP   0x00187a    program     static F:\PIC-web\c18\PIC-WEB-5-42-UEXT-full\Microchip\TCPIP Stack\TCP.c
     SerializedMACAddress   0x015c2b    program     static F:\PIC-web\c18\PIC-WEB-5-42-UEXT-full\TCPIP\Demo App\MainDemo.c
               ServerName   0x015c1c    program     static F:\PIC-web\c18\PIC-WEB-5-42-UEXT-full\TCPIP\Demo App\BerkeleyTCPClientDemo.c
        StackApplications   0x013d9c    program     extern F:\PIC-web\c18\PIC-WEB-5-42-UEXT-full\Microchip\TCPIP Stack\StackTsk.c
                StackInit   0x013b4a    program     extern F:\PIC-web\c18\PIC-WEB-5-42-UEXT-full\Microchip\TCPIP Stack\StackTsk.c
                StackTask   0x013bac    program     extern F:\PIC-web\c18\PIC-WEB-5-42-UEXT-full\Microchip\TCPIP Stack\StackTsk.c
        StringToIPAddress   0x00c718    program     extern F:\PIC-web\c18\PIC-WEB-5-42-UEXT-full\Microchip\TCPIP Stack\Helpers.c
            SwapARPPacket   0x011fa6    program     extern F:\PIC-web\c18\PIC-WEB-5-42-UEXT-full\Microchip\TCPIP Stack\ARP.c
             SwapIPHeader   0x013fac    program     static F:\PIC-web\c18\PIC-WEB-5-42-UEXT-full\Microchip\TCPIP Stack\IP.c
            SwapTCPHeader   0x001f88    program     static F:\PIC-web\c18\PIC-WEB-5-42-UEXT-full\Microchip\TCPIP Stack\TCP.c
                  SyncTCB   0x0001e4    program     static F:\PIC-web\c18\PIC-WEB-5-42-UEXT-full\Microchip\TCPIP Stack\TCP.c
              SyncTCBStub   0x000194    program     static F:\PIC-web\c18\PIC-WEB-5-42-UEXT-full\Microchip\TCPIP Stack\TCP.c
                  TAGTB32   0x010232    program     extern E:\3.46\pic18-lt\cxx-framework\src\traditional\math\gtFP.asm
        TCPAdjustFIFOSize   0x002b2e    program     extern F:\PIC-web\c18\PIC-WEB-5-42-UEXT-full\Microchip\TCPIP Stack\TCP.c
                 TCPClose   0x0005e4    program     extern F:\PIC-web\c18\PIC-WEB-5-42-UEXT-full\Microchip\TCPIP Stack\TCP.c
               TCPDiscard   0x000a64    program     extern F:\PIC-web\c18\PIC-WEB-5-42-UEXT-full\Microchip\TCPIP Stack\TCP.c
            TCPDisconnect   0x000546    program     extern F:\PIC-web\c18\PIC-WEB-5-42-UEXT-full\Microchip\TCPIP Stack\TCP.c
           TCPFindArrayEx   0x000dd8    program     extern F:\PIC-web\c18\PIC-WEB-5-42-UEXT-full\Microchip\TCPIP Stack\TCP.c
                TCPFindEx   0x001294    program     extern F:\PIC-web\c18\PIC-WEB-5-42-UEXT-full\Microchip\TCPIP Stack\TCP.c
        TCPFindROMArrayEx   0x001036    program     extern F:\PIC-web\c18\PIC-WEB-5-42-UEXT-full\Microchip\TCPIP Stack\TCP.c
                 TCPFlush   0x000642    program     extern F:\PIC-web\c18\PIC-WEB-5-42-UEXT-full\Microchip\TCPIP Stack\TCP.c
                   TCPGet   0x000ad6    program     extern F:\PIC-web\c18\PIC-WEB-5-42-UEXT-full\Microchip\TCPIP Stack\TCP.c
              TCPGetArray   0x000b50    program     extern F:\PIC-web\c18\PIC-WEB-5-42-UEXT-full\Microchip\TCPIP Stack\TCP.c
         TCPGetRemoteInfo   0x000602    program     extern F:\PIC-web\c18\PIC-WEB-5-42-UEXT-full\Microchip\TCPIP Stack\TCP.c
         TCPGetRxFIFOFree   0x000c54    program     extern F:\PIC-web\c18\PIC-WEB-5-42-UEXT-full\Microchip\TCPIP Stack\TCP.c
         TCPGetTxFIFOFull   0x000a1a    program     extern F:\PIC-web\c18\PIC-WEB-5-42-UEXT-full\Microchip\TCPIP Stack\TCP.c
                  TCPInit   0x000260    program     extern F:\PIC-web\c18\PIC-WEB-5-42-UEXT-full\Microchip\TCPIP Stack\TCP.c
           TCPIsConnected   0x000528    program     extern F:\PIC-web\c18\PIC-WEB-5-42-UEXT-full\Microchip\TCPIP Stack\TCP.c
            TCPIsGetReady   0x000a82    program     extern F:\PIC-web\c18\PIC-WEB-5-42-UEXT-full\Microchip\TCPIP Stack\TCP.c
            TCPIsPutReady   0x00066a    program     extern F:\PIC-web\c18\PIC-WEB-5-42-UEXT-full\Microchip\TCPIP Stack\TCP.c
                  TCPOpen   0x0003da    program     extern F:\PIC-web\c18\PIC-WEB-5-42-UEXT-full\Microchip\TCPIP Stack\TCP.c
                  TCPPeek   0x000db2    program     extern F:\PIC-web\c18\PIC-WEB-5-42-UEXT-full\Microchip\TCPIP Stack\TCP.c
             TCPPeekArray   0x000c96    program     extern F:\PIC-web\c18\PIC-WEB-5-42-UEXT-full\Microchip\TCPIP Stack\TCP.c
       TCPPerformanceTask   0x010876    program     extern F:\PIC-web\c18\PIC-WEB-5-42-UEXT-full\Microchip\TCPIP Stack\TCPPerformanceTest.c
               TCPProcess   0x001750    program     extern F:\PIC-web\c18\PIC-WEB-5-42-UEXT-full\Microchip\TCPIP Stack\TCP.c
                   TCPPut   0x0006e6    program     extern F:\PIC-web\c18\PIC-WEB-5-42-UEXT-full\Microchip\TCPIP Stack\TCP.c
              TCPPutArray   0x00078c    program     extern F:\PIC-web\c18\PIC-WEB-5-42-UEXT-full\Microchip\TCPIP Stack\TCP.c
           TCPPutROMArray   0x00088c    program     extern F:\PIC-web\c18\PIC-WEB-5-42-UEXT-full\Microchip\TCPIP Stack\TCP.c
          TCPPutROMString   0x0009c8    program     extern F:\PIC-web\c18\PIC-WEB-5-42-UEXT-full\Microchip\TCPIP Stack\TCP.c
             TCPPutString   0x000992    program     extern F:\PIC-web\c18\PIC-WEB-5-42-UEXT-full\Microchip\TCPIP Stack\TCP.c
               TCPRAMCopy   0x002cea    program     static F:\PIC-web\c18\PIC-WEB-5-42-UEXT-full\Microchip\TCPIP Stack\TCP.c
            TCPRAMCopyROM   0x002d9c    program     static F:\PIC-web\c18\PIC-WEB-5-42-UEXT-full\Microchip\TCPIP Stack\TCP.c
     TCPRXPerformanceTask   0x010b48    program     extern F:\PIC-web\c18\PIC-WEB-5-42-UEXT-full\Microchip\TCPIP Stack\TCPPerformanceTest.c
     TCPSocketInitializer   0x015af8    program     extern F:\PIC-web\c18\PIC-WEB-5-42-UEXT-full\TCPIP\Demo App\Configs\TCPIP OLIMEX_PIC_WEB.h
     TCPTXPerformanceTask   0x01087c    program     extern F:\PIC-web\c18\PIC-WEB-5-42-UEXT-full\Microchip\TCPIP Stack\TCPPerformanceTest.c
                  TCPTick   0x0012c2    program     extern F:\PIC-web\c18\PIC-WEB-5-42-UEXT-full\Microchip\TCPIP Stack\TCP.c
              TCPWasReset   0x00050a    program     extern F:\PIC-web\c18\PIC-WEB-5-42-UEXT-full\Microchip\TCPIP Stack\TCP.c
               TelnetTask   0x0102ee    program     extern F:\PIC-web\c18\PIC-WEB-5-42-UEXT-full\Microchip\TCPIP Stack\Telnet.c
TickConvertToMilliseconds   0x0156e0    program     extern F:\PIC-web\c18\PIC-WEB-5-42-UEXT-full\Microchip\TCPIP Stack\Tick.c
                  TickGet   0x015674    program     extern F:\PIC-web\c18\PIC-WEB-5-42-UEXT-full\Microchip\TCPIP Stack\Tick.c
            TickGetDiv256   0x015698    program     extern F:\PIC-web\c18\PIC-WEB-5-42-UEXT-full\Microchip\TCPIP Stack\Tick.c
            TickGetDiv64K   0x0156bc    program     extern F:\PIC-web\c18\PIC-WEB-5-42-UEXT-full\Microchip\TCPIP Stack\Tick.c
                 TickInit   0x01563e    program     extern F:\PIC-web\c18\PIC-WEB-5-42-UEXT-full\Microchip\TCPIP Stack\Tick.c
               TickUpdate   0x01570a    program     extern F:\PIC-web\c18\PIC-WEB-5-42-UEXT-full\Microchip\TCPIP Stack\Tick.c
                 TstLower   0x011578    program     static E:\3.46\pic18-lt\cxx-framework\src\traditional\stdclib\itoa.asm
                 TstLower   0x0116d6    program     static E:\3.46\pic18-lt\cxx-framework\src\traditional\stdclib\ultoa.asm
                 TstUpper   0x011572    program     static E:\3.46\pic18-lt\cxx-framework\src\traditional\stdclib\itoa.asm
                 TstUpper   0x0116d0    program     static E:\3.46\pic18-lt\cxx-framework\src\traditional\stdclib\ultoa.asm
        UART2TCPBridgeISR   0x013a8c    program     extern F:\PIC-web\c18\PIC-WEB-5-42-UEXT-full\Microchip\TCPIP Stack\UART2TCPBridge.c
       UART2TCPBridgeInit   0x013870    program     extern F:\PIC-web\c18\PIC-WEB-5-42-UEXT-full\Microchip\TCPIP Stack\UART2TCPBridge.c
       UART2TCPBridgeTask   0x013888    program     extern F:\PIC-web\c18\PIC-WEB-5-42-UEXT-full\Microchip\TCPIP Stack\UART2TCPBridge.c
                UART_Init   0x0157e0    program     extern F:\PIC-web\c18\PIC-WEB-5-42-UEXT-full\TCPIP\Demo App\Olimex_Demo_Files\Custom_UART_Low.c
          UART_Read_Array   0x0151f2    program     extern F:\PIC-web\c18\PIC-WEB-5-42-UEXT-full\TCPIP\Demo App\Olimex_Demo_Files\Custom_UART.c
         UART_Read_String   0x0151b6    program     extern F:\PIC-web\c18\PIC-WEB-5-42-UEXT-full\TCPIP\Demo App\Olimex_Demo_Files\Custom_UART.c
             UART_Receive   0x01580a    program     extern F:\PIC-web\c18\PIC-WEB-5-42-UEXT-full\TCPIP\Demo App\Olimex_Demo_Files\Custom_UART_Low.c
            UART_Transmit   0x015814    program     extern F:\PIC-web\c18\PIC-WEB-5-42-UEXT-full\TCPIP\Demo App\Olimex_Demo_Files\Custom_UART_Low.c
         UART_Write_Array   0x015168    program     extern F:\PIC-web\c18\PIC-WEB-5-42-UEXT-full\TCPIP\Demo App\Olimex_Demo_Files\Custom_UART.c
        UART_Write_String   0x015144    program     extern F:\PIC-web\c18\PIC-WEB-5-42-UEXT-full\TCPIP\Demo App\Olimex_Demo_Files\Custom_UART.c
                 UDPClose   0x00bce8    program     extern F:\PIC-web\c18\PIC-WEB-5-42-UEXT-full\Microchip\TCPIP Stack\UDP.c
               UDPDiscard   0x00c16e    program     extern F:\PIC-web\c18\PIC-WEB-5-42-UEXT-full\Microchip\TCPIP Stack\UDP.c
                 UDPFlush   0x00bf28    program     extern F:\PIC-web\c18\PIC-WEB-5-42-UEXT-full\Microchip\TCPIP Stack\UDP.c
                   UDPGet   0x00c0d0    program     extern F:\PIC-web\c18\PIC-WEB-5-42-UEXT-full\Microchip\TCPIP Stack\UDP.c
              UDPGetArray   0x00c0fe    program     extern F:\PIC-web\c18\PIC-WEB-5-42-UEXT-full\Microchip\TCPIP Stack\UDP.c
                  UDPInit   0x00b968    program     extern F:\PIC-web\c18\PIC-WEB-5-42-UEXT-full\Microchip\TCPIP Stack\UDP.c
            UDPIsGetReady   0x00c098    program     extern F:\PIC-web\c18\PIC-WEB-5-42-UEXT-full\Microchip\TCPIP Stack\UDP.c
              UDPIsOpened   0x00bcd4    program     extern F:\PIC-web\c18\PIC-WEB-5-42-UEXT-full\Microchip\TCPIP Stack\UDP.c
            UDPIsPutReady   0x00bd88    program     extern F:\PIC-web\c18\PIC-WEB-5-42-UEXT-full\Microchip\TCPIP Stack\UDP.c
                UDPOpenEx   0x00b984    program     extern F:\PIC-web\c18\PIC-WEB-5-42-UEXT-full\Microchip\TCPIP Stack\UDP.c
               UDPProcess   0x00c188    program     extern F:\PIC-web\c18\PIC-WEB-5-42-UEXT-full\Microchip\TCPIP Stack\UDP.c
                   UDPPut   0x00bdd0    program     extern F:\PIC-web\c18\PIC-WEB-5-42-UEXT-full\Microchip\TCPIP Stack\UDP.c
              UDPPutArray   0x00be06    program     extern F:\PIC-web\c18\PIC-WEB-5-42-UEXT-full\Microchip\TCPIP Stack\UDP.c
           UDPPutROMArray   0x00be52    program     extern F:\PIC-web\c18\PIC-WEB-5-42-UEXT-full\Microchip\TCPIP Stack\UDP.c
          UDPPutROMString   0x00beda    program     extern F:\PIC-web\c18\PIC-WEB-5-42-UEXT-full\Microchip\TCPIP Stack\UDP.c
             UDPPutString   0x00bea2    program     extern F:\PIC-web\c18\PIC-WEB-5-42-UEXT-full\Microchip\TCPIP Stack\UDP.c
           UDPSetRxBuffer   0x00bd66    program     extern F:\PIC-web\c18\PIC-WEB-5-42-UEXT-full\Microchip\TCPIP Stack\UDP.c
           UDPSetTxBuffer   0x00bd18    program     extern F:\PIC-web\c18\PIC-WEB-5-42-UEXT-full\Microchip\TCPIP Stack\UDP.c
                  UDPTask   0x00bafe    program     extern F:\PIC-web\c18\PIC-WEB-5-42-UEXT-full\Microchip\TCPIP Stack\UDP.c
  WriteBufferToMainMemory   0x012d06    program     extern F:\PIC-web\c18\PIC-WEB-5-42-UEXT-full\Microchip\TCPIP Stack\SPIFlash.c
              WritePHYReg   0x00e9aa    program     extern F:\PIC-web\c18\PIC-WEB-5-42-UEXT-full\Microchip\TCPIP Stack\ETH97J60.c
                WriteSPI1   0x01571e    program     extern F:\PIC-web\c18\PIC-WEB-5-42-UEXT-full\TCPIP\Demo App\Olimex_Demo_Files\Custom_SPI_Low.c
               WriteUSART   0x0152da    program     extern F:\PIC-web\c18\PIC-WEB-5-42-UEXT-full\Microchip\TCPIP Stack\UART.c
                  _14jEnd   0x011480    program     static E:\3.46\pic18-lt\cxx-framework\src\traditional\stdclib\atol.asm
              _2jContinue   0x01218e    program     static E:\3.46\pic18-lt\cxx-framework\src\traditional\stdclib\memset.asm
                   _2jEnd   0x01230e    program     static E:\3.46\pic18-lt\cxx-framework\src\traditional\stdclib\slenpgm.asm
              _3jContinue   0x01215a    program     static E:\3.46\pic18-lt\cxx-framework\src\traditional\stdclib\mcpyp2r.asm
              _3jContinue   0x0120be    program     static E:\3.46\pic18-lt\cxx-framework\src\traditional\stdclib\mcmpp2r.asm
                   _3jEnd   0x012198    program     static E:\3.46\pic18-lt\cxx-framework\src\traditional\stdclib\memset.asm
              _4jContinue   0x01206e    program     static E:\3.46\pic18-lt\cxx-framework\src\traditional\stdclib\memcmp.asm
              _4jContinue   0x012358    program     static E:\3.46\pic18-lt\cxx-framework\src\traditional\stdclib\strncpy.asm
              _4jContinue   0x012106    program     static E:\3.46\pic18-lt\cxx-framework\src\traditional\stdclib\memcpy.asm
                   _4jEnd   0x0120c8    program     static E:\3.46\pic18-lt\cxx-framework\src\traditional\stdclib\mcmpp2r.asm
                   _4jEnd   0x012164    program     static E:\3.46\pic18-lt\cxx-framework\src\traditional\stdclib\mcpyp2r.asm
                   _5jEnd   0x012078    program     static E:\3.46\pic18-lt\cxx-framework\src\traditional\stdclib\memcmp.asm
                   _5jEnd   0x012110    program     static E:\3.46\pic18-lt\cxx-framework\src\traditional\stdclib\memcpy.asm
                   _5jEnd   0x012362    program     static E:\3.46\pic18-lt\cxx-framework\src\traditional\stdclib\strncpy.asm
        _D10TCYXCODE_000A   0x015c00    program     static E:\3.46\pic18-lt\cxx-framework\src\traditional\delays\d10tcyx.asm
        _D10TCYXCODE_000C   0x015c02    program     static E:\3.46\pic18-lt\cxx-framework\src\traditional\delays\d10tcyx.asm
        _D10TCYXCODE_000E   0x015c04    program     static E:\3.46\pic18-lt\cxx-framework\src\traditional\delays\d10tcyx.asm
        _D1KTCYXCODE_0010   0x015bca    program     static E:\3.46\pic18-lt\cxx-framework\src\traditional\delays\d1ktcyx.asm
        _D1KTCYXCODE_0016   0x015bd0    program     static E:\3.46\pic18-lt\cxx-framework\src\traditional\delays\d1ktcyx.asm
             _DHCPReceive   0x00d30e    program     static F:\PIC-web\c18\PIC-WEB-5-42-UEXT-full\Microchip\TCPIP Stack\DHCP.c
                _DHCPSend   0x00d578    program     static F:\PIC-web\c18\PIC-WEB-5-42-UEXT-full\Microchip\TCPIP Stack\DHCP.c
           _LoadFATRecord   0x00a81e    program     static F:\PIC-web\c18\PIC-WEB-5-42-UEXT-full\Microchip\TCPIP Stack\MPFS2.c
                   _MD5_k   0x014aa6    program     static F:\PIC-web\c18\PIC-WEB-5-42-UEXT-full\Microchip\TCPIP Stack\Hashes.c
                   _MD5_r   0x014a66    program     static F:\PIC-web\c18\PIC-WEB-5-42-UEXT-full\Microchip\TCPIP Stack\Hashes.c
                _PackMath   0x01502a    program     extern E:\3.46\pic18-lt\cxx-framework\src\traditional\stdclib\PackMath.c
                _UnpkMath   0x014f0e    program     extern E:\3.46\pic18-lt\cxx-framework\src\traditional\stdclib\UnpkMath.c
                _Validate   0x00ab04    program     static F:\PIC-web\c18\PIC-WEB-5-42-UEXT-full\Microchip\TCPIP Stack\MPFS2.c
              __FpCompare   0x010244    program     extern E:\3.46\pic18-lt\cxx-framework\src\traditional\math\compFP.asm
                 __FpExit   0x010058    program     extern E:\3.46\pic18-lt\cxx-framework\src\traditional\math\packFP.asm
                 __FpPack   0x010084    program     extern E:\3.46\pic18-lt\cxx-framework\src\traditional\math\packFP.asm
            __FpReturnNaN   0x01004c    program     extern E:\3.46\pic18-lt\cxx-framework\src\traditional\math\packFP.asm
         __FpReturnNegInf   0x01005e    program     extern E:\3.46\pic18-lt\cxx-framework\src\traditional\math\packFP.asm
        __FpReturnNegZero   0x010076    program     extern E:\3.46\pic18-lt\cxx-framework\src\traditional\math\packFP.asm
         __FpReturnPosInf   0x010064    program     extern E:\3.46\pic18-lt\cxx-framework\src\traditional\math\packFP.asm
        __FpReturnPosZero   0x01007e    program     extern E:\3.46\pic18-lt\cxx-framework\src\traditional\math\packFP.asm
        __FpReturnSignInf   0x01005a    program     extern E:\3.46\pic18-lt\cxx-framework\src\traditional\math\packFP.asm
       __FpReturnSignZero   0x010072    program     extern E:\3.46\pic18-lt\cxx-framework\src\traditional\math\packFP.asm
              __FpReturnW   0x0100dc    program     extern E:\3.46\pic18-lt\cxx-framework\src\traditional\math\packFP.asm
              __FpUnPackA   0x0100fc    program     extern E:\3.46\pic18-lt\cxx-framework\src\traditional\math\UnpackFP.asm
              __FpUnPackB   0x01012c    program     extern E:\3.46\pic18-lt\cxx-framework\src\traditional\math\UnpackFP.asm
      ___case_49_lbl00037   0x005dcc    program     static                          
      ___case_50_lbl00038   0x005dd0    program     static                          
      ___case_51_lbl00039   0x005dd4    program     static                          
      ___case_52_lbl00040   0x005dd8    program     static                          
      ___case_53_lbl00041   0x005ddc    program     static                          
      ___case_54_lbl00042   0x005de0    program     static                          
      ___case_55_lbl00043   0x005de4    program     static                          
           ___do_lbl00001   0x015a56    program     static                          
           ___do_lbl00002   0x015a5c    program     static                          
           ___do_lbl00002   0x01566c    program     static                          
           ___do_lbl00003   0x0153fa    program     static                          
           ___do_lbl00003   0x015670    program     static                          
           ___do_lbl00004   0x015400    program     static                          
           ___do_lbl00004   0x01564e    program     static                          
           ___do_lbl00006   0x015a1c    program     static                          
           ___do_lbl00007   0x0153ba    program     static                          
           ___do_lbl00024   0x005b80    program     static                          
           ___do_lbl00025   0x005b80    program     static                          
           ___do_lbl00028   0x005b56    program     static                          
         ___else_lbl00006   0x0153dc    program     static                          
         ___else_lbl00046   0x005d56    program     static                          
         ___else_lbl00048   0x005d24    program     static                          
          ___for_lbl00009   0x0057e0    program     static                          
          ___for_lbl00010   0x0057ea    program     static                          
          ___for_lbl00011   0x00575a    program     static                          
          ___for_lbl00015   0x005948    program     static                          
          ___for_lbl00016   0x005952    program     static                          
          ___for_lbl00017   0x005900    program     static                          
          ___for_lbl00147   0x00cdf0    program     static                          
          ___for_lbl00148   0x00cdf8    program     static                          
          ___for_lbl00149   0x00cdd4    program     static                          
          ___for_lbl00150   0x00ce0e    program     static                          
          ___for_lbl00151   0x00ce14    program     static                          
          ___for_lbl00152   0x00cdf8    program     static                          
           ___if_lbl00001   0x014bd2    program     static                          
           ___if_lbl00002   0x014bdc    program     static                          
           ___if_lbl00003   0x015a44    program     static                          
           ___if_lbl00003   0x014bf4    program     static                          
           ___if_lbl00004   0x015a44    program     static                          
           ___if_lbl00004   0x014c64    program     static                          
           ___if_lbl00005   0x015a56    program     static                          
           ___if_lbl00005   0x0153f6    program     static                          
           ___if_lbl00007   0x0056ce    program     static                          
           ___if_lbl00008   0x0056ce    program     static                          
           ___if_lbl00012   0x0057fe    program     static                          
           ___if_lbl00012   0x00f8d4    program     static                          
           ___if_lbl00013   0x005874    program     static                          
           ___if_lbl00013   0x00f8da    program     static                          
           ___if_lbl00014   0x005874    program     static                          
           ___if_lbl00014   0x00c67e    program     static                          
           ___if_lbl00015   0x00c694    program     static                          
           ___if_lbl00016   0x00f940    program     static                          
           ___if_lbl00016   0x00c6e6    program     static                          
           ___if_lbl00017   0x00f9da    program     static                          
           ___if_lbl00017   0x00c6ee    program     static                          
           ___if_lbl00018   0x005952    program     static                          
           ___if_lbl00019   0x005a30    program     static                          
           ___if_lbl00020   0x005a74    program     static                          
           ___if_lbl00020   0x00e42c    program     static                          
           ___if_lbl00021   0x00e43c    program     static                          
           ___if_lbl00021   0x005ab8    program     static                          
           ___if_lbl00022   0x005abc    program     static                          
           ___if_lbl00023   0x005b56    program     static                          
           ___if_lbl00027   0x00e4cc    program     static                          
           ___if_lbl00029   0x005bb4    program     static                          
           ___if_lbl00030   0x00e532    program     static                          
           ___if_lbl00030   0x005be8    program     static                          
           ___if_lbl00031   0x005be8    program     static                          
           ___if_lbl00032   0x005c56    program     static                          
           ___if_lbl00033   0x005c98    program     static                          
           ___if_lbl00034   0x005cda    program     static                          
           ___if_lbl00035   0x005d22    program     static                          
           ___if_lbl00044   0x005de8    program     static                          
           ___if_lbl00045   0x005de8    program     static                          
           ___if_lbl00047   0x005de8    program     static                          
       ___return_lbl00000   0x000004    program     static                          
       ___return_lbl00000   0x00e31e    program     static                          
       ___return_lbl00000   0x014cca    program     static                          
       ___return_lbl00000   0x015b8c    program     static                          
       ___return_lbl00000   0x015ab6    program     static                          
       ___return_lbl00000   0x015a6e    program     static                          
       ___return_lbl00000   0x015a12    program     static                          
       ___return_lbl00001   0x015672    program     static                          
       ___return_lbl00001   0x015bf4    program     static                          
       ___return_lbl00002   0x015924    program     static                          
       ___return_lbl00002   0x015412    program     static                          
       ___return_lbl00003   0x00001c    program     static                          
       ___return_lbl00004   0x00000c    program     static                          
       ___return_lbl00005   0x00f9dc    program     static                          
       ___return_lbl00006   0x005dec    program     static                          
       ___return_lbl00009   0x00c716    program     static                          
       ___return_lbl00019   0x00e53a    program     static                          
       ___return_lbl00079   0x00e90a    program     static                          
       ___return_lbl00080   0x00e93c    program     static                          
       ___return_lbl00083   0x00e978    program     static                          
       ___return_lbl00086   0x00e9a8    program     static                          
       ___return_lbl00089   0x00e9d8    program     static                          
       ___return_lbl00146   0x00ce26    program     static                          
       ___return_lbl00271   0x006db8    program     static                          
   ___switchexit_lbl00036   0x005de8    program     static                          
        ___while_lbl00001   0x00e23e    program     static                          
        ___while_lbl00002   0x00e244    program     static                          
        ___while_lbl00006   0x00f816    program     static                          
        ___while_lbl00007   0x00f8d6    program     static                          
        ___while_lbl00008   0x00f888    program     static                          
        ___while_lbl00009   0x00f8ca    program     static                          
        ___while_lbl00010   0x00f8cc    program     static                          
        ___while_lbl00010   0x00c618    program     static                          
        ___while_lbl00011   0x00f8d0    program     static                          
        ___while_lbl00011   0x00c6f0    program     static                          
        ___while_lbl00012   0x00c620    program     static                          
        ___while_lbl00013   0x00c624    program     static                          
        ___while_lbl00014   0x00f8f4    program     static                          
        ___while_lbl00015   0x00f9dc    program     static                          
        ___while_lbl00026   0x005b5e    program     static                          
        ___while_lbl00027   0x005b80    program     static                          
        ___while_lbl00081   0x00e90c    program     static                          
        ___while_lbl00082   0x00e93c    program     static                          
        ___while_lbl00084   0x00e93e    program     static                          
        ___while_lbl00085   0x00e978    program     static                          
        ___while_lbl00087   0x00e988    program     static                          
        ___while_lbl00088   0x00e98e    program     static                          
        ___while_lbl00090   0x00e9d2    program     static                          
        ___while_lbl00091   0x00e9d8    program     static                          
               __config_0   0x01fff8    program     static F:\PIC-web\c18\PIC-WEB-5-42-UEXT-full\TCPIP\Demo App\MainDemo.c
               __config_1   0x01fffa    program     static F:\PIC-web\c18\PIC-WEB-5-42-UEXT-full\TCPIP\Demo App\MainDemo.c
               __config_2   0x01fffd    program     static F:\PIC-web\c18\PIC-WEB-5-42-UEXT-full\TCPIP\Demo App\MainDemo.c
                   __init   0x015c38    program     extern E:\3.46\pic18-lt\cxx-framework\src\traditional\stdclib\__init.c
                   __pa_0   0x0106e2    program     static F:\PIC-web\c18\PIC-WEB-5-42-UEXT-full\Microchip\TCPIP Stack\Telnet.c
                   __pa_0   0x014540    program     static F:\PIC-web\c18\PIC-WEB-5-42-UEXT-full\Microchip\TCPIP Stack\Announce.c
                   __pa_0   0x006e36    program     static F:\PIC-web\c18\PIC-WEB-5-42-UEXT-full\TCPIP\Demo App\CustomHTTPApp.c
                   __pa_0   0x010d1c    program     static F:\PIC-web\c18\PIC-WEB-5-42-UEXT-full\Microchip\TCPIP Stack\TCPPerformanceTest.c
                   __pa_0   0x00fc88    program     static F:\PIC-web\c18\PIC-WEB-5-42-UEXT-full\TCPIP\Demo App\MainDemo.c
                   __pa_0   0x007f54    program     static F:\PIC-web\c18\PIC-WEB-5-42-UEXT-full\Microchip\TCPIP Stack\SMTP.c
                   __pa_0   0x013822    program     static F:\PIC-web\c18\PIC-WEB-5-42-UEXT-full\Microchip\TCPIP Stack\SNTP.c
                   __pa_0   0x002e52    program     static F:\PIC-web\c18\PIC-WEB-5-42-UEXT-full\Microchip\TCPIP Stack\TCP.c
                   __pa_0   0x014dd4    program     static E:\3.46\pic18-lt\cxx-framework\src\traditional\stdclib\frexp.c
                   __pa_0   0x012de2    program     static F:\PIC-web\c18\PIC-WEB-5-42-UEXT-full\Microchip\TCPIP Stack\SPIFlash.c
                   __pa_0   0x011fdc    program     static F:\PIC-web\c18\PIC-WEB-5-42-UEXT-full\Microchip\TCPIP Stack\ARP.c
                   __pa_0   0x00f5f4    program     static F:\PIC-web\c18\PIC-WEB-5-42-UEXT-full\Microchip\TCPIP Stack\AutoIP.c
                   __pa_0   0x013b2a    program     static F:\PIC-web\c18\PIC-WEB-5-42-UEXT-full\Microchip\TCPIP Stack\UART2TCPBridge.c
                   __pa_0   0x009f88    program     static F:\PIC-web\c18\PIC-WEB-5-42-UEXT-full\Microchip\TCPIP Stack\BerkeleyAPI.c
                   __pa_0   0x0150f2    program     static E:\3.46\pic18-lt\cxx-framework\src\traditional\stdclib\PackMath.c
                   __pa_0   0x00c3de    program     static F:\PIC-web\c18\PIC-WEB-5-42-UEXT-full\Microchip\TCPIP Stack\UDP.c
                   __pa_0   0x00d6f6    program     static F:\PIC-web\c18\PIC-WEB-5-42-UEXT-full\Microchip\TCPIP Stack\DHCP.c
                   __pa_0   0x0131c4    program     static F:\PIC-web\c18\PIC-WEB-5-42-UEXT-full\Microchip\TCPIP Stack\ICMP.c
                   __pa_0   0x013fdc    program     static F:\PIC-web\c18\PIC-WEB-5-42-UEXT-full\Microchip\TCPIP Stack\IP.c
                   __pa_0   0x013552    program     static F:\PIC-web\c18\PIC-WEB-5-42-UEXT-full\Microchip\TCPIP Stack\NBNS.c
                   __pa_0   0x00ab5c    program     static F:\PIC-web\c18\PIC-WEB-5-42-UEXT-full\Microchip\TCPIP Stack\MPFS2.c
                   __pa_0   0x015240    program     static F:\PIC-web\c18\PIC-WEB-5-42-UEXT-full\TCPIP\Demo App\Olimex_Demo_Files\Custom_UART.c
                   __pa_0   0x01581e    program     static F:\PIC-web\c18\PIC-WEB-5-42-UEXT-full\TCPIP\Demo App\Olimex_Demo_Files\Custom_UART_Low.c
                   __pa_0   0x00506c    program     static F:\PIC-web\c18\PIC-WEB-5-42-UEXT-full\Microchip\TCPIP Stack\HTTP2.c
                   __pa_0   0x012688    program     static F:\PIC-web\c18\PIC-WEB-5-42-UEXT-full\TCPIP\Demo App\Olimex_Demo_Files\Misc_Functions.c
                   __pa_0   0x015460    program     static F:\PIC-web\c18\PIC-WEB-5-42-UEXT-full\TCPIP\Demo App\Olimex_Demo_Files\Custom_I2C_Low.c
                   __pa_0   0x00b684    program     static F:\PIC-web\c18\PIC-WEB-5-42-UEXT-full\Microchip\TCPIP Stack\DHCPs.c
                   __pa_0   0x014ed0    program     static F:\PIC-web\c18\PIC-WEB-5-42-UEXT-full\TCPIP\Demo App\Olimex_Demo_Files\Custom_I2C.c
                   __pa_0   0x00e0bc    program     static F:\PIC-web\c18\PIC-WEB-5-42-UEXT-full\Microchip\TCPIP Stack\Hashes.c
                   __pa_0   0x00e9fa    program     static F:\PIC-web\c18\PIC-WEB-5-42-UEXT-full\Microchip\TCPIP Stack\ETH97J60.c
                   __pa_0   0x011bba    program     static F:\PIC-web\c18\PIC-WEB-5-42-UEXT-full\TCPIP\Demo App\UARTConfig.c
                   __pa_0   0x00cfa8    program     static F:\PIC-web\c18\PIC-WEB-5-42-UEXT-full\Microchip\TCPIP Stack\Helpers.c
                   __pa_0   0x00efe0    program     static F:\PIC-web\c18\PIC-WEB-5-42-UEXT-full\Microchip\TCPIP Stack\DNS.c
                   __pa_0   0x0148fc    program     static F:\PIC-web\c18\PIC-WEB-5-42-UEXT-full\TCPIP\Demo App\GenericTCPServer.c
                   __pa_0   0x011144    program     static E:\3.46\pic18-lt\cxx-framework\src\traditional\stdclib\log.c
                   __pa_0   0x0143dc    program     static F:\PIC-web\c18\PIC-WEB-5-42-UEXT-full\TCPIP\Demo App\BerkeleyTCPServerDemo.c
                   __pa_0   0x01501c    program     static E:\3.46\pic18-lt\cxx-framework\src\traditional\stdclib\UnpkMath.c
                   __pa_0   0x012ac6    program     static F:\PIC-web\c18\PIC-WEB-5-42-UEXT-full\TCPIP\Demo App\BerkeleyUDPClientDemo.c
                   __pa_0   0x0141c4    program     static F:\PIC-web\c18\PIC-WEB-5-42-UEXT-full\TCPIP\Demo App\GenericTCPClient.c
                   __pa_1   0x007f80    program     static F:\PIC-web\c18\PIC-WEB-5-42-UEXT-full\Microchip\TCPIP Stack\SMTP.c
                   __pa_1   0x0106ec    program     static F:\PIC-web\c18\PIC-WEB-5-42-UEXT-full\Microchip\TCPIP Stack\Telnet.c
                   __pa_1   0x006e50    program     static F:\PIC-web\c18\PIC-WEB-5-42-UEXT-full\TCPIP\Demo App\CustomHTTPApp.c
                   __pa_1   0x012e2a    program     static F:\PIC-web\c18\PIC-WEB-5-42-UEXT-full\Microchip\TCPIP Stack\SPIFlash.c
                   __pa_1   0x009fa4    program     static F:\PIC-web\c18\PIC-WEB-5-42-UEXT-full\Microchip\TCPIP Stack\BerkeleyAPI.c
                   __pa_1   0x011bc0    program     static F:\PIC-web\c18\PIC-WEB-5-42-UEXT-full\TCPIP\Demo App\UARTConfig.c
                   __pa_1   0x00ab70    program     static F:\PIC-web\c18\PIC-WEB-5-42-UEXT-full\Microchip\TCPIP Stack\MPFS2.c
                   __pa_1   0x014ee0    program     static F:\PIC-web\c18\PIC-WEB-5-42-UEXT-full\TCPIP\Demo App\Olimex_Demo_Files\Custom_I2C.c
                   __pa_1   0x00b6a0    program     static F:\PIC-web\c18\PIC-WEB-5-42-UEXT-full\Microchip\TCPIP Stack\DHCPs.c
                   __pa_1   0x01355a    program     static F:\PIC-web\c18\PIC-WEB-5-42-UEXT-full\Microchip\TCPIP Stack\NBNS.c
                   __pa_1   0x00c3f2    program     static F:\PIC-web\c18\PIC-WEB-5-42-UEXT-full\Microchip\TCPIP Stack\UDP.c
                   __pa_1   0x010d42    program     static F:\PIC-web\c18\PIC-WEB-5-42-UEXT-full\Microchip\TCPIP Stack\TCPPerformanceTest.c
                   __pa_1   0x013b3a    program     static F:\PIC-web\c18\PIC-WEB-5-42-UEXT-full\Microchip\TCPIP Stack\UART2TCPBridge.c
                   __pa_1   0x013840    program     static F:\PIC-web\c18\PIC-WEB-5-42-UEXT-full\Microchip\TCPIP Stack\SNTP.c
                   __pa_1   0x014de2    program     static E:\3.46\pic18-lt\cxx-framework\src\traditional\stdclib\frexp.c
                   __pa_1   0x015102    program     static E:\3.46\pic18-lt\cxx-framework\src\traditional\stdclib\PackMath.c
                   __pa_1   0x00e0d2    program     static F:\PIC-web\c18\PIC-WEB-5-42-UEXT-full\Microchip\TCPIP Stack\Hashes.c
                   __pa_1   0x012ae4    program     static F:\PIC-web\c18\PIC-WEB-5-42-UEXT-full\TCPIP\Demo App\BerkeleyUDPClientDemo.c
                   __pa_1   0x00ea12    program     static F:\PIC-web\c18\PIC-WEB-5-42-UEXT-full\Microchip\TCPIP Stack\ETH97J60.c
                   __pa_1   0x002e6e    program     static F:\PIC-web\c18\PIC-WEB-5-42-UEXT-full\Microchip\TCPIP Stack\TCP.c
                   __pa_1   0x0131da    program     static F:\PIC-web\c18\PIC-WEB-5-42-UEXT-full\Microchip\TCPIP Stack\ICMP.c
                   __pa_1   0x015256    program     static F:\PIC-web\c18\PIC-WEB-5-42-UEXT-full\TCPIP\Demo App\Olimex_Demo_Files\Custom_UART.c
                   __pa_1   0x011150    program     static E:\3.46\pic18-lt\cxx-framework\src\traditional\stdclib\log.c
                   __pa_1   0x01546c    program     static F:\PIC-web\c18\PIC-WEB-5-42-UEXT-full\TCPIP\Demo App\Olimex_Demo_Files\Custom_I2C_Low.c
                   __pa_1   0x005070    program     static F:\PIC-web\c18\PIC-WEB-5-42-UEXT-full\Microchip\TCPIP Stack\HTTP2.c
                   __pa_1   0x00f03c    program     static F:\PIC-web\c18\PIC-WEB-5-42-UEXT-full\Microchip\TCPIP Stack\DNS.c
                   __pa_1   0x00d7b6    program     static F:\PIC-web\c18\PIC-WEB-5-42-UEXT-full\Microchip\TCPIP Stack\DHCP.c
                   __pa_1   0x013ffa    program     static F:\PIC-web\c18\PIC-WEB-5-42-UEXT-full\Microchip\TCPIP Stack\IP.c
                   __pa_1   0x0141ce    program     static F:\PIC-web\c18\PIC-WEB-5-42-UEXT-full\TCPIP\Demo App\GenericTCPClient.c
                   __pa_1   0x01455a    program     static F:\PIC-web\c18\PIC-WEB-5-42-UEXT-full\Microchip\TCPIP Stack\Announce.c
                   __pa_1   0x0143e8    program     static F:\PIC-web\c18\PIC-WEB-5-42-UEXT-full\TCPIP\Demo App\BerkeleyTCPServerDemo.c
                   __pa_1   0x00cfc0    program     static F:\PIC-web\c18\PIC-WEB-5-42-UEXT-full\Microchip\TCPIP Stack\Helpers.c
                   __pa_1   0x0126be    program     static F:\PIC-web\c18\PIC-WEB-5-42-UEXT-full\TCPIP\Demo App\Olimex_Demo_Files\Misc_Functions.c
                   __pa_1   0x00fcc4    program     static F:\PIC-web\c18\PIC-WEB-5-42-UEXT-full\TCPIP\Demo App\MainDemo.c
                   __pa_1   0x00f680    program     static F:\PIC-web\c18\PIC-WEB-5-42-UEXT-full\Microchip\TCPIP Stack\AutoIP.c
                   __pa_1   0x011ff4    program     static F:\PIC-web\c18\PIC-WEB-5-42-UEXT-full\Microchip\TCPIP Stack\ARP.c
                  __pa_10   0x00b744    program     static F:\PIC-web\c18\PIC-WEB-5-42-UEXT-full\Microchip\TCPIP Stack\DHCPs.c
                  __pa_10   0x011206    program     static E:\3.46\pic18-lt\cxx-framework\src\traditional\stdclib\log.c
                  __pa_10   0x0107ce    program     static F:\PIC-web\c18\PIC-WEB-5-42-UEXT-full\Microchip\TCPIP Stack\Telnet.c
                  __pa_10   0x00a018    program     static F:\PIC-web\c18\PIC-WEB-5-42-UEXT-full\Microchip\TCPIP Stack\BerkeleyAPI.c
                  __pa_10   0x006ec2    program     static F:\PIC-web\c18\PIC-WEB-5-42-UEXT-full\TCPIP\Demo App\CustomHTTPApp.c
                  __pa_10   0x00d8b0    program     static F:\PIC-web\c18\PIC-WEB-5-42-UEXT-full\Microchip\TCPIP Stack\DHCP.c
                  __pa_10   0x00e1a0    program     static F:\PIC-web\c18\PIC-WEB-5-42-UEXT-full\Microchip\TCPIP Stack\Hashes.c
                  __pa_10   0x005130    program     static F:\PIC-web\c18\PIC-WEB-5-42-UEXT-full\Microchip\TCPIP Stack\HTTP2.c
                  __pa_10   0x00ac46    program     static F:\PIC-web\c18\PIC-WEB-5-42-UEXT-full\Microchip\TCPIP Stack\MPFS2.c
                  __pa_10   0x00806e    program     static F:\PIC-web\c18\PIC-WEB-5-42-UEXT-full\Microchip\TCPIP Stack\SMTP.c
                  __pa_10   0x00c46a    program     static F:\PIC-web\c18\PIC-WEB-5-42-UEXT-full\Microchip\TCPIP Stack\UDP.c
                  __pa_10   0x01276a    program     static F:\PIC-web\c18\PIC-WEB-5-42-UEXT-full\TCPIP\Demo App\Olimex_Demo_Files\Misc_Functions.c
                  __pa_10   0x00f0f4    program     static F:\PIC-web\c18\PIC-WEB-5-42-UEXT-full\Microchip\TCPIP Stack\DNS.c
                  __pa_10   0x002f88    program     static F:\PIC-web\c18\PIC-WEB-5-42-UEXT-full\Microchip\TCPIP Stack\TCP.c
                 __pa_100   0x003584    program     static F:\PIC-web\c18\PIC-WEB-5-42-UEXT-full\Microchip\TCPIP Stack\TCP.c
                 __pa_100   0x0055de    program     static F:\PIC-web\c18\PIC-WEB-5-42-UEXT-full\Microchip\TCPIP Stack\HTTP2.c
                 __pa_101   0x00358c    program     static F:\PIC-web\c18\PIC-WEB-5-42-UEXT-full\Microchip\TCPIP Stack\TCP.c
                 __pa_102   0x003594    program     static F:\PIC-web\c18\PIC-WEB-5-42-UEXT-full\Microchip\TCPIP Stack\TCP.c
                 __pa_103   0x00359e    program     static F:\PIC-web\c18\PIC-WEB-5-42-UEXT-full\Microchip\TCPIP Stack\TCP.c
                 __pa_104   0x0035a8    program     static F:\PIC-web\c18\PIC-WEB-5-42-UEXT-full\Microchip\TCPIP Stack\TCP.c
                 __pa_105   0x0035ae    program     static F:\PIC-web\c18\PIC-WEB-5-42-UEXT-full\Microchip\TCPIP Stack\TCP.c
                 __pa_106   0x0035b8    program     static F:\PIC-web\c18\PIC-WEB-5-42-UEXT-full\Microchip\TCPIP Stack\TCP.c
                 __pa_107   0x0035be    program     static F:\PIC-web\c18\PIC-WEB-5-42-UEXT-full\Microchip\TCPIP Stack\TCP.c
                 __pa_108   0x0035c8    program     static F:\PIC-web\c18\PIC-WEB-5-42-UEXT-full\Microchip\TCPIP Stack\TCP.c
                 __pa_109   0x0035d2    program     static F:\PIC-web\c18\PIC-WEB-5-42-UEXT-full\Microchip\TCPIP Stack\TCP.c
                  __pa_11   0x002f8e    program     static F:\PIC-web\c18\PIC-WEB-5-42-UEXT-full\Microchip\TCPIP Stack\TCP.c
                  __pa_11   0x012774    program     static F:\PIC-web\c18\PIC-WEB-5-42-UEXT-full\TCPIP\Demo App\Olimex_Demo_Files\Misc_Functions.c
                  __pa_11   0x00808e    program     static F:\PIC-web\c18\PIC-WEB-5-42-UEXT-full\Microchip\TCPIP Stack\SMTP.c
                  __pa_11   0x00a022    program     static F:\PIC-web\c18\PIC-WEB-5-42-UEXT-full\Microchip\TCPIP Stack\BerkeleyAPI.c
                  __pa_11   0x006ece    program     static F:\PIC-web\c18\PIC-WEB-5-42-UEXT-full\TCPIP\Demo App\CustomHTTPApp.c
                  __pa_11   0x00513a    program     static F:\PIC-web\c18\PIC-WEB-5-42-UEXT-full\Microchip\TCPIP Stack\HTTP2.c
                  __pa_11   0x00c474    program     static F:\PIC-web\c18\PIC-WEB-5-42-UEXT-full\Microchip\TCPIP Stack\UDP.c
                  __pa_11   0x00d8bc    program     static F:\PIC-web\c18\PIC-WEB-5-42-UEXT-full\Microchip\TCPIP Stack\DHCP.c
                  __pa_11   0x00f0fe    program     static F:\PIC-web\c18\PIC-WEB-5-42-UEXT-full\Microchip\TCPIP Stack\DNS.c
                  __pa_11   0x00ac58    program     static F:\PIC-web\c18\PIC-WEB-5-42-UEXT-full\Microchip\TCPIP Stack\MPFS2.c
                  __pa_11   0x00b758    program     static F:\PIC-web\c18\PIC-WEB-5-42-UEXT-full\Microchip\TCPIP Stack\DHCPs.c
                  __pa_11   0x00e1b0    program     static F:\PIC-web\c18\PIC-WEB-5-42-UEXT-full\Microchip\TCPIP Stack\Hashes.c
                  __pa_11   0x0107dc    program     static F:\PIC-web\c18\PIC-WEB-5-42-UEXT-full\Microchip\TCPIP Stack\Telnet.c
                  __pa_11   0x01120e    program     static E:\3.46\pic18-lt\cxx-framework\src\traditional\stdclib\log.c
                 __pa_110   0x0035dc    program     static F:\PIC-web\c18\PIC-WEB-5-42-UEXT-full\Microchip\TCPIP Stack\TCP.c
                 __pa_111   0x0035e8    program     static F:\PIC-web\c18\PIC-WEB-5-42-UEXT-full\Microchip\TCPIP Stack\TCP.c
                 __pa_112   0x0035f4    program     static F:\PIC-web\c18\PIC-WEB-5-42-UEXT-full\Microchip\TCPIP Stack\TCP.c
                 __pa_113   0x0035fc    program     static F:\PIC-web\c18\PIC-WEB-5-42-UEXT-full\Microchip\TCPIP Stack\TCP.c
                 __pa_114   0x003612    program     static F:\PIC-web\c18\PIC-WEB-5-42-UEXT-full\Microchip\TCPIP Stack\TCP.c
                 __pa_115   0x003630    program     static F:\PIC-web\c18\PIC-WEB-5-42-UEXT-full\Microchip\TCPIP Stack\TCP.c
                 __pa_116   0x00363a    program     static F:\PIC-web\c18\PIC-WEB-5-42-UEXT-full\Microchip\TCPIP Stack\TCP.c
                 __pa_117   0x003644    program     static F:\PIC-web\c18\PIC-WEB-5-42-UEXT-full\Microchip\TCPIP Stack\TCP.c
                 __pa_118   0x003650    program     static F:\PIC-web\c18\PIC-WEB-5-42-UEXT-full\Microchip\TCPIP Stack\TCP.c
                 __pa_119   0x00365e    program     static F:\PIC-web\c18\PIC-WEB-5-42-UEXT-full\Microchip\TCPIP Stack\TCP.c
                  __pa_12   0x00a03a    program     static F:\PIC-web\c18\PIC-WEB-5-42-UEXT-full\Microchip\TCPIP Stack\BerkeleyAPI.c
                  __pa_12   0x00514e    program     static F:\PIC-web\c18\PIC-WEB-5-42-UEXT-full\Microchip\TCPIP Stack\HTTP2.c
                  __pa_12   0x0080ac    program     static F:\PIC-web\c18\PIC-WEB-5-42-UEXT-full\Microchip\TCPIP Stack\SMTP.c
                  __pa_12   0x0107ea    program     static F:\PIC-web\c18\PIC-WEB-5-42-UEXT-full\Microchip\TCPIP Stack\Telnet.c
                  __pa_12   0x002faa    program     static F:\PIC-web\c18\PIC-WEB-5-42-UEXT-full\Microchip\TCPIP Stack\TCP.c
                  __pa_12   0x00b772    program     static F:\PIC-web\c18\PIC-WEB-5-42-UEXT-full\Microchip\TCPIP Stack\DHCPs.c
                  __pa_12   0x011220    program     static E:\3.46\pic18-lt\cxx-framework\src\traditional\stdclib\log.c
                  __pa_12   0x012780    program     static F:\PIC-web\c18\PIC-WEB-5-42-UEXT-full\TCPIP\Demo App\Olimex_Demo_Files\Misc_Functions.c
                  __pa_12   0x00ac6a    program     static F:\PIC-web\c18\PIC-WEB-5-42-UEXT-full\Microchip\TCPIP Stack\MPFS2.c
                  __pa_12   0x00e1ba    program     static F:\PIC-web\c18\PIC-WEB-5-42-UEXT-full\Microchip\TCPIP Stack\Hashes.c
                  __pa_12   0x006ed6    program     static F:\PIC-web\c18\PIC-WEB-5-42-UEXT-full\TCPIP\Demo App\CustomHTTPApp.c
                  __pa_12   0x00c482    program     static F:\PIC-web\c18\PIC-WEB-5-42-UEXT-full\Microchip\TCPIP Stack\UDP.c
                  __pa_12   0x00d8c2    program     static F:\PIC-web\c18\PIC-WEB-5-42-UEXT-full\Microchip\TCPIP Stack\DHCP.c
                  __pa_12   0x00f10a    program     static F:\PIC-web\c18\PIC-WEB-5-42-UEXT-full\Microchip\TCPIP Stack\DNS.c
                 __pa_120   0x00366a    program     static F:\PIC-web\c18\PIC-WEB-5-42-UEXT-full\Microchip\TCPIP Stack\TCP.c
                 __pa_121   0x003674    program     static F:\PIC-web\c18\PIC-WEB-5-42-UEXT-full\Microchip\TCPIP Stack\TCP.c
                 __pa_122   0x00367e    program     static F:\PIC-web\c18\PIC-WEB-5-42-UEXT-full\Microchip\TCPIP Stack\TCP.c
                 __pa_123   0x003692    program     static F:\PIC-web\c18\PIC-WEB-5-42-UEXT-full\Microchip\TCPIP Stack\TCP.c
                 __pa_124   0x003698    program     static F:\PIC-web\c18\PIC-WEB-5-42-UEXT-full\Microchip\TCPIP Stack\TCP.c
                 __pa_125   0x0036a8    program     static F:\PIC-web\c18\PIC-WEB-5-42-UEXT-full\Microchip\TCPIP Stack\TCP.c
                 __pa_126   0x0036ba    program     static F:\PIC-web\c18\PIC-WEB-5-42-UEXT-full\Microchip\TCPIP Stack\TCP.c
                 __pa_127   0x0036cc    program     static F:\PIC-web\c18\PIC-WEB-5-42-UEXT-full\Microchip\TCPIP Stack\TCP.c
                 __pa_128   0x0036dc    program     static F:\PIC-web\c18\PIC-WEB-5-42-UEXT-full\Microchip\TCPIP Stack\TCP.c
                 __pa_129   0x0036e6    program     static F:\PIC-web\c18\PIC-WEB-5-42-UEXT-full\Microchip\TCPIP Stack\TCP.c
                  __pa_13   0x005152    program     static F:\PIC-web\c18\PIC-WEB-5-42-UEXT-full\Microchip\TCPIP Stack\HTTP2.c
                  __pa_13   0x002fd4    program     static F:\PIC-web\c18\PIC-WEB-5-42-UEXT-full\Microchip\TCPIP Stack\TCP.c
                  __pa_13   0x006efc    program     static F:\PIC-web\c18\PIC-WEB-5-42-UEXT-full\TCPIP\Demo App\CustomHTTPApp.c
                  __pa_13   0x0080be    program     static F:\PIC-web\c18\PIC-WEB-5-42-UEXT-full\Microchip\TCPIP Stack\SMTP.c
                  __pa_13   0x01123a    program     static E:\3.46\pic18-lt\cxx-framework\src\traditional\stdclib\log.c
                  __pa_13   0x00a048    program     static F:\PIC-web\c18\PIC-WEB-5-42-UEXT-full\Microchip\TCPIP Stack\BerkeleyAPI.c
                  __pa_13   0x00f118    program     static F:\PIC-web\c18\PIC-WEB-5-42-UEXT-full\Microchip\TCPIP Stack\DNS.c
                  __pa_13   0x00b782    program     static F:\PIC-web\c18\PIC-WEB-5-42-UEXT-full\Microchip\TCPIP Stack\DHCPs.c
                  __pa_13   0x00c48e    program     static F:\PIC-web\c18\PIC-WEB-5-42-UEXT-full\Microchip\TCPIP Stack\UDP.c
                  __pa_13   0x00ac78    program     static F:\PIC-web\c18\PIC-WEB-5-42-UEXT-full\Microchip\TCPIP Stack\MPFS2.c
                  __pa_13   0x00e1c8    program     static F:\PIC-web\c18\PIC-WEB-5-42-UEXT-full\Microchip\TCPIP Stack\Hashes.c
                  __pa_13   0x00d8d8    program     static F:\PIC-web\c18\PIC-WEB-5-42-UEXT-full\Microchip\TCPIP Stack\DHCP.c
                  __pa_13   0x0107f2    program     static F:\PIC-web\c18\PIC-WEB-5-42-UEXT-full\Microchip\TCPIP Stack\Telnet.c
                 __pa_130   0x0036f2    program     static F:\PIC-web\c18\PIC-WEB-5-42-UEXT-full\Microchip\TCPIP Stack\TCP.c
                 __pa_131   0x0036f8    program     static F:\PIC-web\c18\PIC-WEB-5-42-UEXT-full\Microchip\TCPIP Stack\TCP.c
                 __pa_132   0x003704    program     static F:\PIC-web\c18\PIC-WEB-5-42-UEXT-full\Microchip\TCPIP Stack\TCP.c
                 __pa_133   0x003710    program     static F:\PIC-web\c18\PIC-WEB-5-42-UEXT-full\Microchip\TCPIP Stack\TCP.c
                 __pa_134   0x00371e    program     static F:\PIC-web\c18\PIC-WEB-5-42-UEXT-full\Microchip\TCPIP Stack\TCP.c
                 __pa_135   0x00372c    program     static F:\PIC-web\c18\PIC-WEB-5-42-UEXT-full\Microchip\TCPIP Stack\TCP.c
                 __pa_136   0x003738    program     static F:\PIC-web\c18\PIC-WEB-5-42-UEXT-full\Microchip\TCPIP Stack\TCP.c
                 __pa_137   0x003746    program     static F:\PIC-web\c18\PIC-WEB-5-42-UEXT-full\Microchip\TCPIP Stack\TCP.c
                 __pa_138   0x003750    program     static F:\PIC-web\c18\PIC-WEB-5-42-UEXT-full\Microchip\TCPIP Stack\TCP.c
                 __pa_139   0x003758    program     static F:\PIC-web\c18\PIC-WEB-5-42-UEXT-full\Microchip\TCPIP Stack\TCP.c
                  __pa_14   0x005164    program     static F:\PIC-web\c18\PIC-WEB-5-42-UEXT-full\Microchip\TCPIP Stack\HTTP2.c
                  __pa_14   0x00d8ea    program     static F:\PIC-web\c18\PIC-WEB-5-42-UEXT-full\Microchip\TCPIP Stack\DHCP.c
                  __pa_14   0x00e1d6    program     static F:\PIC-web\c18\PIC-WEB-5-42-UEXT-full\Microchip\TCPIP Stack\Hashes.c
                  __pa_14   0x010800    program     static F:\PIC-web\c18\PIC-WEB-5-42-UEXT-full\Microchip\TCPIP Stack\Telnet.c
                  __pa_14   0x006f06    program     static F:\PIC-web\c18\PIC-WEB-5-42-UEXT-full\TCPIP\Demo App\CustomHTTPApp.c
                  __pa_14   0x00c49a    program     static F:\PIC-web\c18\PIC-WEB-5-42-UEXT-full\Microchip\TCPIP Stack\UDP.c
                  __pa_14   0x00a052    program     static F:\PIC-web\c18\PIC-WEB-5-42-UEXT-full\Microchip\TCPIP Stack\BerkeleyAPI.c
                  __pa_14   0x00ac84    program     static F:\PIC-web\c18\PIC-WEB-5-42-UEXT-full\Microchip\TCPIP Stack\MPFS2.c
                  __pa_14   0x01124c    program     static E:\3.46\pic18-lt\cxx-framework\src\traditional\stdclib\log.c
                  __pa_14   0x00f11e    program     static F:\PIC-web\c18\PIC-WEB-5-42-UEXT-full\Microchip\TCPIP Stack\DNS.c
                  __pa_14   0x0080ca    program     static F:\PIC-web\c18\PIC-WEB-5-42-UEXT-full\Microchip\TCPIP Stack\SMTP.c
                  __pa_14   0x002fe4    program     static F:\PIC-web\c18\PIC-WEB-5-42-UEXT-full\Microchip\TCPIP Stack\TCP.c
                  __pa_14   0x00b792    program     static F:\PIC-web\c18\PIC-WEB-5-42-UEXT-full\Microchip\TCPIP Stack\DHCPs.c
                 __pa_140   0x003762    program     static F:\PIC-web\c18\PIC-WEB-5-42-UEXT-full\Microchip\TCPIP Stack\TCP.c
                 __pa_141   0x00376c    program     static F:\PIC-web\c18\PIC-WEB-5-42-UEXT-full\Microchip\TCPIP Stack\TCP.c
                 __pa_142   0x003776    program     static F:\PIC-web\c18\PIC-WEB-5-42-UEXT-full\Microchip\TCPIP Stack\TCP.c
                 __pa_143   0x003780    program     static F:\PIC-web\c18\PIC-WEB-5-42-UEXT-full\Microchip\TCPIP Stack\TCP.c
                 __pa_144   0x003788    program     static F:\PIC-web\c18\PIC-WEB-5-42-UEXT-full\Microchip\TCPIP Stack\TCP.c
                 __pa_145   0x003796    program     static F:\PIC-web\c18\PIC-WEB-5-42-UEXT-full\Microchip\TCPIP Stack\TCP.c
                 __pa_146   0x0037a8    program     static F:\PIC-web\c18\PIC-WEB-5-42-UEXT-full\Microchip\TCPIP Stack\TCP.c
                  __pa_15   0x01125e    program     static E:\3.46\pic18-lt\cxx-framework\src\traditional\stdclib\log.c
                  __pa_15   0x01080e    program     static F:\PIC-web\c18\PIC-WEB-5-42-UEXT-full\Microchip\TCPIP Stack\Telnet.c
                  __pa_15   0x00ac8e    program     static F:\PIC-web\c18\PIC-WEB-5-42-UEXT-full\Microchip\TCPIP Stack\MPFS2.c
                  __pa_15   0x00f124    program     static F:\PIC-web\c18\PIC-WEB-5-42-UEXT-full\Microchip\TCPIP Stack\DNS.c
                  __pa_15   0x00300e    program     static F:\PIC-web\c18\PIC-WEB-5-42-UEXT-full\Microchip\TCPIP Stack\TCP.c
                  __pa_15   0x00a062    program     static F:\PIC-web\c18\PIC-WEB-5-42-UEXT-full\Microchip\TCPIP Stack\BerkeleyAPI.c
                  __pa_15   0x00b79e    program     static F:\PIC-web\c18\PIC-WEB-5-42-UEXT-full\Microchip\TCPIP Stack\DHCPs.c
                  __pa_15   0x006f16    program     static F:\PIC-web\c18\PIC-WEB-5-42-UEXT-full\TCPIP\Demo App\CustomHTTPApp.c
                  __pa_15   0x00e1e4    program     static F:\PIC-web\c18\PIC-WEB-5-42-UEXT-full\Microchip\TCPIP Stack\Hashes.c
                  __pa_15   0x0080e4    program     static F:\PIC-web\c18\PIC-WEB-5-42-UEXT-full\Microchip\TCPIP Stack\SMTP.c
                  __pa_15   0x005174    program     static F:\PIC-web\c18\PIC-WEB-5-42-UEXT-full\Microchip\TCPIP Stack\HTTP2.c
                  __pa_15   0x00d8f4    program     static F:\PIC-web\c18\PIC-WEB-5-42-UEXT-full\Microchip\TCPIP Stack\DHCP.c
                  __pa_15   0x00c4a4    program     static F:\PIC-web\c18\PIC-WEB-5-42-UEXT-full\Microchip\TCPIP Stack\UDP.c
                  __pa_16   0x00a06c    program     static F:\PIC-web\c18\PIC-WEB-5-42-UEXT-full\Microchip\TCPIP Stack\BerkeleyAPI.c
                  __pa_16   0x00b7ac    program     static F:\PIC-web\c18\PIC-WEB-5-42-UEXT-full\Microchip\TCPIP Stack\DHCPs.c
                  __pa_16   0x00f12a    program     static F:\PIC-web\c18\PIC-WEB-5-42-UEXT-full\Microchip\TCPIP Stack\DNS.c
                  __pa_16   0x00517c    program     static F:\PIC-web\c18\PIC-WEB-5-42-UEXT-full\Microchip\TCPIP Stack\HTTP2.c
                  __pa_16   0x01126a    program     static E:\3.46\pic18-lt\cxx-framework\src\traditional\stdclib\log.c
                  __pa_16   0x00c4ac    program     static F:\PIC-web\c18\PIC-WEB-5-42-UEXT-full\Microchip\TCPIP Stack\UDP.c
                  __pa_16   0x00ac98    program     static F:\PIC-web\c18\PIC-WEB-5-42-UEXT-full\Microchip\TCPIP Stack\MPFS2.c
                  __pa_16   0x010816    program     static F:\PIC-web\c18\PIC-WEB-5-42-UEXT-full\Microchip\TCPIP Stack\Telnet.c
                  __pa_16   0x003018    program     static F:\PIC-web\c18\PIC-WEB-5-42-UEXT-full\Microchip\TCPIP Stack\TCP.c
                  __pa_16   0x00d8fe    program     static F:\PIC-web\c18\PIC-WEB-5-42-UEXT-full\Microchip\TCPIP Stack\DHCP.c
                  __pa_16   0x0080fe    program     static F:\PIC-web\c18\PIC-WEB-5-42-UEXT-full\Microchip\TCPIP Stack\SMTP.c
                  __pa_16   0x006f26    program     static F:\PIC-web\c18\PIC-WEB-5-42-UEXT-full\TCPIP\Demo App\CustomHTTPApp.c
                  __pa_16   0x00e1f2    program     static F:\PIC-web\c18\PIC-WEB-5-42-UEXT-full\Microchip\TCPIP Stack\Hashes.c
                  __pa_17   0x003042    program     static F:\PIC-web\c18\PIC-WEB-5-42-UEXT-full\Microchip\TCPIP Stack\TCP.c
                  __pa_17   0x00b7b2    program     static F:\PIC-web\c18\PIC-WEB-5-42-UEXT-full\Microchip\TCPIP Stack\DHCPs.c
                  __pa_17   0x010836    program     static F:\PIC-web\c18\PIC-WEB-5-42-UEXT-full\Microchip\TCPIP Stack\Telnet.c
                  __pa_17   0x00d910    program     static F:\PIC-web\c18\PIC-WEB-5-42-UEXT-full\Microchip\TCPIP Stack\DHCP.c
                  __pa_17   0x00c4b4    program     static F:\PIC-web\c18\PIC-WEB-5-42-UEXT-full\Microchip\TCPIP Stack\UDP.c
                  __pa_17   0x008106    program     static F:\PIC-web\c18\PIC-WEB-5-42-UEXT-full\Microchip\TCPIP Stack\SMTP.c
                  __pa_17   0x00e1fc    program     static F:\PIC-web\c18\PIC-WEB-5-42-UEXT-full\Microchip\TCPIP Stack\Hashes.c
                  __pa_17   0x00518e    program     static F:\PIC-web\c18\PIC-WEB-5-42-UEXT-full\Microchip\TCPIP Stack\HTTP2.c
                  __pa_17   0x00aca2    program     static F:\PIC-web\c18\PIC-WEB-5-42-UEXT-full\Microchip\TCPIP Stack\MPFS2.c
                  __pa_17   0x006f2e    program     static F:\PIC-web\c18\PIC-WEB-5-42-UEXT-full\TCPIP\Demo App\CustomHTTPApp.c
                  __pa_17   0x00a076    program     static F:\PIC-web\c18\PIC-WEB-5-42-UEXT-full\Microchip\TCPIP Stack\BerkeleyAPI.c
                  __pa_18   0x00a080    program     static F:\PIC-web\c18\PIC-WEB-5-42-UEXT-full\Microchip\TCPIP Stack\BerkeleyAPI.c
                  __pa_18   0x00b7c4    program     static F:\PIC-web\c18\PIC-WEB-5-42-UEXT-full\Microchip\TCPIP Stack\DHCPs.c
                  __pa_18   0x00acb0    program     static F:\PIC-web\c18\PIC-WEB-5-42-UEXT-full\Microchip\TCPIP Stack\MPFS2.c
                  __pa_18   0x003048    program     static F:\PIC-web\c18\PIC-WEB-5-42-UEXT-full\Microchip\TCPIP Stack\TCP.c
                  __pa_18   0x01083e    program     static F:\PIC-web\c18\PIC-WEB-5-42-UEXT-full\Microchip\TCPIP Stack\Telnet.c
                  __pa_18   0x00d922    program     static F:\PIC-web\c18\PIC-WEB-5-42-UEXT-full\Microchip\TCPIP Stack\DHCP.c
                  __pa_18   0x00c4ca    program     static F:\PIC-web\c18\PIC-WEB-5-42-UEXT-full\Microchip\TCPIP Stack\UDP.c
                  __pa_18   0x005198    program     static F:\PIC-web\c18\PIC-WEB-5-42-UEXT-full\Microchip\TCPIP Stack\HTTP2.c
                  __pa_18   0x00e204    program     static F:\PIC-web\c18\PIC-WEB-5-42-UEXT-full\Microchip\TCPIP Stack\Hashes.c
                  __pa_18   0x00811c    program     static F:\PIC-web\c18\PIC-WEB-5-42-UEXT-full\Microchip\TCPIP Stack\SMTP.c
                  __pa_18   0x006f4a    program     static F:\PIC-web\c18\PIC-WEB-5-42-UEXT-full\TCPIP\Demo App\CustomHTTPApp.c
                  __pa_19   0x00e20e    program     static F:\PIC-web\c18\PIC-WEB-5-42-UEXT-full\Microchip\TCPIP Stack\Hashes.c
                  __pa_19   0x00c4d2    program     static F:\PIC-web\c18\PIC-WEB-5-42-UEXT-full\Microchip\TCPIP Stack\UDP.c
                  __pa_19   0x00d92c    program     static F:\PIC-web\c18\PIC-WEB-5-42-UEXT-full\Microchip\TCPIP Stack\DHCP.c
                  __pa_19   0x003070    program     static F:\PIC-web\c18\PIC-WEB-5-42-UEXT-full\Microchip\TCPIP Stack\TCP.c
                  __pa_19   0x010850    program     static F:\PIC-web\c18\PIC-WEB-5-42-UEXT-full\Microchip\TCPIP Stack\Telnet.c
                  __pa_19   0x00812a    program     static F:\PIC-web\c18\PIC-WEB-5-42-UEXT-full\Microchip\TCPIP Stack\SMTP.c
                  __pa_19   0x00a096    program     static F:\PIC-web\c18\PIC-WEB-5-42-UEXT-full\Microchip\TCPIP Stack\BerkeleyAPI.c
                  __pa_19   0x00b7d4    program     static F:\PIC-web\c18\PIC-WEB-5-42-UEXT-full\Microchip\TCPIP Stack\DHCPs.c
                  __pa_19   0x00acc2    program     static F:\PIC-web\c18\PIC-WEB-5-42-UEXT-full\Microchip\TCPIP Stack\MPFS2.c
                  __pa_19   0x0051ac    program     static F:\PIC-web\c18\PIC-WEB-5-42-UEXT-full\Microchip\TCPIP Stack\HTTP2.c
                  __pa_19   0x006f52    program     static F:\PIC-web\c18\PIC-WEB-5-42-UEXT-full\TCPIP\Demo App\CustomHTTPApp.c
                   __pa_2   0x0126d6    program     static F:\PIC-web\c18\PIC-WEB-5-42-UEXT-full\TCPIP\Demo App\Olimex_Demo_Files\Misc_Functions.c
                   __pa_2   0x00cfcc    program     static F:\PIC-web\c18\PIC-WEB-5-42-UEXT-full\Microchip\TCPIP Stack\Helpers.c
                   __pa_2   0x002e7c    program     static F:\PIC-web\c18\PIC-WEB-5-42-UEXT-full\Microchip\TCPIP Stack\TCP.c
                   __pa_2   0x00b6b6    program     static F:\PIC-web\c18\PIC-WEB-5-42-UEXT-full\Microchip\TCPIP Stack\DHCPs.c
                   __pa_2   0x00fcfc    program     static F:\PIC-web\c18\PIC-WEB-5-42-UEXT-full\TCPIP\Demo App\MainDemo.c
                   __pa_2   0x007fce    program     static F:\PIC-web\c18\PIC-WEB-5-42-UEXT-full\Microchip\TCPIP Stack\SMTP.c
                   __pa_2   0x00c3fa    program     static F:\PIC-web\c18\PIC-WEB-5-42-UEXT-full\Microchip\TCPIP Stack\UDP.c
                   __pa_2   0x011bd0    program     static F:\PIC-web\c18\PIC-WEB-5-42-UEXT-full\TCPIP\Demo App\UARTConfig.c
                   __pa_2   0x00ab8a    program     static F:\PIC-web\c18\PIC-WEB-5-42-UEXT-full\Microchip\TCPIP Stack\MPFS2.c
                   __pa_2   0x00ea2a    program     static F:\PIC-web\c18\PIC-WEB-5-42-UEXT-full\Microchip\TCPIP Stack\ETH97J60.c
                   __pa_2   0x010d5a    program     static F:\PIC-web\c18\PIC-WEB-5-42-UEXT-full\Microchip\TCPIP Stack\TCPPerformanceTest.c
                   __pa_2   0x015110    program     static E:\3.46\pic18-lt\cxx-framework\src\traditional\stdclib\PackMath.c
                   __pa_2   0x00e0f4    program     static F:\PIC-web\c18\PIC-WEB-5-42-UEXT-full\Microchip\TCPIP Stack\Hashes.c
                   __pa_2   0x00f6a0    program     static F:\PIC-web\c18\PIC-WEB-5-42-UEXT-full\Microchip\TCPIP Stack\AutoIP.c
                   __pa_2   0x012026    program     static F:\PIC-web\c18\PIC-WEB-5-42-UEXT-full\Microchip\TCPIP Stack\ARP.c
                   __pa_2   0x013854    program     static F:\PIC-web\c18\PIC-WEB-5-42-UEXT-full\Microchip\TCPIP Stack\SNTP.c
                   __pa_2   0x011162    program     static E:\3.46\pic18-lt\cxx-framework\src\traditional\stdclib\log.c
                   __pa_2   0x014572    program     static F:\PIC-web\c18\PIC-WEB-5-42-UEXT-full\Microchip\TCPIP Stack\Announce.c
                   __pa_2   0x014002    program     static F:\PIC-web\c18\PIC-WEB-5-42-UEXT-full\Microchip\TCPIP Stack\IP.c
                   __pa_2   0x00f06e    program     static F:\PIC-web\c18\PIC-WEB-5-42-UEXT-full\Microchip\TCPIP Stack\DNS.c
                   __pa_2   0x0131f0    program     static F:\PIC-web\c18\PIC-WEB-5-42-UEXT-full\Microchip\TCPIP Stack\ICMP.c
                   __pa_2   0x0141e4    program     static F:\PIC-web\c18\PIC-WEB-5-42-UEXT-full\TCPIP\Demo App\GenericTCPClient.c
                   __pa_2   0x009fac    program     static F:\PIC-web\c18\PIC-WEB-5-42-UEXT-full\Microchip\TCPIP Stack\BerkeleyAPI.c
                   __pa_2   0x0106fc    program     static F:\PIC-web\c18\PIC-WEB-5-42-UEXT-full\Microchip\TCPIP Stack\Telnet.c
                   __pa_2   0x013560    program     static F:\PIC-web\c18\PIC-WEB-5-42-UEXT-full\Microchip\TCPIP Stack\NBNS.c
                   __pa_2   0x012e3a    program     static F:\PIC-web\c18\PIC-WEB-5-42-UEXT-full\Microchip\TCPIP Stack\SPIFlash.c
                   __pa_2   0x014ef4    program     static F:\PIC-web\c18\PIC-WEB-5-42-UEXT-full\TCPIP\Demo App\Olimex_Demo_Files\Custom_I2C.c
                   __pa_2   0x005076    program     static F:\PIC-web\c18\PIC-WEB-5-42-UEXT-full\Microchip\TCPIP Stack\HTTP2.c
                   __pa_2   0x006e56    program     static F:\PIC-web\c18\PIC-WEB-5-42-UEXT-full\TCPIP\Demo App\CustomHTTPApp.c
                   __pa_2   0x00d7c2    program     static F:\PIC-web\c18\PIC-WEB-5-42-UEXT-full\Microchip\TCPIP Stack\DHCP.c
                   __pa_2   0x012af8    program     static F:\PIC-web\c18\PIC-WEB-5-42-UEXT-full\TCPIP\Demo App\BerkeleyUDPClientDemo.c
                  __pa_20   0x006f62    program     static F:\PIC-web\c18\PIC-WEB-5-42-UEXT-full\TCPIP\Demo App\CustomHTTPApp.c
                  __pa_20   0x008132    program     static F:\PIC-web\c18\PIC-WEB-5-42-UEXT-full\Microchip\TCPIP Stack\SMTP.c
                  __pa_20   0x00a0a4    program     static F:\PIC-web\c18\PIC-WEB-5-42-UEXT-full\Microchip\TCPIP Stack\BerkeleyAPI.c
                  __pa_20   0x00acd4    program     static F:\PIC-web\c18\PIC-WEB-5-42-UEXT-full\Microchip\TCPIP Stack\MPFS2.c
                  __pa_20   0x00c4da    program     static F:\PIC-web\c18\PIC-WEB-5-42-UEXT-full\Microchip\TCPIP Stack\UDP.c
                  __pa_20   0x01085a    program     static F:\PIC-web\c18\PIC-WEB-5-42-UEXT-full\Microchip\TCPIP Stack\Telnet.c
                  __pa_20   0x003088    program     static F:\PIC-web\c18\PIC-WEB-5-42-UEXT-full\Microchip\TCPIP Stack\TCP.c
                  __pa_20   0x00b7e2    program     static F:\PIC-web\c18\PIC-WEB-5-42-UEXT-full\Microchip\TCPIP Stack\DHCPs.c
                  __pa_20   0x00e21c    program     static F:\PIC-web\c18\PIC-WEB-5-42-UEXT-full\Microchip\TCPIP Stack\Hashes.c
                  __pa_20   0x0051ca    program     static F:\PIC-web\c18\PIC-WEB-5-42-UEXT-full\Microchip\TCPIP Stack\HTTP2.c
                  __pa_20   0x00d93c    program     static F:\PIC-web\c18\PIC-WEB-5-42-UEXT-full\Microchip\TCPIP Stack\DHCP.c
                  __pa_21   0x0030ae    program     static F:\PIC-web\c18\PIC-WEB-5-42-UEXT-full\Microchip\TCPIP Stack\TCP.c
                  __pa_21   0x00e22a    program     static F:\PIC-web\c18\PIC-WEB-5-42-UEXT-full\Microchip\TCPIP Stack\Hashes.c
                  __pa_21   0x010868    program     static F:\PIC-web\c18\PIC-WEB-5-42-UEXT-full\Microchip\TCPIP Stack\Telnet.c
                  __pa_21   0x008146    program     static F:\PIC-web\c18\PIC-WEB-5-42-UEXT-full\Microchip\TCPIP Stack\SMTP.c
                  __pa_21   0x00a0b6    program     static F:\PIC-web\c18\PIC-WEB-5-42-UEXT-full\Microchip\TCPIP Stack\BerkeleyAPI.c
                  __pa_21   0x006f70    program     static F:\PIC-web\c18\PIC-WEB-5-42-UEXT-full\TCPIP\Demo App\CustomHTTPApp.c
                  __pa_21   0x00ace6    program     static F:\PIC-web\c18\PIC-WEB-5-42-UEXT-full\Microchip\TCPIP Stack\MPFS2.c
                  __pa_21   0x00c4e4    program     static F:\PIC-web\c18\PIC-WEB-5-42-UEXT-full\Microchip\TCPIP Stack\UDP.c
                  __pa_21   0x0051d4    program     static F:\PIC-web\c18\PIC-WEB-5-42-UEXT-full\Microchip\TCPIP Stack\HTTP2.c
                  __pa_21   0x00b7ee    program     static F:\PIC-web\c18\PIC-WEB-5-42-UEXT-full\Microchip\TCPIP Stack\DHCPs.c
                  __pa_21   0x00d94a    program     static F:\PIC-web\c18\PIC-WEB-5-42-UEXT-full\Microchip\TCPIP Stack\DHCP.c
                  __pa_22   0x00a0c0    program     static F:\PIC-web\c18\PIC-WEB-5-42-UEXT-full\Microchip\TCPIP Stack\BerkeleyAPI.c
                  __pa_22   0x00acf8    program     static F:\PIC-web\c18\PIC-WEB-5-42-UEXT-full\Microchip\TCPIP Stack\MPFS2.c
                  __pa_22   0x00b7fc    program     static F:\PIC-web\c18\PIC-WEB-5-42-UEXT-full\Microchip\TCPIP Stack\DHCPs.c
                  __pa_22   0x00c4f2    program     static F:\PIC-web\c18\PIC-WEB-5-42-UEXT-full\Microchip\TCPIP Stack\UDP.c
                  __pa_22   0x00e230    program     static F:\PIC-web\c18\PIC-WEB-5-42-UEXT-full\Microchip\TCPIP Stack\Hashes.c
                  __pa_22   0x01086e    program     static F:\PIC-web\c18\PIC-WEB-5-42-UEXT-full\Microchip\TCPIP Stack\Telnet.c
                  __pa_22   0x00d954    program     static F:\PIC-web\c18\PIC-WEB-5-42-UEXT-full\Microchip\TCPIP Stack\DHCP.c
                  __pa_22   0x006f7e    program     static F:\PIC-web\c18\PIC-WEB-5-42-UEXT-full\TCPIP\Demo App\CustomHTTPApp.c
                  __pa_22   0x0051e4    program     static F:\PIC-web\c18\PIC-WEB-5-42-UEXT-full\Microchip\TCPIP Stack\HTTP2.c
                  __pa_22   0x0030bc    program     static F:\PIC-web\c18\PIC-WEB-5-42-UEXT-full\Microchip\TCPIP Stack\TCP.c
                  __pa_22   0x00815a    program     static F:\PIC-web\c18\PIC-WEB-5-42-UEXT-full\Microchip\TCPIP Stack\SMTP.c
                  __pa_23   0x00ad04    program     static F:\PIC-web\c18\PIC-WEB-5-42-UEXT-full\Microchip\TCPIP Stack\MPFS2.c
                  __pa_23   0x006f86    program     static F:\PIC-web\c18\PIC-WEB-5-42-UEXT-full\TCPIP\Demo App\CustomHTTPApp.c
                  __pa_23   0x00b80a    program     static F:\PIC-web\c18\PIC-WEB-5-42-UEXT-full\Microchip\TCPIP Stack\DHCPs.c
                  __pa_23   0x00c4fc    program     static F:\PIC-web\c18\PIC-WEB-5-42-UEXT-full\Microchip\TCPIP Stack\UDP.c
                  __pa_23   0x00a0cc    program     static F:\PIC-web\c18\PIC-WEB-5-42-UEXT-full\Microchip\TCPIP Stack\BerkeleyAPI.c
                  __pa_23   0x0051fa    program     static F:\PIC-web\c18\PIC-WEB-5-42-UEXT-full\Microchip\TCPIP Stack\HTTP2.c
                  __pa_23   0x00816c    program     static F:\PIC-web\c18\PIC-WEB-5-42-UEXT-full\Microchip\TCPIP Stack\SMTP.c
                  __pa_23   0x0030ca    program     static F:\PIC-web\c18\PIC-WEB-5-42-UEXT-full\Microchip\TCPIP Stack\TCP.c
                  __pa_23   0x00d96e    program     static F:\PIC-web\c18\PIC-WEB-5-42-UEXT-full\Microchip\TCPIP Stack\DHCP.c
                  __pa_24   0x005212    program     static F:\PIC-web\c18\PIC-WEB-5-42-UEXT-full\Microchip\TCPIP Stack\HTTP2.c
                  __pa_24   0x00b812    program     static F:\PIC-web\c18\PIC-WEB-5-42-UEXT-full\Microchip\TCPIP Stack\DHCPs.c
                  __pa_24   0x00a0d8    program     static F:\PIC-web\c18\PIC-WEB-5-42-UEXT-full\Microchip\TCPIP Stack\BerkeleyAPI.c
                  __pa_24   0x006f8e    program     static F:\PIC-web\c18\PIC-WEB-5-42-UEXT-full\TCPIP\Demo App\CustomHTTPApp.c
                  __pa_24   0x00d97c    program     static F:\PIC-web\c18\PIC-WEB-5-42-UEXT-full\Microchip\TCPIP Stack\DHCP.c
                  __pa_24   0x00817e    program     static F:\PIC-web\c18\PIC-WEB-5-42-UEXT-full\Microchip\TCPIP Stack\SMTP.c
                  __pa_24   0x0030d4    program     static F:\PIC-web\c18\PIC-WEB-5-42-UEXT-full\Microchip\TCPIP Stack\TCP.c
                  __pa_24   0x00ad10    program     static F:\PIC-web\c18\PIC-WEB-5-42-UEXT-full\Microchip\TCPIP Stack\MPFS2.c
                  __pa_25   0x00b81e    program     static F:\PIC-web\c18\PIC-WEB-5-42-UEXT-full\Microchip\TCPIP Stack\DHCPs.c
                  __pa_25   0x00d98e    program     static F:\PIC-web\c18\PIC-WEB-5-42-UEXT-full\Microchip\TCPIP Stack\DHCP.c
                  __pa_25   0x00a0e2    program     static F:\PIC-web\c18\PIC-WEB-5-42-UEXT-full\Microchip\TCPIP Stack\BerkeleyAPI.c
                  __pa_25   0x005220    program     static F:\PIC-web\c18\PIC-WEB-5-42-UEXT-full\Microchip\TCPIP Stack\HTTP2.c
                  __pa_25   0x0030e8    program     static F:\PIC-web\c18\PIC-WEB-5-42-UEXT-full\Microchip\TCPIP Stack\TCP.c
                  __pa_25   0x00ad1e    program     static F:\PIC-web\c18\PIC-WEB-5-42-UEXT-full\Microchip\TCPIP Stack\MPFS2.c
                  __pa_25   0x006f96    program     static F:\PIC-web\c18\PIC-WEB-5-42-UEXT-full\TCPIP\Demo App\CustomHTTPApp.c
                  __pa_25   0x008190    program     static F:\PIC-web\c18\PIC-WEB-5-42-UEXT-full\Microchip\TCPIP Stack\SMTP.c
                  __pa_26   0x00d998    program     static F:\PIC-web\c18\PIC-WEB-5-42-UEXT-full\Microchip\TCPIP Stack\DHCP.c
                  __pa_26   0x00522c    program     static F:\PIC-web\c18\PIC-WEB-5-42-UEXT-full\Microchip\TCPIP Stack\HTTP2.c
                  __pa_26   0x0081a2    program     static F:\PIC-web\c18\PIC-WEB-5-42-UEXT-full\Microchip\TCPIP Stack\SMTP.c
                  __pa_26   0x006f9e    program     static F:\PIC-web\c18\PIC-WEB-5-42-UEXT-full\TCPIP\Demo App\CustomHTTPApp.c
                  __pa_26   0x00a0ec    program     static F:\PIC-web\c18\PIC-WEB-5-42-UEXT-full\Microchip\TCPIP Stack\BerkeleyAPI.c
                  __pa_26   0x0030f8    program     static F:\PIC-web\c18\PIC-WEB-5-42-UEXT-full\Microchip\TCPIP Stack\TCP.c
                  __pa_26   0x00ad28    program     static F:\PIC-web\c18\PIC-WEB-5-42-UEXT-full\Microchip\TCPIP Stack\MPFS2.c
                  __pa_26   0x00b82a    program     static F:\PIC-web\c18\PIC-WEB-5-42-UEXT-full\Microchip\TCPIP Stack\DHCPs.c
                  __pa_27   0x003102    program     static F:\PIC-web\c18\PIC-WEB-5-42-UEXT-full\Microchip\TCPIP Stack\TCP.c
                  __pa_27   0x00d9a2    program     static F:\PIC-web\c18\PIC-WEB-5-42-UEXT-full\Microchip\TCPIP Stack\DHCP.c
                  __pa_27   0x005236    program     static F:\PIC-web\c18\PIC-WEB-5-42-UEXT-full\Microchip\TCPIP Stack\HTTP2.c
                  __pa_27   0x006fa4    program     static F:\PIC-web\c18\PIC-WEB-5-42-UEXT-full\TCPIP\Demo App\CustomHTTPApp.c
                  __pa_27   0x0081ae    program     static F:\PIC-web\c18\PIC-WEB-5-42-UEXT-full\Microchip\TCPIP Stack\SMTP.c
                  __pa_27   0x00a0f6    program     static F:\PIC-web\c18\PIC-WEB-5-42-UEXT-full\Microchip\TCPIP Stack\BerkeleyAPI.c
                  __pa_27   0x00ad30    program     static F:\PIC-web\c18\PIC-WEB-5-42-UEXT-full\Microchip\TCPIP Stack\MPFS2.c
                  __pa_27   0x00b834    program     static F:\PIC-web\c18\PIC-WEB-5-42-UEXT-full\Microchip\TCPIP Stack\DHCPs.c
                  __pa_28   0x006fb6    program     static F:\PIC-web\c18\PIC-WEB-5-42-UEXT-full\TCPIP\Demo App\CustomHTTPApp.c
                  __pa_28   0x00b840    program     static F:\PIC-web\c18\PIC-WEB-5-42-UEXT-full\Microchip\TCPIP Stack\DHCPs.c
                  __pa_28   0x00ad36    program     static F:\PIC-web\c18\PIC-WEB-5-42-UEXT-full\Microchip\TCPIP Stack\MPFS2.c
                  __pa_28   0x00a0fe    program     static F:\PIC-web\c18\PIC-WEB-5-42-UEXT-full\Microchip\TCPIP Stack\BerkeleyAPI.c
                  __pa_28   0x00d9a8    program     static F:\PIC-web\c18\PIC-WEB-5-42-UEXT-full\Microchip\TCPIP Stack\DHCP.c
                  __pa_28   0x0081b8    program     static F:\PIC-web\c18\PIC-WEB-5-42-UEXT-full\Microchip\TCPIP Stack\SMTP.c
                  __pa_28   0x003114    program     static F:\PIC-web\c18\PIC-WEB-5-42-UEXT-full\Microchip\TCPIP Stack\TCP.c
                  __pa_28   0x00524a    program     static F:\PIC-web\c18\PIC-WEB-5-42-UEXT-full\Microchip\TCPIP Stack\HTTP2.c
                  __pa_29   0x00ad3c    program     static F:\PIC-web\c18\PIC-WEB-5-42-UEXT-full\Microchip\TCPIP Stack\MPFS2.c
                  __pa_29   0x00a104    program     static F:\PIC-web\c18\PIC-WEB-5-42-UEXT-full\Microchip\TCPIP Stack\BerkeleyAPI.c
                  __pa_29   0x00312e    program     static F:\PIC-web\c18\PIC-WEB-5-42-UEXT-full\Microchip\TCPIP Stack\TCP.c
                  __pa_29   0x00b84e    program     static F:\PIC-web\c18\PIC-WEB-5-42-UEXT-full\Microchip\TCPIP Stack\DHCPs.c
                  __pa_29   0x0081c2    program     static F:\PIC-web\c18\PIC-WEB-5-42-UEXT-full\Microchip\TCPIP Stack\SMTP.c
                  __pa_29   0x00d9b4    program     static F:\PIC-web\c18\PIC-WEB-5-42-UEXT-full\Microchip\TCPIP Stack\DHCP.c
                  __pa_29   0x005258    program     static F:\PIC-web\c18\PIC-WEB-5-42-UEXT-full\Microchip\TCPIP Stack\HTTP2.c
                  __pa_29   0x006fc2    program     static F:\PIC-web\c18\PIC-WEB-5-42-UEXT-full\TCPIP\Demo App\CustomHTTPApp.c
                   __pa_3   0x0126e8    program     static F:\PIC-web\c18\PIC-WEB-5-42-UEXT-full\TCPIP\Demo App\Olimex_Demo_Files\Misc_Functions.c
                   __pa_3   0x002f06    program     static F:\PIC-web\c18\PIC-WEB-5-42-UEXT-full\Microchip\TCPIP Stack\TCP.c
                   __pa_3   0x00b6be    program     static F:\PIC-web\c18\PIC-WEB-5-42-UEXT-full\Microchip\TCPIP Stack\DHCPs.c
                   __pa_3   0x00ea40    program     static F:\PIC-web\c18\PIC-WEB-5-42-UEXT-full\Microchip\TCPIP Stack\ETH97J60.c
                   __pa_3   0x00c404    program     static F:\PIC-web\c18\PIC-WEB-5-42-UEXT-full\Microchip\TCPIP Stack\UDP.c
                   __pa_3   0x0050ac    program     static F:\PIC-web\c18\PIC-WEB-5-42-UEXT-full\Microchip\TCPIP Stack\HTTP2.c
                   __pa_3   0x01511a    program     static E:\3.46\pic18-lt\cxx-framework\src\traditional\stdclib\PackMath.c
                   __pa_3   0x012e40    program     static F:\PIC-web\c18\PIC-WEB-5-42-UEXT-full\Microchip\TCPIP Stack\SPIFlash.c
                   __pa_3   0x013862    program     static F:\PIC-web\c18\PIC-WEB-5-42-UEXT-full\Microchip\TCPIP Stack\SNTP.c
                   __pa_3   0x00e12a    program     static F:\PIC-web\c18\PIC-WEB-5-42-UEXT-full\Microchip\TCPIP Stack\Hashes.c
                   __pa_3   0x010d70    program     static F:\PIC-web\c18\PIC-WEB-5-42-UEXT-full\Microchip\TCPIP Stack\TCPPerformanceTest.c
                   __pa_3   0x006e60    program     static F:\PIC-web\c18\PIC-WEB-5-42-UEXT-full\TCPIP\Demo App\CustomHTTPApp.c
                   __pa_3   0x01070e    program     static F:\PIC-web\c18\PIC-WEB-5-42-UEXT-full\Microchip\TCPIP Stack\Telnet.c
                   __pa_3   0x013572    program     static F:\PIC-web\c18\PIC-WEB-5-42-UEXT-full\Microchip\TCPIP Stack\NBNS.c
                   __pa_3   0x00fd12    program     static F:\PIC-web\c18\PIC-WEB-5-42-UEXT-full\TCPIP\Demo App\MainDemo.c
                   __pa_3   0x014f04    program     static F:\PIC-web\c18\PIC-WEB-5-42-UEXT-full\TCPIP\Demo App\Olimex_Demo_Files\Custom_I2C.c
                   __pa_3   0x009fba    program     static F:\PIC-web\c18\PIC-WEB-5-42-UEXT-full\Microchip\TCPIP Stack\BerkeleyAPI.c
                   __pa_3   0x007fe8    program     static F:\PIC-web\c18\PIC-WEB-5-42-UEXT-full\Microchip\TCPIP Stack\SMTP.c
                   __pa_3   0x00f6e8    program     static F:\PIC-web\c18\PIC-WEB-5-42-UEXT-full\Microchip\TCPIP Stack\AutoIP.c
                   __pa_3   0x011be6    program     static F:\PIC-web\c18\PIC-WEB-5-42-UEXT-full\TCPIP\Demo App\UARTConfig.c
                   __pa_3   0x00cfe0    program     static F:\PIC-web\c18\PIC-WEB-5-42-UEXT-full\Microchip\TCPIP Stack\Helpers.c
                   __pa_3   0x012b06    program     static F:\PIC-web\c18\PIC-WEB-5-42-UEXT-full\TCPIP\Demo App\BerkeleyUDPClientDemo.c
                   __pa_3   0x00ab9e    program     static F:\PIC-web\c18\PIC-WEB-5-42-UEXT-full\Microchip\TCPIP Stack\MPFS2.c
                   __pa_3   0x01458a    program     static F:\PIC-web\c18\PIC-WEB-5-42-UEXT-full\Microchip\TCPIP Stack\Announce.c
                   __pa_3   0x01117e    program     static E:\3.46\pic18-lt\cxx-framework\src\traditional\stdclib\log.c
                   __pa_3   0x00d7e2    program     static F:\PIC-web\c18\PIC-WEB-5-42-UEXT-full\Microchip\TCPIP Stack\DHCP.c
                   __pa_3   0x0141f4    program     static F:\PIC-web\c18\PIC-WEB-5-42-UEXT-full\TCPIP\Demo App\GenericTCPClient.c
                   __pa_3   0x012030    program     static F:\PIC-web\c18\PIC-WEB-5-42-UEXT-full\Microchip\TCPIP Stack\ARP.c
                   __pa_3   0x0131fe    program     static F:\PIC-web\c18\PIC-WEB-5-42-UEXT-full\Microchip\TCPIP Stack\ICMP.c
                   __pa_3   0x00f076    program     static F:\PIC-web\c18\PIC-WEB-5-42-UEXT-full\Microchip\TCPIP Stack\DNS.c
                  __pa_30   0x00d9be    program     static F:\PIC-web\c18\PIC-WEB-5-42-UEXT-full\Microchip\TCPIP Stack\DHCP.c
                  __pa_30   0x003144    program     static F:\PIC-web\c18\PIC-WEB-5-42-UEXT-full\Microchip\TCPIP Stack\TCP.c
                  __pa_30   0x005266    program     static F:\PIC-web\c18\PIC-WEB-5-42-UEXT-full\Microchip\TCPIP Stack\HTTP2.c
                  __pa_30   0x0081d2    program     static F:\PIC-web\c18\PIC-WEB-5-42-UEXT-full\Microchip\TCPIP Stack\SMTP.c
                  __pa_30   0x00b85c    program     static F:\PIC-web\c18\PIC-WEB-5-42-UEXT-full\Microchip\TCPIP Stack\DHCPs.c
                  __pa_30   0x006fd2    program     static F:\PIC-web\c18\PIC-WEB-5-42-UEXT-full\TCPIP\Demo App\CustomHTTPApp.c
                  __pa_30   0x00a110    program     static F:\PIC-web\c18\PIC-WEB-5-42-UEXT-full\Microchip\TCPIP Stack\BerkeleyAPI.c
                  __pa_30   0x00ad56    program     static F:\PIC-web\c18\PIC-WEB-5-42-UEXT-full\Microchip\TCPIP Stack\MPFS2.c
                  __pa_31   0x00ad60    program     static F:\PIC-web\c18\PIC-WEB-5-42-UEXT-full\Microchip\TCPIP Stack\MPFS2.c
                  __pa_31   0x005270    program     static F:\PIC-web\c18\PIC-WEB-5-42-UEXT-full\Microchip\TCPIP Stack\HTTP2.c
                  __pa_31   0x00d9cc    program     static F:\PIC-web\c18\PIC-WEB-5-42-UEXT-full\Microchip\TCPIP Stack\DHCP.c
                  __pa_31   0x006fe2    program     static F:\PIC-web\c18\PIC-WEB-5-42-UEXT-full\TCPIP\Demo App\CustomHTTPApp.c
                  __pa_31   0x0081e2    program     static F:\PIC-web\c18\PIC-WEB-5-42-UEXT-full\Microchip\TCPIP Stack\SMTP.c
                  __pa_31   0x00a11c    program     static F:\PIC-web\c18\PIC-WEB-5-42-UEXT-full\Microchip\TCPIP Stack\BerkeleyAPI.c
                  __pa_31   0x003162    program     static F:\PIC-web\c18\PIC-WEB-5-42-UEXT-full\Microchip\TCPIP Stack\TCP.c
                  __pa_31   0x00b868    program     static F:\PIC-web\c18\PIC-WEB-5-42-UEXT-full\Microchip\TCPIP Stack\DHCPs.c
                  __pa_32   0x00a122    program     static F:\PIC-web\c18\PIC-WEB-5-42-UEXT-full\Microchip\TCPIP Stack\BerkeleyAPI.c
                  __pa_32   0x00ad6c    program     static F:\PIC-web\c18\PIC-WEB-5-42-UEXT-full\Microchip\TCPIP Stack\MPFS2.c
                  __pa_32   0x0081f0    program     static F:\PIC-web\c18\PIC-WEB-5-42-UEXT-full\Microchip\TCPIP Stack\SMTP.c
                  __pa_32   0x006ff2    program     static F:\PIC-web\c18\PIC-WEB-5-42-UEXT-full\TCPIP\Demo App\CustomHTTPApp.c
                  __pa_32   0x005284    program     static F:\PIC-web\c18\PIC-WEB-5-42-UEXT-full\Microchip\TCPIP Stack\HTTP2.c
                  __pa_32   0x003182    program     static F:\PIC-web\c18\PIC-WEB-5-42-UEXT-full\Microchip\TCPIP Stack\TCP.c
                  __pa_32   0x00b86e    program     static F:\PIC-web\c18\PIC-WEB-5-42-UEXT-full\Microchip\TCPIP Stack\DHCPs.c
                  __pa_33   0x006ffa    program     static F:\PIC-web\c18\PIC-WEB-5-42-UEXT-full\TCPIP\Demo App\CustomHTTPApp.c
                  __pa_33   0x00528a    program     static F:\PIC-web\c18\PIC-WEB-5-42-UEXT-full\Microchip\TCPIP Stack\HTTP2.c
                  __pa_33   0x00ad78    program     static F:\PIC-web\c18\PIC-WEB-5-42-UEXT-full\Microchip\TCPIP Stack\MPFS2.c
                  __pa_33   0x0081fe    program     static F:\PIC-web\c18\PIC-WEB-5-42-UEXT-full\Microchip\TCPIP Stack\SMTP.c
                  __pa_33   0x00b87a    program     static F:\PIC-web\c18\PIC-WEB-5-42-UEXT-full\Microchip\TCPIP Stack\DHCPs.c
                  __pa_33   0x00318e    program     static F:\PIC-web\c18\PIC-WEB-5-42-UEXT-full\Microchip\TCPIP Stack\TCP.c
                  __pa_33   0x00a134    program     static F:\PIC-web\c18\PIC-WEB-5-42-UEXT-full\Microchip\TCPIP Stack\BerkeleyAPI.c
                  __pa_34   0x0031aa    program     static F:\PIC-web\c18\PIC-WEB-5-42-UEXT-full\Microchip\TCPIP Stack\TCP.c
                  __pa_34   0x00529e    program     static F:\PIC-web\c18\PIC-WEB-5-42-UEXT-full\Microchip\TCPIP Stack\HTTP2.c
                  __pa_34   0x00820c    program     static F:\PIC-web\c18\PIC-WEB-5-42-UEXT-full\Microchip\TCPIP Stack\SMTP.c
                  __pa_34   0x00ad84    program     static F:\PIC-web\c18\PIC-WEB-5-42-UEXT-full\Microchip\TCPIP Stack\MPFS2.c
                  __pa_34   0x00a14a    program     static F:\PIC-web\c18\PIC-WEB-5-42-UEXT-full\Microchip\TCPIP Stack\BerkeleyAPI.c
                  __pa_34   0x00b880    program     static F:\PIC-web\c18\PIC-WEB-5-42-UEXT-full\Microchip\TCPIP Stack\DHCPs.c
                  __pa_34   0x007008    program     static F:\PIC-web\c18\PIC-WEB-5-42-UEXT-full\TCPIP\Demo App\CustomHTTPApp.c
                  __pa_35   0x008218    program     static F:\PIC-web\c18\PIC-WEB-5-42-UEXT-full\Microchip\TCPIP Stack\SMTP.c
                  __pa_35   0x0052b2    program     static F:\PIC-web\c18\PIC-WEB-5-42-UEXT-full\Microchip\TCPIP Stack\HTTP2.c
                  __pa_35   0x00b890    program     static F:\PIC-web\c18\PIC-WEB-5-42-UEXT-full\Microchip\TCPIP Stack\DHCPs.c
                  __pa_35   0x00a15a    program     static F:\PIC-web\c18\PIC-WEB-5-42-UEXT-full\Microchip\TCPIP Stack\BerkeleyAPI.c
                  __pa_35   0x0031c8    program     static F:\PIC-web\c18\PIC-WEB-5-42-UEXT-full\Microchip\TCPIP Stack\TCP.c
                  __pa_35   0x007012    program     static F:\PIC-web\c18\PIC-WEB-5-42-UEXT-full\TCPIP\Demo App\CustomHTTPApp.c
                  __pa_35   0x00ad8e    program     static F:\PIC-web\c18\PIC-WEB-5-42-UEXT-full\Microchip\TCPIP Stack\MPFS2.c
                  __pa_36   0x008222    program     static F:\PIC-web\c18\PIC-WEB-5-42-UEXT-full\Microchip\TCPIP Stack\SMTP.c
                  __pa_36   0x00b89a    program     static F:\PIC-web\c18\PIC-WEB-5-42-UEXT-full\Microchip\TCPIP Stack\DHCPs.c
                  __pa_36   0x00ad94    program     static F:\PIC-web\c18\PIC-WEB-5-42-UEXT-full\Microchip\TCPIP Stack\MPFS2.c
                  __pa_36   0x0052c4    program     static F:\PIC-web\c18\PIC-WEB-5-42-UEXT-full\Microchip\TCPIP Stack\HTTP2.c
                  __pa_36   0x00a162    program     static F:\PIC-web\c18\PIC-WEB-5-42-UEXT-full\Microchip\TCPIP Stack\BerkeleyAPI.c
                  __pa_36   0x00701a    program     static F:\PIC-web\c18\PIC-WEB-5-42-UEXT-full\TCPIP\Demo App\CustomHTTPApp.c
                  __pa_36   0x0031dc    program     static F:\PIC-web\c18\PIC-WEB-5-42-UEXT-full\Microchip\TCPIP Stack\TCP.c
                  __pa_37   0x00b8a2    program     static F:\PIC-web\c18\PIC-WEB-5-42-UEXT-full\Microchip\TCPIP Stack\DHCPs.c
                  __pa_37   0x007026    program     static F:\PIC-web\c18\PIC-WEB-5-42-UEXT-full\TCPIP\Demo App\CustomHTTPApp.c
                  __pa_37   0x00822c    program     static F:\PIC-web\c18\PIC-WEB-5-42-UEXT-full\Microchip\TCPIP Stack\SMTP.c
                  __pa_37   0x00ad9a    program     static F:\PIC-web\c18\PIC-WEB-5-42-UEXT-full\Microchip\TCPIP Stack\MPFS2.c
                  __pa_37   0x0031e2    program     static F:\PIC-web\c18\PIC-WEB-5-42-UEXT-full\Microchip\TCPIP Stack\TCP.c
                  __pa_37   0x0052d8    program     static F:\PIC-web\c18\PIC-WEB-5-42-UEXT-full\Microchip\TCPIP Stack\HTTP2.c
                  __pa_37   0x00a170    program     static F:\PIC-web\c18\PIC-WEB-5-42-UEXT-full\Microchip\TCPIP Stack\BerkeleyAPI.c
                  __pa_38   0x00ada4    program     static F:\PIC-web\c18\PIC-WEB-5-42-UEXT-full\Microchip\TCPIP Stack\MPFS2.c
                  __pa_38   0x003200    program     static F:\PIC-web\c18\PIC-WEB-5-42-UEXT-full\Microchip\TCPIP Stack\TCP.c
                  __pa_38   0x0052e8    program     static F:\PIC-web\c18\PIC-WEB-5-42-UEXT-full\Microchip\TCPIP Stack\HTTP2.c
                  __pa_38   0x00b8ac    program     static F:\PIC-web\c18\PIC-WEB-5-42-UEXT-full\Microchip\TCPIP Stack\DHCPs.c
                  __pa_38   0x008232    program     static F:\PIC-web\c18\PIC-WEB-5-42-UEXT-full\Microchip\TCPIP Stack\SMTP.c
                  __pa_38   0x00702e    program     static F:\PIC-web\c18\PIC-WEB-5-42-UEXT-full\TCPIP\Demo App\CustomHTTPApp.c
                  __pa_38   0x00a178    program     static F:\PIC-web\c18\PIC-WEB-5-42-UEXT-full\Microchip\TCPIP Stack\BerkeleyAPI.c
                  __pa_39   0x0052fa    program     static F:\PIC-web\c18\PIC-WEB-5-42-UEXT-full\Microchip\TCPIP Stack\HTTP2.c
                  __pa_39   0x00703a    program     static F:\PIC-web\c18\PIC-WEB-5-42-UEXT-full\TCPIP\Demo App\CustomHTTPApp.c
                  __pa_39   0x00823e    program     static F:\PIC-web\c18\PIC-WEB-5-42-UEXT-full\Microchip\TCPIP Stack\SMTP.c
                  __pa_39   0x00a188    program     static F:\PIC-web\c18\PIC-WEB-5-42-UEXT-full\Microchip\TCPIP Stack\BerkeleyAPI.c
                  __pa_39   0x00adaa    program     static F:\PIC-web\c18\PIC-WEB-5-42-UEXT-full\Microchip\TCPIP Stack\MPFS2.c
                  __pa_39   0x003208    program     static F:\PIC-web\c18\PIC-WEB-5-42-UEXT-full\Microchip\TCPIP Stack\TCP.c
                  __pa_39   0x00b8b2    program     static F:\PIC-web\c18\PIC-WEB-5-42-UEXT-full\Microchip\TCPIP Stack\DHCPs.c
                   __pa_4   0x00c41a    program     static F:\PIC-web\c18\PIC-WEB-5-42-UEXT-full\Microchip\TCPIP Stack\UDP.c
                   __pa_4   0x011bee    program     static F:\PIC-web\c18\PIC-WEB-5-42-UEXT-full\TCPIP\Demo App\UARTConfig.c
                   __pa_4   0x00d7ec    program     static F:\PIC-web\c18\PIC-WEB-5-42-UEXT-full\Microchip\TCPIP Stack\DHCP.c
                   __pa_4   0x00aba8    program     static F:\PIC-web\c18\PIC-WEB-5-42-UEXT-full\Microchip\TCPIP Stack\MPFS2.c
                   __pa_4   0x00ea52    program     static F:\PIC-web\c18\PIC-WEB-5-42-UEXT-full\Microchip\TCPIP Stack\ETH97J60.c
                   __pa_4   0x013578    program     static F:\PIC-web\c18\PIC-WEB-5-42-UEXT-full\Microchip\TCPIP Stack\NBNS.c
                   __pa_4   0x00f6fe    program     static F:\PIC-web\c18\PIC-WEB-5-42-UEXT-full\Microchip\TCPIP Stack\AutoIP.c
                   __pa_4   0x015128    program     static E:\3.46\pic18-lt\cxx-framework\src\traditional\stdclib\PackMath.c
                   __pa_4   0x012038    program     static F:\PIC-web\c18\PIC-WEB-5-42-UEXT-full\Microchip\TCPIP Stack\ARP.c
                   __pa_4   0x01459e    program     static F:\PIC-web\c18\PIC-WEB-5-42-UEXT-full\Microchip\TCPIP Stack\Announce.c
                   __pa_4   0x00e136    program     static F:\PIC-web\c18\PIC-WEB-5-42-UEXT-full\Microchip\TCPIP Stack\Hashes.c
                   __pa_4   0x01320c    program     static F:\PIC-web\c18\PIC-WEB-5-42-UEXT-full\Microchip\TCPIP Stack\ICMP.c
                   __pa_4   0x00f08c    program     static F:\PIC-web\c18\PIC-WEB-5-42-UEXT-full\Microchip\TCPIP Stack\DNS.c
                   __pa_4   0x008006    program     static F:\PIC-web\c18\PIC-WEB-5-42-UEXT-full\Microchip\TCPIP Stack\SMTP.c
                   __pa_4   0x010718    program     static F:\PIC-web\c18\PIC-WEB-5-42-UEXT-full\Microchip\TCPIP Stack\Telnet.c
                   __pa_4   0x006e66    program     static F:\PIC-web\c18\PIC-WEB-5-42-UEXT-full\TCPIP\Demo App\CustomHTTPApp.c
                   __pa_4   0x009fcc    program     static F:\PIC-web\c18\PIC-WEB-5-42-UEXT-full\Microchip\TCPIP Stack\BerkeleyAPI.c
                   __pa_4   0x012e60    program     static F:\PIC-web\c18\PIC-WEB-5-42-UEXT-full\Microchip\TCPIP Stack\SPIFlash.c
                   __pa_4   0x0050b6    program     static F:\PIC-web\c18\PIC-WEB-5-42-UEXT-full\Microchip\TCPIP Stack\HTTP2.c
                   __pa_4   0x01270a    program     static F:\PIC-web\c18\PIC-WEB-5-42-UEXT-full\TCPIP\Demo App\Olimex_Demo_Files\Misc_Functions.c
                   __pa_4   0x002f1c    program     static F:\PIC-web\c18\PIC-WEB-5-42-UEXT-full\Microchip\TCPIP Stack\TCP.c
                   __pa_4   0x00b6c6    program     static F:\PIC-web\c18\PIC-WEB-5-42-UEXT-full\Microchip\TCPIP Stack\DHCPs.c
                   __pa_4   0x011184    program     static E:\3.46\pic18-lt\cxx-framework\src\traditional\stdclib\log.c
                   __pa_4   0x00cff4    program     static F:\PIC-web\c18\PIC-WEB-5-42-UEXT-full\Microchip\TCPIP Stack\Helpers.c
                  __pa_40   0x003216    program     static F:\PIC-web\c18\PIC-WEB-5-42-UEXT-full\Microchip\TCPIP Stack\TCP.c
                  __pa_40   0x005304    program     static F:\PIC-web\c18\PIC-WEB-5-42-UEXT-full\Microchip\TCPIP Stack\HTTP2.c
                  __pa_40   0x00b8be    program     static F:\PIC-web\c18\PIC-WEB-5-42-UEXT-full\Microchip\TCPIP Stack\DHCPs.c
                  __pa_40   0x00704c    program     static F:\PIC-web\c18\PIC-WEB-5-42-UEXT-full\TCPIP\Demo App\CustomHTTPApp.c
                  __pa_40   0x00a18e    program     static F:\PIC-web\c18\PIC-WEB-5-42-UEXT-full\Microchip\TCPIP Stack\BerkeleyAPI.c
                  __pa_40   0x00824a    program     static F:\PIC-web\c18\PIC-WEB-5-42-UEXT-full\Microchip\TCPIP Stack\SMTP.c
                  __pa_40   0x00adb4    program     static F:\PIC-web\c18\PIC-WEB-5-42-UEXT-full\Microchip\TCPIP Stack\MPFS2.c
                  __pa_41   0x00321c    program     static F:\PIC-web\c18\PIC-WEB-5-42-UEXT-full\Microchip\TCPIP Stack\TCP.c
                  __pa_41   0x00b8ca    program     static F:\PIC-web\c18\PIC-WEB-5-42-UEXT-full\Microchip\TCPIP Stack\DHCPs.c
                  __pa_41   0x007060    program     static F:\PIC-web\c18\PIC-WEB-5-42-UEXT-full\TCPIP\Demo App\CustomHTTPApp.c
                  __pa_41   0x008256    program     static F:\PIC-web\c18\PIC-WEB-5-42-UEXT-full\Microchip\TCPIP Stack\SMTP.c
                  __pa_41   0x00a19a    program     static F:\PIC-web\c18\PIC-WEB-5-42-UEXT-full\Microchip\TCPIP Stack\BerkeleyAPI.c
                  __pa_41   0x00530e    program     static F:\PIC-web\c18\PIC-WEB-5-42-UEXT-full\Microchip\TCPIP Stack\HTTP2.c
                  __pa_42   0x003232    program     static F:\PIC-web\c18\PIC-WEB-5-42-UEXT-full\Microchip\TCPIP Stack\TCP.c
                  __pa_42   0x00a1a8    program     static F:\PIC-web\c18\PIC-WEB-5-42-UEXT-full\Microchip\TCPIP Stack\BerkeleyAPI.c
                  __pa_42   0x00b8d6    program     static F:\PIC-web\c18\PIC-WEB-5-42-UEXT-full\Microchip\TCPIP Stack\DHCPs.c
                  __pa_42   0x00825e    program     static F:\PIC-web\c18\PIC-WEB-5-42-UEXT-full\Microchip\TCPIP Stack\SMTP.c
                  __pa_42   0x00706a    program     static F:\PIC-web\c18\PIC-WEB-5-42-UEXT-full\TCPIP\Demo App\CustomHTTPApp.c
                  __pa_42   0x00531a    program     static F:\PIC-web\c18\PIC-WEB-5-42-UEXT-full\Microchip\TCPIP Stack\HTTP2.c
                  __pa_43   0x003240    program     static F:\PIC-web\c18\PIC-WEB-5-42-UEXT-full\Microchip\TCPIP Stack\TCP.c
                  __pa_43   0x007070    program     static F:\PIC-web\c18\PIC-WEB-5-42-UEXT-full\TCPIP\Demo App\CustomHTTPApp.c
                  __pa_43   0x008264    program     static F:\PIC-web\c18\PIC-WEB-5-42-UEXT-full\Microchip\TCPIP Stack\SMTP.c
                  __pa_43   0x005324    program     static F:\PIC-web\c18\PIC-WEB-5-42-UEXT-full\Microchip\TCPIP Stack\HTTP2.c
                  __pa_43   0x00a1b0    program     static F:\PIC-web\c18\PIC-WEB-5-42-UEXT-full\Microchip\TCPIP Stack\BerkeleyAPI.c
                  __pa_43   0x00b8e4    program     static F:\PIC-web\c18\PIC-WEB-5-42-UEXT-full\Microchip\TCPIP Stack\DHCPs.c
                  __pa_44   0x003258    program     static F:\PIC-web\c18\PIC-WEB-5-42-UEXT-full\Microchip\TCPIP Stack\TCP.c
                  __pa_44   0x00a1b6    program     static F:\PIC-web\c18\PIC-WEB-5-42-UEXT-full\Microchip\TCPIP Stack\BerkeleyAPI.c
                  __pa_44   0x00b8f0    program     static F:\PIC-web\c18\PIC-WEB-5-42-UEXT-full\Microchip\TCPIP Stack\DHCPs.c
                  __pa_44   0x00532e    program     static F:\PIC-web\c18\PIC-WEB-5-42-UEXT-full\Microchip\TCPIP Stack\HTTP2.c
                  __pa_44   0x00826c    program     static F:\PIC-web\c18\PIC-WEB-5-42-UEXT-full\Microchip\TCPIP Stack\SMTP.c
                  __pa_44   0x007088    program     static F:\PIC-web\c18\PIC-WEB-5-42-UEXT-full\TCPIP\Demo App\CustomHTTPApp.c
                  __pa_45   0x003272    program     static F:\PIC-web\c18\PIC-WEB-5-42-UEXT-full\Microchip\TCPIP Stack\TCP.c
                  __pa_45   0x00b8fc    program     static F:\PIC-web\c18\PIC-WEB-5-42-UEXT-full\Microchip\TCPIP Stack\DHCPs.c
                  __pa_45   0x00708e    program     static F:\PIC-web\c18\PIC-WEB-5-42-UEXT-full\TCPIP\Demo App\CustomHTTPApp.c
                  __pa_45   0x00533a    program     static F:\PIC-web\c18\PIC-WEB-5-42-UEXT-full\Microchip\TCPIP Stack\HTTP2.c
                  __pa_45   0x00a1c0    program     static F:\PIC-web\c18\PIC-WEB-5-42-UEXT-full\Microchip\TCPIP Stack\BerkeleyAPI.c
                  __pa_46   0x005348    program     static F:\PIC-web\c18\PIC-WEB-5-42-UEXT-full\Microchip\TCPIP Stack\HTTP2.c
                  __pa_46   0x00709e    program     static F:\PIC-web\c18\PIC-WEB-5-42-UEXT-full\TCPIP\Demo App\CustomHTTPApp.c
                  __pa_46   0x00a1cc    program     static F:\PIC-web\c18\PIC-WEB-5-42-UEXT-full\Microchip\TCPIP Stack\BerkeleyAPI.c
                  __pa_46   0x00b904    program     static F:\PIC-web\c18\PIC-WEB-5-42-UEXT-full\Microchip\TCPIP Stack\DHCPs.c
                  __pa_46   0x00328c    program     static F:\PIC-web\c18\PIC-WEB-5-42-UEXT-full\Microchip\TCPIP Stack\TCP.c
                  __pa_47   0x0070aa    program     static F:\PIC-web\c18\PIC-WEB-5-42-UEXT-full\TCPIP\Demo App\CustomHTTPApp.c
                  __pa_47   0x005356    program     static F:\PIC-web\c18\PIC-WEB-5-42-UEXT-full\Microchip\TCPIP Stack\HTTP2.c
                  __pa_47   0x00a1d2    program     static F:\PIC-web\c18\PIC-WEB-5-42-UEXT-full\Microchip\TCPIP Stack\BerkeleyAPI.c
                  __pa_47   0x00b90e    program     static F:\PIC-web\c18\PIC-WEB-5-42-UEXT-full\Microchip\TCPIP Stack\DHCPs.c
                  __pa_47   0x00329a    program     static F:\PIC-web\c18\PIC-WEB-5-42-UEXT-full\Microchip\TCPIP Stack\TCP.c
                  __pa_48   0x00b926    program     static F:\PIC-web\c18\PIC-WEB-5-42-UEXT-full\Microchip\TCPIP Stack\DHCPs.c
                  __pa_48   0x0070b8    program     static F:\PIC-web\c18\PIC-WEB-5-42-UEXT-full\TCPIP\Demo App\CustomHTTPApp.c
                  __pa_48   0x0032aa    program     static F:\PIC-web\c18\PIC-WEB-5-42-UEXT-full\Microchip\TCPIP Stack\TCP.c
                  __pa_48   0x00a1d8    program     static F:\PIC-web\c18\PIC-WEB-5-42-UEXT-full\Microchip\TCPIP Stack\BerkeleyAPI.c
                  __pa_48   0x005364    program     static F:\PIC-web\c18\PIC-WEB-5-42-UEXT-full\Microchip\TCPIP Stack\HTTP2.c
                  __pa_49   0x0070c8    program     static F:\PIC-web\c18\PIC-WEB-5-42-UEXT-full\TCPIP\Demo App\CustomHTTPApp.c
                  __pa_49   0x00b92c    program     static F:\PIC-web\c18\PIC-WEB-5-42-UEXT-full\Microchip\TCPIP Stack\DHCPs.c
                  __pa_49   0x0032b4    program     static F:\PIC-web\c18\PIC-WEB-5-42-UEXT-full\Microchip\TCPIP Stack\TCP.c
                  __pa_49   0x00536e    program     static F:\PIC-web\c18\PIC-WEB-5-42-UEXT-full\Microchip\TCPIP Stack\HTTP2.c
                  __pa_49   0x00a1de    program     static F:\PIC-web\c18\PIC-WEB-5-42-UEXT-full\Microchip\TCPIP Stack\BerkeleyAPI.c
                   __pa_5   0x00f098    program     static F:\PIC-web\c18\PIC-WEB-5-42-UEXT-full\Microchip\TCPIP Stack\DNS.c
                   __pa_5   0x0145ac    program     static F:\PIC-web\c18\PIC-WEB-5-42-UEXT-full\Microchip\TCPIP Stack\Announce.c
                   __pa_5   0x00f720    program     static F:\PIC-web\c18\PIC-WEB-5-42-UEXT-full\Microchip\TCPIP Stack\AutoIP.c
                   __pa_5   0x00b6fe    program     static F:\PIC-web\c18\PIC-WEB-5-42-UEXT-full\Microchip\TCPIP Stack\DHCPs.c
                   __pa_5   0x01118e    program     static E:\3.46\pic18-lt\cxx-framework\src\traditional\stdclib\log.c
                   __pa_5   0x00d002    program     static F:\PIC-web\c18\PIC-WEB-5-42-UEXT-full\Microchip\TCPIP Stack\Helpers.c
                   __pa_5   0x00d824    program     static F:\PIC-web\c18\PIC-WEB-5-42-UEXT-full\Microchip\TCPIP Stack\DHCP.c
                   __pa_5   0x002f48    program     static F:\PIC-web\c18\PIC-WEB-5-42-UEXT-full\Microchip\TCPIP Stack\TCP.c
                   __pa_5   0x00ea62    program     static F:\PIC-web\c18\PIC-WEB-5-42-UEXT-full\Microchip\TCPIP Stack\ETH97J60.c
                   __pa_5   0x015130    program     static E:\3.46\pic18-lt\cxx-framework\src\traditional\stdclib\PackMath.c
                   __pa_5   0x012728    program     static F:\PIC-web\c18\PIC-WEB-5-42-UEXT-full\TCPIP\Demo App\Olimex_Demo_Files\Misc_Functions.c
                   __pa_5   0x0050bc    program     static F:\PIC-web\c18\PIC-WEB-5-42-UEXT-full\Microchip\TCPIP Stack\HTTP2.c
                   __pa_5   0x011c00    program     static F:\PIC-web\c18\PIC-WEB-5-42-UEXT-full\TCPIP\Demo App\UARTConfig.c
                   __pa_5   0x00c424    program     static F:\PIC-web\c18\PIC-WEB-5-42-UEXT-full\Microchip\TCPIP Stack\UDP.c
                   __pa_5   0x00abba    program     static F:\PIC-web\c18\PIC-WEB-5-42-UEXT-full\Microchip\TCPIP Stack\MPFS2.c
                   __pa_5   0x012e6c    program     static F:\PIC-web\c18\PIC-WEB-5-42-UEXT-full\Microchip\TCPIP Stack\SPIFlash.c
                   __pa_5   0x009fd6    program     static F:\PIC-web\c18\PIC-WEB-5-42-UEXT-full\Microchip\TCPIP Stack\BerkeleyAPI.c
                   __pa_5   0x01358a    program     static F:\PIC-web\c18\PIC-WEB-5-42-UEXT-full\Microchip\TCPIP Stack\NBNS.c
                   __pa_5   0x00e140    program     static F:\PIC-web\c18\PIC-WEB-5-42-UEXT-full\Microchip\TCPIP Stack\Hashes.c
                   __pa_5   0x006e6e    program     static F:\PIC-web\c18\PIC-WEB-5-42-UEXT-full\TCPIP\Demo App\CustomHTTPApp.c
                   __pa_5   0x010744    program     static F:\PIC-web\c18\PIC-WEB-5-42-UEXT-full\Microchip\TCPIP Stack\Telnet.c
                   __pa_5   0x008018    program     static F:\PIC-web\c18\PIC-WEB-5-42-UEXT-full\Microchip\TCPIP Stack\SMTP.c
                  __pa_50   0x0032be    program     static F:\PIC-web\c18\PIC-WEB-5-42-UEXT-full\Microchip\TCPIP Stack\TCP.c
                  __pa_50   0x00b932    program     static F:\PIC-web\c18\PIC-WEB-5-42-UEXT-full\Microchip\TCPIP Stack\DHCPs.c
                  __pa_50   0x0070d6    program     static F:\PIC-web\c18\PIC-WEB-5-42-UEXT-full\TCPIP\Demo App\CustomHTTPApp.c
                  __pa_50   0x005378    program     static F:\PIC-web\c18\PIC-WEB-5-42-UEXT-full\Microchip\TCPIP Stack\HTTP2.c
                  __pa_51   0x005382    program     static F:\PIC-web\c18\PIC-WEB-5-42-UEXT-full\Microchip\TCPIP Stack\HTTP2.c
                  __pa_51   0x0070dc    program     static F:\PIC-web\c18\PIC-WEB-5-42-UEXT-full\TCPIP\Demo App\CustomHTTPApp.c
                  __pa_51   0x00b93a    program     static F:\PIC-web\c18\PIC-WEB-5-42-UEXT-full\Microchip\TCPIP Stack\DHCPs.c
                  __pa_51   0x0032ca    program     static F:\PIC-web\c18\PIC-WEB-5-42-UEXT-full\Microchip\TCPIP Stack\TCP.c
                  __pa_52   0x0070e6    program     static F:\PIC-web\c18\PIC-WEB-5-42-UEXT-full\TCPIP\Demo App\CustomHTTPApp.c
                  __pa_52   0x00538c    program     static F:\PIC-web\c18\PIC-WEB-5-42-UEXT-full\Microchip\TCPIP Stack\HTTP2.c
                  __pa_52   0x00b940    program     static F:\PIC-web\c18\PIC-WEB-5-42-UEXT-full\Microchip\TCPIP Stack\DHCPs.c
                  __pa_52   0x0032e2    program     static F:\PIC-web\c18\PIC-WEB-5-42-UEXT-full\Microchip\TCPIP Stack\TCP.c
                  __pa_53   0x0070f0    program     static F:\PIC-web\c18\PIC-WEB-5-42-UEXT-full\TCPIP\Demo App\CustomHTTPApp.c
                  __pa_53   0x005396    program     static F:\PIC-web\c18\PIC-WEB-5-42-UEXT-full\Microchip\TCPIP Stack\HTTP2.c
                  __pa_53   0x00b946    program     static F:\PIC-web\c18\PIC-WEB-5-42-UEXT-full\Microchip\TCPIP Stack\DHCPs.c
                  __pa_53   0x0032ee    program     static F:\PIC-web\c18\PIC-WEB-5-42-UEXT-full\Microchip\TCPIP Stack\TCP.c
                  __pa_54   0x00b952    program     static F:\PIC-web\c18\PIC-WEB-5-42-UEXT-full\Microchip\TCPIP Stack\DHCPs.c
                  __pa_54   0x0053a0    program     static F:\PIC-web\c18\PIC-WEB-5-42-UEXT-full\Microchip\TCPIP Stack\HTTP2.c
                  __pa_54   0x0070f8    program     static F:\PIC-web\c18\PIC-WEB-5-42-UEXT-full\TCPIP\Demo App\CustomHTTPApp.c
                  __pa_54   0x003304    program     static F:\PIC-web\c18\PIC-WEB-5-42-UEXT-full\Microchip\TCPIP Stack\TCP.c
                  __pa_55   0x00331a    program     static F:\PIC-web\c18\PIC-WEB-5-42-UEXT-full\Microchip\TCPIP Stack\TCP.c
                  __pa_55   0x0053aa    program     static F:\PIC-web\c18\PIC-WEB-5-42-UEXT-full\Microchip\TCPIP Stack\HTTP2.c
                  __pa_55   0x0070fe    program     static F:\PIC-web\c18\PIC-WEB-5-42-UEXT-full\TCPIP\Demo App\CustomHTTPApp.c
                  __pa_55   0x00b95c    program     static F:\PIC-web\c18\PIC-WEB-5-42-UEXT-full\Microchip\TCPIP Stack\DHCPs.c
                  __pa_56   0x00710a    program     static F:\PIC-web\c18\PIC-WEB-5-42-UEXT-full\TCPIP\Demo App\CustomHTTPApp.c
                  __pa_56   0x00b962    program     static F:\PIC-web\c18\PIC-WEB-5-42-UEXT-full\Microchip\TCPIP Stack\DHCPs.c
                  __pa_56   0x0053b0    program     static F:\PIC-web\c18\PIC-WEB-5-42-UEXT-full\Microchip\TCPIP Stack\HTTP2.c
                  __pa_56   0x003328    program     static F:\PIC-web\c18\PIC-WEB-5-42-UEXT-full\Microchip\TCPIP Stack\TCP.c
                  __pa_57   0x007114    program     static F:\PIC-web\c18\PIC-WEB-5-42-UEXT-full\TCPIP\Demo App\CustomHTTPApp.c
                  __pa_57   0x0053c8    program     static F:\PIC-web\c18\PIC-WEB-5-42-UEXT-full\Microchip\TCPIP Stack\HTTP2.c
                  __pa_57   0x003330    program     static F:\PIC-web\c18\PIC-WEB-5-42-UEXT-full\Microchip\TCPIP Stack\TCP.c
                  __pa_58   0x0053d2    program     static F:\PIC-web\c18\PIC-WEB-5-42-UEXT-full\Microchip\TCPIP Stack\HTTP2.c
                  __pa_58   0x00711e    program     static F:\PIC-web\c18\PIC-WEB-5-42-UEXT-full\TCPIP\Demo App\CustomHTTPApp.c
                  __pa_58   0x00333c    program     static F:\PIC-web\c18\PIC-WEB-5-42-UEXT-full\Microchip\TCPIP Stack\TCP.c
                  __pa_59   0x007124    program     static F:\PIC-web\c18\PIC-WEB-5-42-UEXT-full\TCPIP\Demo App\CustomHTTPApp.c
                  __pa_59   0x0053dc    program     static F:\PIC-web\c18\PIC-WEB-5-42-UEXT-full\Microchip\TCPIP Stack\HTTP2.c
                  __pa_59   0x00334a    program     static F:\PIC-web\c18\PIC-WEB-5-42-UEXT-full\Microchip\TCPIP Stack\TCP.c
                   __pa_6   0x002f5a    program     static F:\PIC-web\c18\PIC-WEB-5-42-UEXT-full\Microchip\TCPIP Stack\TCP.c
                   __pa_6   0x006e82    program     static F:\PIC-web\c18\PIC-WEB-5-42-UEXT-full\TCPIP\Demo App\CustomHTTPApp.c
                   __pa_6   0x012e74    program     static F:\PIC-web\c18\PIC-WEB-5-42-UEXT-full\Microchip\TCPIP Stack\SPIFlash.c
                   __pa_6   0x008020    program     static F:\PIC-web\c18\PIC-WEB-5-42-UEXT-full\Microchip\TCPIP Stack\SMTP.c
                   __pa_6   0x0050e4    program     static F:\PIC-web\c18\PIC-WEB-5-42-UEXT-full\Microchip\TCPIP Stack\HTTP2.c
                   __pa_6   0x012730    program     static F:\PIC-web\c18\PIC-WEB-5-42-UEXT-full\TCPIP\Demo App\Olimex_Demo_Files\Misc_Functions.c
                   __pa_6   0x00d016    program     static F:\PIC-web\c18\PIC-WEB-5-42-UEXT-full\Microchip\TCPIP Stack\Helpers.c
                   __pa_6   0x00e14a    program     static F:\PIC-web\c18\PIC-WEB-5-42-UEXT-full\Microchip\TCPIP Stack\Hashes.c
                   __pa_6   0x00ea6c    program     static F:\PIC-web\c18\PIC-WEB-5-42-UEXT-full\Microchip\TCPIP Stack\ETH97J60.c
                   __pa_6   0x00f0b0    program     static F:\PIC-web\c18\PIC-WEB-5-42-UEXT-full\Microchip\TCPIP Stack\DNS.c
                   __pa_6   0x00abd6    program     static F:\PIC-web\c18\PIC-WEB-5-42-UEXT-full\Microchip\TCPIP Stack\MPFS2.c
                   __pa_6   0x0145ba    program     static F:\PIC-web\c18\PIC-WEB-5-42-UEXT-full\Microchip\TCPIP Stack\Announce.c
                   __pa_6   0x00c436    program     static F:\PIC-web\c18\PIC-WEB-5-42-UEXT-full\Microchip\TCPIP Stack\UDP.c
                   __pa_6   0x00f732    program     static F:\PIC-web\c18\PIC-WEB-5-42-UEXT-full\Microchip\TCPIP Stack\AutoIP.c
                   __pa_6   0x0111ac    program     static E:\3.46\pic18-lt\cxx-framework\src\traditional\stdclib\log.c
                   __pa_6   0x015138    program     static E:\3.46\pic18-lt\cxx-framework\src\traditional\stdclib\PackMath.c
                   __pa_6   0x009fe0    program     static F:\PIC-web\c18\PIC-WEB-5-42-UEXT-full\Microchip\TCPIP Stack\BerkeleyAPI.c
                   __pa_6   0x010768    program     static F:\PIC-web\c18\PIC-WEB-5-42-UEXT-full\Microchip\TCPIP Stack\Telnet.c
                   __pa_6   0x00d83e    program     static F:\PIC-web\c18\PIC-WEB-5-42-UEXT-full\Microchip\TCPIP Stack\DHCP.c
                   __pa_6   0x00b70a    program     static F:\PIC-web\c18\PIC-WEB-5-42-UEXT-full\Microchip\TCPIP Stack\DHCPs.c
                  __pa_60   0x0053ea    program     static F:\PIC-web\c18\PIC-WEB-5-42-UEXT-full\Microchip\TCPIP Stack\HTTP2.c
                  __pa_60   0x003354    program     static F:\PIC-web\c18\PIC-WEB-5-42-UEXT-full\Microchip\TCPIP Stack\TCP.c
                  __pa_61   0x0053f8    program     static F:\PIC-web\c18\PIC-WEB-5-42-UEXT-full\Microchip\TCPIP Stack\HTTP2.c
                  __pa_61   0x003368    program     static F:\PIC-web\c18\PIC-WEB-5-42-UEXT-full\Microchip\TCPIP Stack\TCP.c
                  __pa_62   0x00337c    program     static F:\PIC-web\c18\PIC-WEB-5-42-UEXT-full\Microchip\TCPIP Stack\TCP.c
                  __pa_62   0x00540c    program     static F:\PIC-web\c18\PIC-WEB-5-42-UEXT-full\Microchip\TCPIP Stack\HTTP2.c
                  __pa_63   0x003384    program     static F:\PIC-web\c18\PIC-WEB-5-42-UEXT-full\Microchip\TCPIP Stack\TCP.c
                  __pa_63   0x005416    program     static F:\PIC-web\c18\PIC-WEB-5-42-UEXT-full\Microchip\TCPIP Stack\HTTP2.c
                  __pa_64   0x003396    program     static F:\PIC-web\c18\PIC-WEB-5-42-UEXT-full\Microchip\TCPIP Stack\TCP.c
                  __pa_64   0x005424    program     static F:\PIC-web\c18\PIC-WEB-5-42-UEXT-full\Microchip\TCPIP Stack\HTTP2.c
                  __pa_65   0x005432    program     static F:\PIC-web\c18\PIC-WEB-5-42-UEXT-full\Microchip\TCPIP Stack\HTTP2.c
                  __pa_65   0x0033a4    program     static F:\PIC-web\c18\PIC-WEB-5-42-UEXT-full\Microchip\TCPIP Stack\TCP.c
                  __pa_66   0x0033b6    program     static F:\PIC-web\c18\PIC-WEB-5-42-UEXT-full\Microchip\TCPIP Stack\TCP.c
                  __pa_66   0x005444    program     static F:\PIC-web\c18\PIC-WEB-5-42-UEXT-full\Microchip\TCPIP Stack\HTTP2.c
                  __pa_67   0x00544e    program     static F:\PIC-web\c18\PIC-WEB-5-42-UEXT-full\Microchip\TCPIP Stack\HTTP2.c
                  __pa_67   0x0033c8    program     static F:\PIC-web\c18\PIC-WEB-5-42-UEXT-full\Microchip\TCPIP Stack\TCP.c
                  __pa_68   0x0033da    program     static F:\PIC-web\c18\PIC-WEB-5-42-UEXT-full\Microchip\TCPIP Stack\TCP.c
                  __pa_68   0x005454    program     static F:\PIC-web\c18\PIC-WEB-5-42-UEXT-full\Microchip\TCPIP Stack\HTTP2.c
                  __pa_69   0x0033ec    program     static F:\PIC-web\c18\PIC-WEB-5-42-UEXT-full\Microchip\TCPIP Stack\TCP.c
                  __pa_69   0x005464    program     static F:\PIC-web\c18\PIC-WEB-5-42-UEXT-full\Microchip\TCPIP Stack\HTTP2.c
                   __pa_7   0x002f68    program     static F:\PIC-web\c18\PIC-WEB-5-42-UEXT-full\Microchip\TCPIP Stack\TCP.c
                   __pa_7   0x0111c6    program     static E:\3.46\pic18-lt\cxx-framework\src\traditional\stdclib\log.c
                   __pa_7   0x00f0c2    program     static F:\PIC-web\c18\PIC-WEB-5-42-UEXT-full\Microchip\TCPIP Stack\DNS.c
                   __pa_7   0x01078a    program     static F:\PIC-web\c18\PIC-WEB-5-42-UEXT-full\Microchip\TCPIP Stack\Telnet.c
                   __pa_7   0x012e7a    program     static F:\PIC-web\c18\PIC-WEB-5-42-UEXT-full\Microchip\TCPIP Stack\SPIFlash.c
                   __pa_7   0x006e96    program     static F:\PIC-web\c18\PIC-WEB-5-42-UEXT-full\TCPIP\Demo App\CustomHTTPApp.c
                   __pa_7   0x0145c8    program     static F:\PIC-web\c18\PIC-WEB-5-42-UEXT-full\Microchip\TCPIP Stack\Announce.c
                   __pa_7   0x00e162    program     static F:\PIC-web\c18\PIC-WEB-5-42-UEXT-full\Microchip\TCPIP Stack\Hashes.c
                   __pa_7   0x00d026    program     static F:\PIC-web\c18\PIC-WEB-5-42-UEXT-full\Microchip\TCPIP Stack\Helpers.c
                   __pa_7   0x012742    program     static F:\PIC-web\c18\PIC-WEB-5-42-UEXT-full\TCPIP\Demo App\Olimex_Demo_Files\Misc_Functions.c
                   __pa_7   0x00804a    program     static F:\PIC-web\c18\PIC-WEB-5-42-UEXT-full\Microchip\TCPIP Stack\SMTP.c
                   __pa_7   0x0050ee    program     static F:\PIC-web\c18\PIC-WEB-5-42-UEXT-full\Microchip\TCPIP Stack\HTTP2.c
                   __pa_7   0x009fea    program     static F:\PIC-web\c18\PIC-WEB-5-42-UEXT-full\Microchip\TCPIP Stack\BerkeleyAPI.c
                   __pa_7   0x00c448    program     static F:\PIC-web\c18\PIC-WEB-5-42-UEXT-full\Microchip\TCPIP Stack\UDP.c
                   __pa_7   0x00abf2    program     static F:\PIC-web\c18\PIC-WEB-5-42-UEXT-full\Microchip\TCPIP Stack\MPFS2.c
                   __pa_7   0x00d86a    program     static F:\PIC-web\c18\PIC-WEB-5-42-UEXT-full\Microchip\TCPIP Stack\DHCP.c
                   __pa_7   0x00b712    program     static F:\PIC-web\c18\PIC-WEB-5-42-UEXT-full\Microchip\TCPIP Stack\DHCPs.c
                  __pa_70   0x005472    program     static F:\PIC-web\c18\PIC-WEB-5-42-UEXT-full\Microchip\TCPIP Stack\HTTP2.c
                  __pa_70   0x0033fe    program     static F:\PIC-web\c18\PIC-WEB-5-42-UEXT-full\Microchip\TCPIP Stack\TCP.c
                  __pa_71   0x00547e    program     static F:\PIC-web\c18\PIC-WEB-5-42-UEXT-full\Microchip\TCPIP Stack\HTTP2.c
                  __pa_71   0x003410    program     static F:\PIC-web\c18\PIC-WEB-5-42-UEXT-full\Microchip\TCPIP Stack\TCP.c
                  __pa_72   0x00548a    program     static F:\PIC-web\c18\PIC-WEB-5-42-UEXT-full\Microchip\TCPIP Stack\HTTP2.c
                  __pa_72   0x003422    program     static F:\PIC-web\c18\PIC-WEB-5-42-UEXT-full\Microchip\TCPIP Stack\TCP.c
                  __pa_73   0x005498    program     static F:\PIC-web\c18\PIC-WEB-5-42-UEXT-full\Microchip\TCPIP Stack\HTTP2.c
                  __pa_73   0x003432    program     static F:\PIC-web\c18\PIC-WEB-5-42-UEXT-full\Microchip\TCPIP Stack\TCP.c
                  __pa_74   0x0054a0    program     static F:\PIC-web\c18\PIC-WEB-5-42-UEXT-full\Microchip\TCPIP Stack\HTTP2.c
                  __pa_74   0x00343a    program     static F:\PIC-web\c18\PIC-WEB-5-42-UEXT-full\Microchip\TCPIP Stack\TCP.c
                  __pa_75   0x0054aa    program     static F:\PIC-web\c18\PIC-WEB-5-42-UEXT-full\Microchip\TCPIP Stack\HTTP2.c
                  __pa_75   0x00344c    program     static F:\PIC-web\c18\PIC-WEB-5-42-UEXT-full\Microchip\TCPIP Stack\TCP.c
                  __pa_76   0x003458    program     static F:\PIC-web\c18\PIC-WEB-5-42-UEXT-full\Microchip\TCPIP Stack\TCP.c
                  __pa_76   0x0054b8    program     static F:\PIC-web\c18\PIC-WEB-5-42-UEXT-full\Microchip\TCPIP Stack\HTTP2.c
                  __pa_77   0x003464    program     static F:\PIC-web\c18\PIC-WEB-5-42-UEXT-full\Microchip\TCPIP Stack\TCP.c
                  __pa_77   0x0054ce    program     static F:\PIC-web\c18\PIC-WEB-5-42-UEXT-full\Microchip\TCPIP Stack\HTTP2.c
                  __pa_78   0x003470    program     static F:\PIC-web\c18\PIC-WEB-5-42-UEXT-full\Microchip\TCPIP Stack\TCP.c
                  __pa_78   0x0054d4    program     static F:\PIC-web\c18\PIC-WEB-5-42-UEXT-full\Microchip\TCPIP Stack\HTTP2.c
                  __pa_79   0x0054ea    program     static F:\PIC-web\c18\PIC-WEB-5-42-UEXT-full\Microchip\TCPIP Stack\HTTP2.c
                  __pa_79   0x00347a    program     static F:\PIC-web\c18\PIC-WEB-5-42-UEXT-full\Microchip\TCPIP Stack\TCP.c
                   __pa_8   0x00c454    program     static F:\PIC-web\c18\PIC-WEB-5-42-UEXT-full\Microchip\TCPIP Stack\UDP.c
                   __pa_8   0x0050fa    program     static F:\PIC-web\c18\PIC-WEB-5-42-UEXT-full\Microchip\TCPIP Stack\HTTP2.c
                   __pa_8   0x012752    program     static F:\PIC-web\c18\PIC-WEB-5-42-UEXT-full\TCPIP\Demo App\Olimex_Demo_Files\Misc_Functions.c
                   __pa_8   0x0107ac    program     static F:\PIC-web\c18\PIC-WEB-5-42-UEXT-full\Microchip\TCPIP Stack\Telnet.c
                   __pa_8   0x009ff4    program     static F:\PIC-web\c18\PIC-WEB-5-42-UEXT-full\Microchip\TCPIP Stack\BerkeleyAPI.c
                   __pa_8   0x00d036    program     static F:\PIC-web\c18\PIC-WEB-5-42-UEXT-full\Microchip\TCPIP Stack\Helpers.c
                   __pa_8   0x00e170    program     static F:\PIC-web\c18\PIC-WEB-5-42-UEXT-full\Microchip\TCPIP Stack\Hashes.c
                   __pa_8   0x00f0d0    program     static F:\PIC-web\c18\PIC-WEB-5-42-UEXT-full\Microchip\TCPIP Stack\DNS.c
                   __pa_8   0x00b728    program     static F:\PIC-web\c18\PIC-WEB-5-42-UEXT-full\Microchip\TCPIP Stack\DHCPs.c
                   __pa_8   0x0111e0    program     static E:\3.46\pic18-lt\cxx-framework\src\traditional\stdclib\log.c
                   __pa_8   0x00d88a    program     static F:\PIC-web\c18\PIC-WEB-5-42-UEXT-full\Microchip\TCPIP Stack\DHCP.c
                   __pa_8   0x00ac14    program     static F:\PIC-web\c18\PIC-WEB-5-42-UEXT-full\Microchip\TCPIP Stack\MPFS2.c
                   __pa_8   0x002f70    program     static F:\PIC-web\c18\PIC-WEB-5-42-UEXT-full\Microchip\TCPIP Stack\TCP.c
                   __pa_8   0x012e8e    program     static F:\PIC-web\c18\PIC-WEB-5-42-UEXT-full\Microchip\TCPIP Stack\SPIFlash.c
                   __pa_8   0x008062    program     static F:\PIC-web\c18\PIC-WEB-5-42-UEXT-full\Microchip\TCPIP Stack\SMTP.c
                   __pa_8   0x006ea2    program     static F:\PIC-web\c18\PIC-WEB-5-42-UEXT-full\TCPIP\Demo App\CustomHTTPApp.c
                  __pa_80   0x005504    program     static F:\PIC-web\c18\PIC-WEB-5-42-UEXT-full\Microchip\TCPIP Stack\HTTP2.c
                  __pa_80   0x003484    program     static F:\PIC-web\c18\PIC-WEB-5-42-UEXT-full\Microchip\TCPIP Stack\TCP.c
                  __pa_81   0x00550c    program     static F:\PIC-web\c18\PIC-WEB-5-42-UEXT-full\Microchip\TCPIP Stack\HTTP2.c
                  __pa_81   0x00348e    program     static F:\PIC-web\c18\PIC-WEB-5-42-UEXT-full\Microchip\TCPIP Stack\TCP.c
                  __pa_82   0x005524    program     static F:\PIC-web\c18\PIC-WEB-5-42-UEXT-full\Microchip\TCPIP Stack\HTTP2.c
                  __pa_82   0x00349e    program     static F:\PIC-web\c18\PIC-WEB-5-42-UEXT-full\Microchip\TCPIP Stack\TCP.c
                  __pa_83   0x0034ae    program     static F:\PIC-web\c18\PIC-WEB-5-42-UEXT-full\Microchip\TCPIP Stack\TCP.c
                  __pa_83   0x00552a    program     static F:\PIC-web\c18\PIC-WEB-5-42-UEXT-full\Microchip\TCPIP Stack\HTTP2.c
                  __pa_84   0x005530    program     static F:\PIC-web\c18\PIC-WEB-5-42-UEXT-full\Microchip\TCPIP Stack\HTTP2.c
                  __pa_84   0x0034ba    program     static F:\PIC-web\c18\PIC-WEB-5-42-UEXT-full\Microchip\TCPIP Stack\TCP.c
                  __pa_85   0x005540    program     static F:\PIC-web\c18\PIC-WEB-5-42-UEXT-full\Microchip\TCPIP Stack\HTTP2.c
                  __pa_85   0x0034ca    program     static F:\PIC-web\c18\PIC-WEB-5-42-UEXT-full\Microchip\TCPIP Stack\TCP.c
                  __pa_86   0x005550    program     static F:\PIC-web\c18\PIC-WEB-5-42-UEXT-full\Microchip\TCPIP Stack\HTTP2.c
                  __pa_86   0x0034d8    program     static F:\PIC-web\c18\PIC-WEB-5-42-UEXT-full\Microchip\TCPIP Stack\TCP.c
                  __pa_87   0x0034e6    program     static F:\PIC-web\c18\PIC-WEB-5-42-UEXT-full\Microchip\TCPIP Stack\TCP.c
                  __pa_87   0x00555e    program     static F:\PIC-web\c18\PIC-WEB-5-42-UEXT-full\Microchip\TCPIP Stack\HTTP2.c
                  __pa_88   0x0034f4    program     static F:\PIC-web\c18\PIC-WEB-5-42-UEXT-full\Microchip\TCPIP Stack\TCP.c
                  __pa_88   0x00556c    program     static F:\PIC-web\c18\PIC-WEB-5-42-UEXT-full\Microchip\TCPIP Stack\HTTP2.c
                  __pa_89   0x00557a    program     static F:\PIC-web\c18\PIC-WEB-5-42-UEXT-full\Microchip\TCPIP Stack\HTTP2.c
                  __pa_89   0x003502    program     static F:\PIC-web\c18\PIC-WEB-5-42-UEXT-full\Microchip\TCPIP Stack\TCP.c
                   __pa_9   0x00ac34    program     static F:\PIC-web\c18\PIC-WEB-5-42-UEXT-full\Microchip\TCPIP Stack\MPFS2.c
                   __pa_9   0x008068    program     static F:\PIC-web\c18\PIC-WEB-5-42-UEXT-full\Microchip\TCPIP Stack\SMTP.c
                   __pa_9   0x002f80    program     static F:\PIC-web\c18\PIC-WEB-5-42-UEXT-full\Microchip\TCPIP Stack\TCP.c
                   __pa_9   0x00510a    program     static F:\PIC-web\c18\PIC-WEB-5-42-UEXT-full\Microchip\TCPIP Stack\HTTP2.c
                   __pa_9   0x012760    program     static F:\PIC-web\c18\PIC-WEB-5-42-UEXT-full\TCPIP\Demo App\Olimex_Demo_Files\Misc_Functions.c
                   __pa_9   0x00d048    program     static F:\PIC-web\c18\PIC-WEB-5-42-UEXT-full\Microchip\TCPIP Stack\Helpers.c
                   __pa_9   0x00e18c    program     static F:\PIC-web\c18\PIC-WEB-5-42-UEXT-full\Microchip\TCPIP Stack\Hashes.c
                   __pa_9   0x00f0e2    program     static F:\PIC-web\c18\PIC-WEB-5-42-UEXT-full\Microchip\TCPIP Stack\DNS.c
                   __pa_9   0x00b73a    program     static F:\PIC-web\c18\PIC-WEB-5-42-UEXT-full\Microchip\TCPIP Stack\DHCPs.c
                   __pa_9   0x0111f6    program     static E:\3.46\pic18-lt\cxx-framework\src\traditional\stdclib\log.c
                   __pa_9   0x00d89e    program     static F:\PIC-web\c18\PIC-WEB-5-42-UEXT-full\Microchip\TCPIP Stack\DHCP.c
                   __pa_9   0x00a006    program     static F:\PIC-web\c18\PIC-WEB-5-42-UEXT-full\Microchip\TCPIP Stack\BerkeleyAPI.c
                   __pa_9   0x006eaa    program     static F:\PIC-web\c18\PIC-WEB-5-42-UEXT-full\TCPIP\Demo App\CustomHTTPApp.c
                   __pa_9   0x0107b8    program     static F:\PIC-web\c18\PIC-WEB-5-42-UEXT-full\Microchip\TCPIP Stack\Telnet.c
                   __pa_9   0x00c460    program     static F:\PIC-web\c18\PIC-WEB-5-42-UEXT-full\Microchip\TCPIP Stack\UDP.c
                  __pa_90   0x005582    program     static F:\PIC-web\c18\PIC-WEB-5-42-UEXT-full\Microchip\TCPIP Stack\HTTP2.c
                  __pa_90   0x003510    program     static F:\PIC-web\c18\PIC-WEB-5-42-UEXT-full\Microchip\TCPIP Stack\TCP.c
                  __pa_91   0x00351e    program     static F:\PIC-web\c18\PIC-WEB-5-42-UEXT-full\Microchip\TCPIP Stack\TCP.c
                  __pa_91   0x00558a    program     static F:\PIC-web\c18\PIC-WEB-5-42-UEXT-full\Microchip\TCPIP Stack\HTTP2.c
                  __pa_92   0x005590    program     static F:\PIC-web\c18\PIC-WEB-5-42-UEXT-full\Microchip\TCPIP Stack\HTTP2.c
                  __pa_92   0x00352c    program     static F:\PIC-web\c18\PIC-WEB-5-42-UEXT-full\Microchip\TCPIP Stack\TCP.c
                  __pa_93   0x00559c    program     static F:\PIC-web\c18\PIC-WEB-5-42-UEXT-full\Microchip\TCPIP Stack\HTTP2.c
                  __pa_93   0x00353a    program     static F:\PIC-web\c18\PIC-WEB-5-42-UEXT-full\Microchip\TCPIP Stack\TCP.c
                  __pa_94   0x0055a2    program     static F:\PIC-web\c18\PIC-WEB-5-42-UEXT-full\Microchip\TCPIP Stack\HTTP2.c
                  __pa_94   0x003548    program     static F:\PIC-web\c18\PIC-WEB-5-42-UEXT-full\Microchip\TCPIP Stack\TCP.c
                  __pa_95   0x0055aa    program     static F:\PIC-web\c18\PIC-WEB-5-42-UEXT-full\Microchip\TCPIP Stack\HTTP2.c
                  __pa_95   0x003556    program     static F:\PIC-web\c18\PIC-WEB-5-42-UEXT-full\Microchip\TCPIP Stack\TCP.c
                  __pa_96   0x0055b2    program     static F:\PIC-web\c18\PIC-WEB-5-42-UEXT-full\Microchip\TCPIP Stack\HTTP2.c
                  __pa_96   0x003564    program     static F:\PIC-web\c18\PIC-WEB-5-42-UEXT-full\Microchip\TCPIP Stack\TCP.c
                  __pa_97   0x0055c8    program     static F:\PIC-web\c18\PIC-WEB-5-42-UEXT-full\Microchip\TCPIP Stack\HTTP2.c
                  __pa_97   0x00356a    program     static F:\PIC-web\c18\PIC-WEB-5-42-UEXT-full\Microchip\TCPIP Stack\TCP.c
                  __pa_98   0x0055d0    program     static F:\PIC-web\c18\PIC-WEB-5-42-UEXT-full\Microchip\TCPIP Stack\HTTP2.c
                  __pa_98   0x003574    program     static F:\PIC-web\c18\PIC-WEB-5-42-UEXT-full\Microchip\TCPIP Stack\TCP.c
                  __pa_99   0x0055d8    program     static F:\PIC-web\c18\PIC-WEB-5-42-UEXT-full\Microchip\TCPIP Stack\HTTP2.c
                  __pa_99   0x00357c    program     static F:\PIC-web\c18\PIC-WEB-5-42-UEXT-full\Microchip\TCPIP Stack\TCP.c
               __string_0   0x008aa7    program     static F:\PIC-web\c18\PIC-WEB-5-42-UEXT-full\Microchip\TCPIP Stack\SNTP.c
               __string_0   0x0090b9    program     static F:\PIC-web\c18\PIC-WEB-5-42-UEXT-full\TCPIP\Demo App\BerkeleyUDPClientDemo.c
               __string_0   0x008a96    program     static F:\PIC-web\c18\PIC-WEB-5-42-UEXT-full\Microchip\TCPIP Stack\SMTP.c
               __string_0   0x008a10    program     static F:\PIC-web\c18\PIC-WEB-5-42-UEXT-full\Microchip\TCPIP Stack\HTTP2.c
               __string_0   0x008a1b    program     static F:\PIC-web\c18\PIC-WEB-5-42-UEXT-full\Microchip\TCPIP Stack\MPFS2.c
               __string_0   0x008aed    program     static F:\PIC-web\c18\PIC-WEB-5-42-UEXT-full\Microchip\TCPIP Stack\TCPPerformanceTest.c
               __string_0   0x008f50    program     static F:\PIC-web\c18\PIC-WEB-5-42-UEXT-full\TCPIP\Demo App\MainDemo.c
               __string_0   0x009338    program     static F:\PIC-web\c18\PIC-WEB-5-42-UEXT-full\TCPIP\Demo App\UARTConfig.c
               __string_0   0x00827a    program     static F:\PIC-web\c18\PIC-WEB-5-42-UEXT-full\Microchip\TCPIP Stack\Announce.c
               __string_0   0x009121    program     static F:\PIC-web\c18\PIC-WEB-5-42-UEXT-full\TCPIP\Demo App\PingDemo.c
               __string_1   0x008a85    program     static F:\PIC-web\c18\PIC-WEB-5-42-UEXT-full\Microchip\TCPIP Stack\SMTP.c
               __string_1   0x00931c    program     static F:\PIC-web\c18\PIC-WEB-5-42-UEXT-full\TCPIP\Demo App\UARTConfig.c
               __string_1   0x008a05    program     static F:\PIC-web\c18\PIC-WEB-5-42-UEXT-full\Microchip\TCPIP Stack\HTTP2.c
               __string_1   0x008f2a    program     static F:\PIC-web\c18\PIC-WEB-5-42-UEXT-full\TCPIP\Demo App\CustomHTTPApp.c
               __string_1   0x008f3d    program     static F:\PIC-web\c18\PIC-WEB-5-42-UEXT-full\TCPIP\Demo App\MainDemo.c
               __string_1   0x008ae5    program     static F:\PIC-web\c18\PIC-WEB-5-42-UEXT-full\Microchip\TCPIP Stack\TCPPerformanceTest.c
              __string_10   0x008b3c    program     static F:\PIC-web\c18\PIC-WEB-5-42-UEXT-full\Microchip\TCPIP Stack\Telnet.c
              __string_10   0x0089e3    program     static F:\PIC-web\c18\PIC-WEB-5-42-UEXT-full\Microchip\TCPIP Stack\HTTP2.c
              __string_10   0x008ee4    program     static F:\PIC-web\c18\PIC-WEB-5-42-UEXT-full\TCPIP\Demo App\CustomHTTPApp.c
              __string_10   0x009234    program     static F:\PIC-web\c18\PIC-WEB-5-42-UEXT-full\TCPIP\Demo App\UARTConfig.c
              __string_10   0x008a3f    program     static F:\PIC-web\c18\PIC-WEB-5-42-UEXT-full\Microchip\TCPIP Stack\SMTP.c
              __string_11   0x008a33    program     static F:\PIC-web\c18\PIC-WEB-5-42-UEXT-full\Microchip\TCPIP Stack\SMTP.c
              __string_11   0x0089df    program     static F:\PIC-web\c18\PIC-WEB-5-42-UEXT-full\Microchip\TCPIP Stack\HTTP2.c
              __string_11   0x009207    program     static F:\PIC-web\c18\PIC-WEB-5-42-UEXT-full\TCPIP\Demo App\UARTConfig.c
              __string_11   0x008b37    program     static F:\PIC-web\c18\PIC-WEB-5-42-UEXT-full\Microchip\TCPIP Stack\Telnet.c
              __string_12   0x0089db    program     static F:\PIC-web\c18\PIC-WEB-5-42-UEXT-full\Microchip\TCPIP Stack\HTTP2.c
              __string_12   0x008b2e    program     static F:\PIC-web\c18\PIC-WEB-5-42-UEXT-full\Microchip\TCPIP Stack\Telnet.c
              __string_12   0x008a2d    program     static F:\PIC-web\c18\PIC-WEB-5-42-UEXT-full\Microchip\TCPIP Stack\SMTP.c
              __string_12   0x008edc    program     static F:\PIC-web\c18\PIC-WEB-5-42-UEXT-full\TCPIP\Demo App\CustomHTTPApp.c
              __string_12   0x0091ff    program     static F:\PIC-web\c18\PIC-WEB-5-42-UEXT-full\TCPIP\Demo App\UARTConfig.c
              __string_13   0x008a29    program     static F:\PIC-web\c18\PIC-WEB-5-42-UEXT-full\Microchip\TCPIP Stack\SMTP.c
              __string_13   0x008ecf    program     static F:\PIC-web\c18\PIC-WEB-5-42-UEXT-full\TCPIP\Demo App\CustomHTTPApp.c
              __string_13   0x008b25    program     static F:\PIC-web\c18\PIC-WEB-5-42-UEXT-full\Microchip\TCPIP Stack\Telnet.c
              __string_13   0x0089d7    program     static F:\PIC-web\c18\PIC-WEB-5-42-UEXT-full\Microchip\TCPIP Stack\HTTP2.c
              __string_13   0x0091f6    program     static F:\PIC-web\c18\PIC-WEB-5-42-UEXT-full\TCPIP\Demo App\UARTConfig.c
              __string_14   0x008a22    program     static F:\PIC-web\c18\PIC-WEB-5-42-UEXT-full\Microchip\TCPIP Stack\SMTP.c
              __string_14   0x0089d3    program     static F:\PIC-web\c18\PIC-WEB-5-42-UEXT-full\Microchip\TCPIP Stack\HTTP2.c
              __string_14   0x008b1c    program     static F:\PIC-web\c18\PIC-WEB-5-42-UEXT-full\Microchip\TCPIP Stack\Telnet.c
              __string_14   0x008ec5    program     static F:\PIC-web\c18\PIC-WEB-5-42-UEXT-full\TCPIP\Demo App\CustomHTTPApp.c
              __string_14   0x0091db    program     static F:\PIC-web\c18\PIC-WEB-5-42-UEXT-full\TCPIP\Demo App\UARTConfig.c
              __string_15   0x008b13    program     static F:\PIC-web\c18\PIC-WEB-5-42-UEXT-full\Microchip\TCPIP Stack\Telnet.c
              __string_15   0x0091c8    program     static F:\PIC-web\c18\PIC-WEB-5-42-UEXT-full\TCPIP\Demo App\UARTConfig.c
              __string_15   0x008ebd    program     static F:\PIC-web\c18\PIC-WEB-5-42-UEXT-full\TCPIP\Demo App\CustomHTTPApp.c
              __string_15   0x0089cf    program     static F:\PIC-web\c18\PIC-WEB-5-42-UEXT-full\Microchip\TCPIP Stack\HTTP2.c
              __string_16   0x008b0b    program     static F:\PIC-web\c18\PIC-WEB-5-42-UEXT-full\Microchip\TCPIP Stack\Telnet.c
              __string_16   0x0091b0    program     static F:\PIC-web\c18\PIC-WEB-5-42-UEXT-full\TCPIP\Demo App\UARTConfig.c
              __string_16   0x008eb7    program     static F:\PIC-web\c18\PIC-WEB-5-42-UEXT-full\TCPIP\Demo App\CustomHTTPApp.c
              __string_16   0x0089c4    program     static F:\PIC-web\c18\PIC-WEB-5-42-UEXT-full\Microchip\TCPIP Stack\HTTP2.c
              __string_17   0x0091ad    program     static F:\PIC-web\c18\PIC-WEB-5-42-UEXT-full\TCPIP\Demo App\UARTConfig.c
              __string_17   0x008eb2    program     static F:\PIC-web\c18\PIC-WEB-5-42-UEXT-full\TCPIP\Demo App\CustomHTTPApp.c
              __string_17   0x0089ba    program     static F:\PIC-web\c18\PIC-WEB-5-42-UEXT-full\Microchip\TCPIP Stack\HTTP2.c
              __string_18   0x008eac    program     static F:\PIC-web\c18\PIC-WEB-5-42-UEXT-full\TCPIP\Demo App\CustomHTTPApp.c
              __string_18   0x0089b1    program     static F:\PIC-web\c18\PIC-WEB-5-42-UEXT-full\Microchip\TCPIP Stack\HTTP2.c
              __string_18   0x00919f    program     static F:\PIC-web\c18\PIC-WEB-5-42-UEXT-full\TCPIP\Demo App\UARTConfig.c
              __string_19   0x0089a8    program     static F:\PIC-web\c18\PIC-WEB-5-42-UEXT-full\Microchip\TCPIP Stack\HTTP2.c
              __string_19   0x00918e    program     static F:\PIC-web\c18\PIC-WEB-5-42-UEXT-full\TCPIP\Demo App\UARTConfig.c
              __string_19   0x008e9f    program     static F:\PIC-web\c18\PIC-WEB-5-42-UEXT-full\TCPIP\Demo App\CustomHTTPApp.c
               __string_2   0x008f3a    program     static F:\PIC-web\c18\PIC-WEB-5-42-UEXT-full\TCPIP\Demo App\MainDemo.c
               __string_2   0x008ac4    program     static F:\PIC-web\c18\PIC-WEB-5-42-UEXT-full\Microchip\TCPIP Stack\TCPPerformanceTest.c
               __string_2   0x009177    program     static F:\PIC-web\c18\PIC-WEB-5-42-UEXT-full\TCPIP\Demo App\SMTPDemo.c
               __string_2   0x008a00    program     static F:\PIC-web\c18\PIC-WEB-5-42-UEXT-full\Microchip\TCPIP Stack\HTTP2.c
               __string_2   0x008f25    program     static F:\PIC-web\c18\PIC-WEB-5-42-UEXT-full\TCPIP\Demo App\CustomHTTPApp.c
               __string_2   0x008a78    program     static F:\PIC-web\c18\PIC-WEB-5-42-UEXT-full\Microchip\TCPIP Stack\SMTP.c
               __string_2   0x009301    program     static F:\PIC-web\c18\PIC-WEB-5-42-UEXT-full\TCPIP\Demo App\UARTConfig.c
               __string_2   0x0090f5    program     static F:\PIC-web\c18\PIC-WEB-5-42-UEXT-full\TCPIP\Demo App\GenericTCPClient.c
               __string_2   0x009089    program     static F:\PIC-web\c18\PIC-WEB-5-42-UEXT-full\TCPIP\Demo App\BerkeleyTCPClientDemo.c
              __string_20   0x00917c    program     static F:\PIC-web\c18\PIC-WEB-5-42-UEXT-full\TCPIP\Demo App\UARTConfig.c
              __string_20   0x008e95    program     static F:\PIC-web\c18\PIC-WEB-5-42-UEXT-full\TCPIP\Demo App\CustomHTTPApp.c
              __string_20   0x00899e    program     static F:\PIC-web\c18\PIC-WEB-5-42-UEXT-full\Microchip\TCPIP Stack\HTTP2.c
              __string_21   0x008e90    program     static F:\PIC-web\c18\PIC-WEB-5-42-UEXT-full\TCPIP\Demo App\CustomHTTPApp.c
              __string_21   0x008994    program     static F:\PIC-web\c18\PIC-WEB-5-42-UEXT-full\Microchip\TCPIP Stack\HTTP2.c
              __string_22   0x008e8b    program     static F:\PIC-web\c18\PIC-WEB-5-42-UEXT-full\TCPIP\Demo App\CustomHTTPApp.c
              __string_22   0x008989    program     static F:\PIC-web\c18\PIC-WEB-5-42-UEXT-full\Microchip\TCPIP Stack\HTTP2.c
              __string_23   0x008e86    program     static F:\PIC-web\c18\PIC-WEB-5-42-UEXT-full\TCPIP\Demo App\CustomHTTPApp.c
              __string_23   0x008975    program     static F:\PIC-web\c18\PIC-WEB-5-42-UEXT-full\Microchip\TCPIP Stack\HTTP2.c
              __string_24   0x008968    program     static F:\PIC-web\c18\PIC-WEB-5-42-UEXT-full\Microchip\TCPIP Stack\HTTP2.c
              __string_24   0x008e81    program     static F:\PIC-web\c18\PIC-WEB-5-42-UEXT-full\TCPIP\Demo App\CustomHTTPApp.c
              __string_25   0x008967    program     static F:\PIC-web\c18\PIC-WEB-5-42-UEXT-full\Microchip\TCPIP Stack\HTTP2.c
              __string_25   0x008e75    program     static F:\PIC-web\c18\PIC-WEB-5-42-UEXT-full\TCPIP\Demo App\CustomHTTPApp.c
              __string_26   0x008942    program     static F:\PIC-web\c18\PIC-WEB-5-42-UEXT-full\Microchip\TCPIP Stack\HTTP2.c
              __string_26   0x008e6c    program     static F:\PIC-web\c18\PIC-WEB-5-42-UEXT-full\TCPIP\Demo App\CustomHTTPApp.c
              __string_27   0x0088e4    program     static F:\PIC-web\c18\PIC-WEB-5-42-UEXT-full\Microchip\TCPIP Stack\HTTP2.c
              __string_27   0x008e68    program     static F:\PIC-web\c18\PIC-WEB-5-42-UEXT-full\TCPIP\Demo App\CustomHTTPApp.c
              __string_28   0x008863    program     static F:\PIC-web\c18\PIC-WEB-5-42-UEXT-full\Microchip\TCPIP Stack\HTTP2.c
              __string_28   0x008e5d    program     static F:\PIC-web\c18\PIC-WEB-5-42-UEXT-full\TCPIP\Demo App\CustomHTTPApp.c
              __string_29   0x008e4a    program     static F:\PIC-web\c18\PIC-WEB-5-42-UEXT-full\TCPIP\Demo App\CustomHTTPApp.c
              __string_29   0x0087c5    program     static F:\PIC-web\c18\PIC-WEB-5-42-UEXT-full\Microchip\TCPIP Stack\HTTP2.c
               __string_3   0x0092df    program     static F:\PIC-web\c18\PIC-WEB-5-42-UEXT-full\TCPIP\Demo App\UARTConfig.c
               __string_3   0x0090f0    program     static F:\PIC-web\c18\PIC-WEB-5-42-UEXT-full\TCPIP\Demo App\GenericTCPClient.c
               __string_3   0x008ab4    program     static F:\PIC-web\c18\PIC-WEB-5-42-UEXT-full\Microchip\TCPIP Stack\TCPPerformanceTest.c
               __string_3   0x00914c    program     static F:\PIC-web\c18\PIC-WEB-5-42-UEXT-full\TCPIP\Demo App\SMTPDemo.c
               __string_3   0x008f1f    program     static F:\PIC-web\c18\PIC-WEB-5-42-UEXT-full\TCPIP\Demo App\CustomHTTPApp.c
               __string_3   0x008f32    program     static F:\PIC-web\c18\PIC-WEB-5-42-UEXT-full\TCPIP\Demo App\MainDemo.c
               __string_3   0x008a75    program     static F:\PIC-web\c18\PIC-WEB-5-42-UEXT-full\Microchip\TCPIP Stack\SMTP.c
               __string_3   0x009056    program     static F:\PIC-web\c18\PIC-WEB-5-42-UEXT-full\TCPIP\Demo App\BerkeleyTCPClientDemo.c
              __string_30   0x008e3a    program     static F:\PIC-web\c18\PIC-WEB-5-42-UEXT-full\TCPIP\Demo App\CustomHTTPApp.c
              __string_30   0x008758    program     static F:\PIC-web\c18\PIC-WEB-5-42-UEXT-full\Microchip\TCPIP Stack\HTTP2.c
              __string_31   0x008e37    program     static F:\PIC-web\c18\PIC-WEB-5-42-UEXT-full\TCPIP\Demo App\CustomHTTPApp.c
              __string_31   0x0086e8    program     static F:\PIC-web\c18\PIC-WEB-5-42-UEXT-full\Microchip\TCPIP Stack\HTTP2.c
              __string_32   0x008e34    program     static F:\PIC-web\c18\PIC-WEB-5-42-UEXT-full\TCPIP\Demo App\CustomHTTPApp.c
              __string_32   0x008682    program     static F:\PIC-web\c18\PIC-WEB-5-42-UEXT-full\Microchip\TCPIP Stack\HTTP2.c
              __string_33   0x008e30    program     static F:\PIC-web\c18\PIC-WEB-5-42-UEXT-full\TCPIP\Demo App\CustomHTTPApp.c
              __string_33   0x008562    program     static F:\PIC-web\c18\PIC-WEB-5-42-UEXT-full\Microchip\TCPIP Stack\HTTP2.c
              __string_34   0x008e2b    program     static F:\PIC-web\c18\PIC-WEB-5-42-UEXT-full\TCPIP\Demo App\CustomHTTPApp.c
              __string_34   0x0084b5    program     static F:\PIC-web\c18\PIC-WEB-5-42-UEXT-full\Microchip\TCPIP Stack\HTTP2.c
              __string_35   0x0083e2    program     static F:\PIC-web\c18\PIC-WEB-5-42-UEXT-full\Microchip\TCPIP Stack\HTTP2.c
              __string_35   0x008e26    program     static F:\PIC-web\c18\PIC-WEB-5-42-UEXT-full\TCPIP\Demo App\CustomHTTPApp.c
              __string_36   0x0083b0    program     static F:\PIC-web\c18\PIC-WEB-5-42-UEXT-full\Microchip\TCPIP Stack\HTTP2.c
              __string_36   0x008e22    program     static F:\PIC-web\c18\PIC-WEB-5-42-UEXT-full\TCPIP\Demo App\CustomHTTPApp.c
              __string_37   0x008359    program     static F:\PIC-web\c18\PIC-WEB-5-42-UEXT-full\Microchip\TCPIP Stack\HTTP2.c
              __string_37   0x008e1d    program     static F:\PIC-web\c18\PIC-WEB-5-42-UEXT-full\TCPIP\Demo App\CustomHTTPApp.c
              __string_38   0x008351    program     static F:\PIC-web\c18\PIC-WEB-5-42-UEXT-full\Microchip\TCPIP Stack\HTTP2.c
              __string_38   0x008e18    program     static F:\PIC-web\c18\PIC-WEB-5-42-UEXT-full\TCPIP\Demo App\CustomHTTPApp.c
              __string_39   0x008342    program     static F:\PIC-web\c18\PIC-WEB-5-42-UEXT-full\Microchip\TCPIP Stack\HTTP2.c
              __string_39   0x008e03    program     static F:\PIC-web\c18\PIC-WEB-5-42-UEXT-full\TCPIP\Demo App\CustomHTTPApp.c
               __string_4   0x0092b9    program     static F:\PIC-web\c18\PIC-WEB-5-42-UEXT-full\TCPIP\Demo App\UARTConfig.c
               __string_4   0x009133    program     static F:\PIC-web\c18\PIC-WEB-5-42-UEXT-full\TCPIP\Demo App\SMTPDemo.c
               __string_4   0x008a69    program     static F:\PIC-web\c18\PIC-WEB-5-42-UEXT-full\Microchip\TCPIP Stack\SMTP.c
               __string_4   0x008f9a    program     static F:\PIC-web\c18\PIC-WEB-5-42-UEXT-full\TCPIP\Demo App\BerkeleyTCPClientDemo.c
               __string_4   0x008f15    program     static F:\PIC-web\c18\PIC-WEB-5-42-UEXT-full\TCPIP\Demo App\CustomHTTPApp.c
               __string_4   0x0089fc    program     static F:\PIC-web\c18\PIC-WEB-5-42-UEXT-full\Microchip\TCPIP Stack\HTTP2.c
               __string_4   0x0090de    program     static F:\PIC-web\c18\PIC-WEB-5-42-UEXT-full\TCPIP\Demo App\GenericTCPClient.c
              __string_40   0x008def    program     static F:\PIC-web\c18\PIC-WEB-5-42-UEXT-full\TCPIP\Demo App\CustomHTTPApp.c
              __string_40   0x008332    program     static F:\PIC-web\c18\PIC-WEB-5-42-UEXT-full\Microchip\TCPIP Stack\HTTP2.c
              __string_41   0x008dec    program     static F:\PIC-web\c18\PIC-WEB-5-42-UEXT-full\TCPIP\Demo App\CustomHTTPApp.c
              __string_41   0x00832e    program     static F:\PIC-web\c18\PIC-WEB-5-42-UEXT-full\Microchip\TCPIP Stack\HTTP2.c
              __string_42   0x008de7    program     static F:\PIC-web\c18\PIC-WEB-5-42-UEXT-full\TCPIP\Demo App\CustomHTTPApp.c
              __string_42   0x008329    program     static F:\PIC-web\c18\PIC-WEB-5-42-UEXT-full\Microchip\TCPIP Stack\HTTP2.c
              __string_43   0x008dc2    program     static F:\PIC-web\c18\PIC-WEB-5-42-UEXT-full\TCPIP\Demo App\CustomHTTPApp.c
              __string_43   0x00831e    program     static F:\PIC-web\c18\PIC-WEB-5-42-UEXT-full\Microchip\TCPIP Stack\HTTP2.c
              __string_44   0x008314    program     static F:\PIC-web\c18\PIC-WEB-5-42-UEXT-full\Microchip\TCPIP Stack\HTTP2.c
              __string_44   0x008d97    program     static F:\PIC-web\c18\PIC-WEB-5-42-UEXT-full\TCPIP\Demo App\CustomHTTPApp.c
              __string_45   0x008d4f    program     static F:\PIC-web\c18\PIC-WEB-5-42-UEXT-full\TCPIP\Demo App\CustomHTTPApp.c
              __string_45   0x008301    program     static F:\PIC-web\c18\PIC-WEB-5-42-UEXT-full\Microchip\TCPIP Stack\HTTP2.c
              __string_46   0x008d48    program     static F:\PIC-web\c18\PIC-WEB-5-42-UEXT-full\TCPIP\Demo App\CustomHTTPApp.c
              __string_46   0x0082f2    program     static F:\PIC-web\c18\PIC-WEB-5-42-UEXT-full\Microchip\TCPIP Stack\HTTP2.c
              __string_47   0x0082d9    program     static F:\PIC-web\c18\PIC-WEB-5-42-UEXT-full\Microchip\TCPIP Stack\HTTP2.c
              __string_47   0x008d43    program     static F:\PIC-web\c18\PIC-WEB-5-42-UEXT-full\TCPIP\Demo App\CustomHTTPApp.c
              __string_48   0x0082c9    program     static F:\PIC-web\c18\PIC-WEB-5-42-UEXT-full\Microchip\TCPIP Stack\HTTP2.c
              __string_48   0x008d3e    program     static F:\PIC-web\c18\PIC-WEB-5-42-UEXT-full\TCPIP\Demo App\CustomHTTPApp.c
              __string_49   0x0082c0    program     static F:\PIC-web\c18\PIC-WEB-5-42-UEXT-full\Microchip\TCPIP Stack\HTTP2.c
              __string_49   0x008d39    program     static F:\PIC-web\c18\PIC-WEB-5-42-UEXT-full\TCPIP\Demo App\CustomHTTPApp.c
               __string_5   0x008a65    program     static F:\PIC-web\c18\PIC-WEB-5-42-UEXT-full\Microchip\TCPIP Stack\SMTP.c
               __string_5   0x008f0b    program     static F:\PIC-web\c18\PIC-WEB-5-42-UEXT-full\TCPIP\Demo App\CustomHTTPApp.c
               __string_5   0x0089f8    program     static F:\PIC-web\c18\PIC-WEB-5-42-UEXT-full\Microchip\TCPIP Stack\HTTP2.c
               __string_5   0x0090c6    program     static F:\PIC-web\c18\PIC-WEB-5-42-UEXT-full\TCPIP\Demo App\GenericTCPClient.c
               __string_5   0x009296    program     static F:\PIC-web\c18\PIC-WEB-5-42-UEXT-full\TCPIP\Demo App\UARTConfig.c
              __string_50   0x008d36    program     static F:\PIC-web\c18\PIC-WEB-5-42-UEXT-full\TCPIP\Demo App\CustomHTTPApp.c
              __string_50   0x0082b7    program     static F:\PIC-web\c18\PIC-WEB-5-42-UEXT-full\Microchip\TCPIP Stack\HTTP2.c
              __string_51   0x0082b3    program     static F:\PIC-web\c18\PIC-WEB-5-42-UEXT-full\Microchip\TCPIP Stack\HTTP2.c
              __string_51   0x008d32    program     static F:\PIC-web\c18\PIC-WEB-5-42-UEXT-full\TCPIP\Demo App\CustomHTTPApp.c
              __string_52   0x0082a6    program     static F:\PIC-web\c18\PIC-WEB-5-42-UEXT-full\Microchip\TCPIP Stack\HTTP2.c
              __string_52   0x008d03    program     static F:\PIC-web\c18\PIC-WEB-5-42-UEXT-full\TCPIP\Demo App\CustomHTTPApp.c
              __string_53   0x0082a1    program     static F:\PIC-web\c18\PIC-WEB-5-42-UEXT-full\Microchip\TCPIP Stack\HTTP2.c
              __string_53   0x008cda    program     static F:\PIC-web\c18\PIC-WEB-5-42-UEXT-full\TCPIP\Demo App\CustomHTTPApp.c
              __string_54   0x008296    program     static F:\PIC-web\c18\PIC-WEB-5-42-UEXT-full\Microchip\TCPIP Stack\HTTP2.c
              __string_54   0x008c79    program     static F:\PIC-web\c18\PIC-WEB-5-42-UEXT-full\TCPIP\Demo App\CustomHTTPApp.c
              __string_55   0x008c69    program     static F:\PIC-web\c18\PIC-WEB-5-42-UEXT-full\TCPIP\Demo App\CustomHTTPApp.c
              __string_56   0x008c5f    program     static F:\PIC-web\c18\PIC-WEB-5-42-UEXT-full\TCPIP\Demo App\CustomHTTPApp.c
              __string_57   0x008c58    program     static F:\PIC-web\c18\PIC-WEB-5-42-UEXT-full\TCPIP\Demo App\CustomHTTPApp.c
              __string_58   0x008c52    program     static F:\PIC-web\c18\PIC-WEB-5-42-UEXT-full\TCPIP\Demo App\CustomHTTPApp.c
              __string_59   0x008c43    program     static F:\PIC-web\c18\PIC-WEB-5-42-UEXT-full\TCPIP\Demo App\CustomHTTPApp.c
               __string_6   0x00926d    program     static F:\PIC-web\c18\PIC-WEB-5-42-UEXT-full\TCPIP\Demo App\UARTConfig.c
               __string_6   0x008a5b    program     static F:\PIC-web\c18\PIC-WEB-5-42-UEXT-full\Microchip\TCPIP Stack\SMTP.c
               __string_6   0x0089f3    program     static F:\PIC-web\c18\PIC-WEB-5-42-UEXT-full\Microchip\TCPIP Stack\HTTP2.c
               __string_6   0x008f05    program     static F:\PIC-web\c18\PIC-WEB-5-42-UEXT-full\TCPIP\Demo App\CustomHTTPApp.c
              __string_60   0x008c32    program     static F:\PIC-web\c18\PIC-WEB-5-42-UEXT-full\TCPIP\Demo App\CustomHTTPApp.c
              __string_61   0x008c1d    program     static F:\PIC-web\c18\PIC-WEB-5-42-UEXT-full\TCPIP\Demo App\CustomHTTPApp.c
              __string_62   0x008c17    program     static F:\PIC-web\c18\PIC-WEB-5-42-UEXT-full\TCPIP\Demo App\CustomHTTPApp.c
              __string_65   0x008c0e    program     static F:\PIC-web\c18\PIC-WEB-5-42-UEXT-full\TCPIP\Demo App\CustomHTTPApp.c
              __string_66   0x008bff    program     static F:\PIC-web\c18\PIC-WEB-5-42-UEXT-full\TCPIP\Demo App\CustomHTTPApp.c
              __string_67   0x008bfa    program     static F:\PIC-web\c18\PIC-WEB-5-42-UEXT-full\TCPIP\Demo App\CustomHTTPApp.c
              __string_68   0x008bf2    program     static F:\PIC-web\c18\PIC-WEB-5-42-UEXT-full\TCPIP\Demo App\CustomHTTPApp.c
              __string_69   0x008bea    program     static F:\PIC-web\c18\PIC-WEB-5-42-UEXT-full\TCPIP\Demo App\CustomHTTPApp.c
               __string_7   0x008ef7    program     static F:\PIC-web\c18\PIC-WEB-5-42-UEXT-full\TCPIP\Demo App\CustomHTTPApp.c
               __string_7   0x0089ef    program     static F:\PIC-web\c18\PIC-WEB-5-42-UEXT-full\Microchip\TCPIP Stack\HTTP2.c
               __string_7   0x008b5d    program     static F:\PIC-web\c18\PIC-WEB-5-42-UEXT-full\Microchip\TCPIP Stack\Telnet.c
               __string_7   0x009242    program     static F:\PIC-web\c18\PIC-WEB-5-42-UEXT-full\TCPIP\Demo App\UARTConfig.c
               __string_7   0x008a54    program     static F:\PIC-web\c18\PIC-WEB-5-42-UEXT-full\Microchip\TCPIP Stack\SMTP.c
              __string_70   0x008bd5    program     static F:\PIC-web\c18\PIC-WEB-5-42-UEXT-full\TCPIP\Demo App\CustomHTTPApp.c
              __string_71   0x008baf    program     static F:\PIC-web\c18\PIC-WEB-5-42-UEXT-full\TCPIP\Demo App\CustomHTTPApp.c
              __string_72   0x008ba7    program     static F:\PIC-web\c18\PIC-WEB-5-42-UEXT-full\TCPIP\Demo App\CustomHTTPApp.c
              __string_73   0x008ba2    program     static F:\PIC-web\c18\PIC-WEB-5-42-UEXT-full\TCPIP\Demo App\CustomHTTPApp.c
              __string_74   0x008b7b    program     static F:\PIC-web\c18\PIC-WEB-5-42-UEXT-full\TCPIP\Demo App\CustomHTTPApp.c
              __string_75   0x008b76    program     static F:\PIC-web\c18\PIC-WEB-5-42-UEXT-full\TCPIP\Demo App\CustomHTTPApp.c
              __string_76   0x008b70    program     static F:\PIC-web\c18\PIC-WEB-5-42-UEXT-full\TCPIP\Demo App\CustomHTTPApp.c
               __string_8   0x008b57    program     static F:\PIC-web\c18\PIC-WEB-5-42-UEXT-full\Microchip\TCPIP Stack\Telnet.c
               __string_8   0x0089eb    program     static F:\PIC-web\c18\PIC-WEB-5-42-UEXT-full\Microchip\TCPIP Stack\HTTP2.c
               __string_8   0x008ef2    program     static F:\PIC-web\c18\PIC-WEB-5-42-UEXT-full\TCPIP\Demo App\CustomHTTPApp.c
               __string_8   0x00923b    program     static F:\PIC-web\c18\PIC-WEB-5-42-UEXT-full\TCPIP\Demo App\UARTConfig.c
               __string_8   0x008a4d    program     static F:\PIC-web\c18\PIC-WEB-5-42-UEXT-full\Microchip\TCPIP Stack\SMTP.c
               __string_9   0x009237    program     static F:\PIC-web\c18\PIC-WEB-5-42-UEXT-full\TCPIP\Demo App\UARTConfig.c
               __string_9   0x008ee9    program     static F:\PIC-web\c18\PIC-WEB-5-42-UEXT-full\TCPIP\Demo App\CustomHTTPApp.c
               __string_9   0x008b46    program     static F:\PIC-web\c18\PIC-WEB-5-42-UEXT-full\Microchip\TCPIP Stack\Telnet.c
               __string_9   0x0089e7    program     static F:\PIC-web\c18\PIC-WEB-5-42-UEXT-full\Microchip\TCPIP Stack\HTTP2.c
               __string_9   0x008a46    program     static F:\PIC-web\c18\PIC-WEB-5-42-UEXT-full\Microchip\TCPIP Stack\SMTP.c
               __tmplbl_0   0x014c5c    program     static                          
               __tmplbl_0   0x00c65e    program     static                          
               __tmplbl_0   0x00f850    program     static                          
               __tmplbl_1   0x00f8c6    program     static                          
              __tmplbl_10   0x00e494    program     static                          
             __tmplbl_100   0x00300e    program     static                          
             __tmplbl_102   0x00300e    program     static                          
             __tmplbl_103   0x00300e    program     static                          
             __tmplbl_104   0x00300e    program     static                          
             __tmplbl_105   0x00300e    program     static                          
             __tmplbl_108   0x00300e    program     static                          
              __tmplbl_11   0x00e492    program     static                          
             __tmplbl_110   0x00312e    program     static                          
             __tmplbl_112   0x00312e    program     static                          
              __tmplbl_12   0x00e526    program     static                          
              __tmplbl_13   0x00e518    program     static                          
             __tmplbl_136   0x0046b0    program     static                          
             __tmplbl_137   0x00466a    program     static                          
             __tmplbl_138   0x00463c    program     static                          
              __tmplbl_14   0x00e51e    program     static                          
             __tmplbl_146   0x0046ca    program     static                          
             __tmplbl_147   0x0046ca    program     static                          
             __tmplbl_148   0x0046ca    program     static                          
             __tmplbl_151   0x00328c    program     static                          
             __tmplbl_153   0x002faa    program     static                          
             __tmplbl_154   0x002b2c    program     static                          
             __tmplbl_156   0x00328c    program     static                          
             __tmplbl_162   0x003dda    program     static                          
             __tmplbl_164   0x002faa    program     static                          
               __tmplbl_2   0x005c52    program     static                          
               __tmplbl_2   0x00f928    program     static                          
               __tmplbl_3   0x00f98e    program     static                          
               __tmplbl_3   0x005c4e    program     static                          
              __tmplbl_38   0x00d016    program     static                          
               __tmplbl_4   0x005c94    program     static                          
               __tmplbl_5   0x00e4ca    program     static                          
               __tmplbl_5   0x005c90    program     static                          
               __tmplbl_6   0x005cd6    program     static                          
               __tmplbl_6   0x00e4c0    program     static                          
               __tmplbl_7   0x005cd2    program     static                          
               __tmplbl_7   0x00e4b2    program     static                          
              __tmplbl_72   0x006f4a    program     static                          
              __tmplbl_73   0x006f4a    program     static                          
              __tmplbl_74   0x006f4a    program     static                          
              __tmplbl_75   0x006f4a    program     static                          
              __tmplbl_76   0x006f4a    program     static                          
               __tmplbl_8   0x005d18    program     static                          
               __tmplbl_8   0x00e4a8    program     static                          
              __tmplbl_84   0x007c46    program     static                          
              __tmplbl_88   0x007c4a    program     static                          
               __tmplbl_9   0x00e49e    program     static                          
               __tmplbl_9   0x005d14    program     static                          
              __tmplbl_91   0x007c4a    program     static                          
              __tmplbl_92   0x007c4a    program     static                          
              __tmplbl_96   0x00300e    program     static                          
              __tmplbl_97   0x00300e    program     static                          
            __zero_memory   0x015b8e    program     extern E:\3.46\pic18-lt\cxx-framework\src\traditional\proc\p18f67j60.asm
                _do_cinit   0x015888    program     extern E:\3.46\pic18-lt\cxx-framework\src\traditional\startup\c018i.c
                   _entry   0x000000    program     extern E:\3.46\pic18-lt\cxx-framework\src\traditional\startup\c018i.c
                   _false   0x015ab2    program     static                          
                 _startup   0x015bda    program     extern E:\3.46\pic18-lt\cxx-framework\src\traditional\startup\c018i.c
                   accept   0x0096a2    program     extern F:\PIC-web\c18\PIC-WEB-5-42-UEXT-full\Microchip\TCPIP Stack\BerkeleyAPI.c
                     atoi   0x011278    program     extern E:\3.46\pic18-lt\cxx-framework\src\traditional\stdclib\atoi.asm
                     atol   0x011362    program     extern E:\3.46\pic18-lt\cxx-framework\src\traditional\stdclib\atol.asm
                     bind   0x00947c    program     extern F:\PIC-web\c18\PIC-WEB-5-42-UEXT-full\Microchip\TCPIP Stack\BerkeleyAPI.c
             btohexa_high   0x00cbfe    program     extern F:\PIC-web\c18\PIC-WEB-5-42-UEXT-full\Microchip\TCPIP Stack\Helpers.c
              btohexa_low   0x00cc1a    program     extern F:\PIC-web\c18\PIC-WEB-5-42-UEXT-full\Microchip\TCPIP Stack\Helpers.c
              closesocket   0x009e14    program     extern F:\PIC-web\c18\PIC-WEB-5-42-UEXT-full\Microchip\TCPIP Stack\BerkeleyAPI.c
                compare_l   0x015bb0    program     static E:\3.46\pic18-lt\cxx-framework\src\traditional\proc\p18f67j60.asm
                  connect   0x0097ee    program     extern F:\PIC-web\c18\PIC-WEB-5-42-UEXT-full\Microchip\TCPIP Stack\BerkeleyAPI.c
                copy_loop   0x0158fa    program     static                          
            copy_one_byte   0x015900    program     static                          
                     done   0x015924    program     static                          
             done_copying   0x01590e    program     static                          
                  endloop   0x015b88    program     static                          
                    frexp   0x014ccc    program     extern E:\3.46\pic18-lt\cxx-framework\src\traditional\stdclib\frexp.c
getIndexByMacaddr_DhcpPool   0x00b364    program     static F:\PIC-web\c18\PIC-WEB-5-42-UEXT-full\Microchip\TCPIP Stack\DHCPs.c
              gethostname   0x009d6a    program     extern F:\PIC-web\c18\PIC-WEB-5-42-UEXT-full\Microchip\TCPIP Stack\BerkeleyAPI.c
                 getsSPI1   0x015734    program     extern F:\PIC-web\c18\PIC-WEB-5-42-UEXT-full\TCPIP\Demo App\Olimex_Demo_Files\Custom_SPI_Low.c
                getsUSART   0x0152e0    program     extern F:\PIC-web\c18\PIC-WEB-5-42-UEXT-full\Microchip\TCPIP Stack\UART.c
                  hexatob   0x00cbc4    program     extern F:\PIC-web\c18\PIC-WEB-5-42-UEXT-full\Microchip\TCPIP Stack\Helpers.c
         httpContentTypes   0x01594d    program     static F:\PIC-web\c18\PIC-WEB-5-42-UEXT-full\Microchip\TCPIP Stack\HTTP2.c
       httpFileExtensions   0x015929    program     static F:\PIC-web\c18\PIC-WEB-5-42-UEXT-full\Microchip\TCPIP Stack\HTTP2.c
           isIpAddrInPool   0x00b3b6    program     static F:\PIC-web\c18\PIC-WEB-5-42-UEXT-full\Microchip\TCPIP Stack\DHCPs.c
      isMacAddr_Effective   0x00b4a8    program     static F:\PIC-web\c18\PIC-WEB-5-42-UEXT-full\Microchip\TCPIP Stack\DHCPs.c
                   itoBCD   0x011598    program     extern E:\3.46\pic18-lt\cxx-framework\src\traditional\stdclib\itobcd.asm
                     itoa   0x0114b8    program     extern E:\3.46\pic18-lt\cxx-framework\src\traditional\stdclib\itoa.asm
                 jANotInf   0x010176    program     static E:\3.46\pic18-lt\cxx-framework\src\traditional\math\mulFP.asm
                 jANotInf   0x00fd6a    program     static E:\3.46\pic18-lt\cxx-framework\src\traditional\math\divFP.asm
                 jANotInf   0x00fe1c    program     static E:\3.46\pic18-lt\cxx-framework\src\traditional\math\addFP.asm
                 jANotNeg   0x00feb0    program     static E:\3.46\pic18-lt\cxx-framework\src\traditional\math\addFP.asm
                jANotZero   0x00fd7e    program     static E:\3.46\pic18-lt\cxx-framework\src\traditional\math\divFP.asm
              jAandWsetup   0x00fe80    program     static E:\3.46\pic18-lt\cxx-framework\src\traditional\math\addFP.asm
                  jAisNeg   0x0102c0    program     static E:\3.46\pic18-lt\cxx-framework\src\traditional\math\compFP.asm
                 jAltBexp   0x00fe6e    program     static E:\3.46\pic18-lt\cxx-framework\src\traditional\math\addFP.asm
                jBANotInf   0x00fe12    program     static E:\3.46\pic18-lt\cxx-framework\src\traditional\math\addFP.asm
                 jBNotInf   0x00fe2a    program     static E:\3.46\pic18-lt\cxx-framework\src\traditional\math\addFP.asm
              jBothFinite   0x010184    program     static E:\3.46\pic18-lt\cxx-framework\src\traditional\math\mulFP.asm
             jBothNotZero   0x010190    program     static E:\3.46\pic18-lt\cxx-framework\src\traditional\math\mulFP.asm
             jBothNotZero   0x010262    program     static E:\3.46\pic18-lt\cxx-framework\src\traditional\math\compFP.asm
            jDifOrPosSign   0x00fe3e    program     static E:\3.46\pic18-lt\cxx-framework\src\traditional\math\addFP.asm
                     jDo1   0x01153e    program     static E:\3.46\pic18-lt\cxx-framework\src\traditional\stdclib\itoa.asm
                     jDo1   0x01169c    program     static E:\3.46\pic18-lt\cxx-framework\src\traditional\stdclib\ultoa.asm
                    jDo10   0x011678    program     static E:\3.46\pic18-lt\cxx-framework\src\traditional\stdclib\ultoa.asm
                     jDo2   0x011698    program     static E:\3.46\pic18-lt\cxx-framework\src\traditional\stdclib\ultoa.asm
                     jDo2   0x01153a    program     static E:\3.46\pic18-lt\cxx-framework\src\traditional\stdclib\itoa.asm
                     jDo3   0x011694    program     static E:\3.46\pic18-lt\cxx-framework\src\traditional\stdclib\ultoa.asm
                     jDo3   0x011536    program     static E:\3.46\pic18-lt\cxx-framework\src\traditional\stdclib\itoa.asm
                     jDo4   0x011690    program     static E:\3.46\pic18-lt\cxx-framework\src\traditional\stdclib\ultoa.asm
                     jDo4   0x011532    program     static E:\3.46\pic18-lt\cxx-framework\src\traditional\stdclib\itoa.asm
                     jDo5   0x01152e    program     static E:\3.46\pic18-lt\cxx-framework\src\traditional\stdclib\itoa.asm
                     jDo5   0x01168c    program     static E:\3.46\pic18-lt\cxx-framework\src\traditional\stdclib\ultoa.asm
                     jDo6   0x011688    program     static E:\3.46\pic18-lt\cxx-framework\src\traditional\stdclib\ultoa.asm
                     jDo7   0x011684    program     static E:\3.46\pic18-lt\cxx-framework\src\traditional\stdclib\ultoa.asm
                     jDo8   0x011680    program     static E:\3.46\pic18-lt\cxx-framework\src\traditional\stdclib\ultoa.asm
                     jDo9   0x01167c    program     static E:\3.46\pic18-lt\cxx-framework\src\traditional\stdclib\ultoa.asm
                      jEQ   0x01027e    program     static E:\3.46\pic18-lt\cxx-framework\src\traditional\math\compFP.asm
                     jEnd   0x0120d0    program     static E:\3.46\pic18-lt\cxx-framework\src\traditional\stdclib\mcmpp2r.asm
                     jEnd   0x011750    program     static E:\3.46\pic18-lt\cxx-framework\src\traditional\stdclib\ltobcd.asm
                     jEnd   0x01224a    program     static E:\3.46\pic18-lt\cxx-framework\src\traditional\stdclib\strcmp.asm
                     jEnd   0x01236e    program     static E:\3.46\pic18-lt\cxx-framework\src\traditional\stdclib\strncpy.asm
                     jEnd   0x01228a    program     static E:\3.46\pic18-lt\cxx-framework\src\traditional\stdclib\scmpp2r.asm
                     jEnd   0x01220c    program     static E:\3.46\pic18-lt\cxx-framework\src\traditional\stdclib\schrpgm.asm
                     jEnd   0x0121c8    program     static E:\3.46\pic18-lt\cxx-framework\src\traditional\stdclib\strchr.asm
                     jEnd   0x0123ee    program     static E:\3.46\pic18-lt\cxx-framework\src\traditional\stdclib\strupr.asm
                     jEnd   0x011336    program     static E:\3.46\pic18-lt\cxx-framework\src\traditional\stdclib\atoi.asm
                     jEnd   0x012116    program     static E:\3.46\pic18-lt\cxx-framework\src\traditional\stdclib\memcpy.asm
                     jEnd   0x01207e    program     static E:\3.46\pic18-lt\cxx-framework\src\traditional\stdclib\memcmp.asm
                     jEnd   0x011480    program     static E:\3.46\pic18-lt\cxx-framework\src\traditional\stdclib\atol.asm
                     jEnd   0x0115d6    program     static E:\3.46\pic18-lt\cxx-framework\src\traditional\stdclib\itobcd.asm
                     jEnd   0x012310    program     static E:\3.46\pic18-lt\cxx-framework\src\traditional\stdclib\slenpgm.asm
                     jEnd   0x0122bc    program     static E:\3.46\pic18-lt\cxx-framework\src\traditional\stdclib\scpyp2r.asm
                     jEnd   0x01216c    program     static E:\3.46\pic18-lt\cxx-framework\src\traditional\stdclib\mcpyp2r.asm
                     jEnd   0x0122d8    program     static E:\3.46\pic18-lt\cxx-framework\src\traditional\stdclib\strlen.asm
                     jEnd   0x0121a0    program     static E:\3.46\pic18-lt\cxx-framework\src\traditional\stdclib\memset.asm
                 jEndLoop   0x011450    program     static E:\3.46\pic18-lt\cxx-framework\src\traditional\stdclib\atol.asm
                 jEndLoop   0x01131e    program     static E:\3.46\pic18-lt\cxx-framework\src\traditional\stdclib\atoi.asm
                    jExch   0x01028a    program     static E:\3.46\pic18-lt\cxx-framework\src\traditional\math\compFP.asm
                    jExit   0x01004a    program     static E:\3.46\pic18-lt\cxx-framework\src\traditional\math\castFP16.asm
                   jExpEQ   0x0102d0    program     static E:\3.46\pic18-lt\cxx-framework\src\traditional\math\compFP.asm
                   jFinal   0x0102b4    program     static E:\3.46\pic18-lt\cxx-framework\src\traditional\math\compFP.asm
               jFinalSign   0x00ff18    program     static E:\3.46\pic18-lt\cxx-framework\src\traditional\math\addFP.asm
                jHaveZero   0x01018c    program     static E:\3.46\pic18-lt\cxx-framework\src\traditional\math\mulFP.asm
                jI2F16Beg   0x00fd36    program     static E:\3.46\pic18-lt\cxx-framework\src\traditional\math\cast16FP.asm
               jInnerLoop   0x0123a6    program     static E:\3.46\pic18-lt\cxx-framework\src\traditional\stdclib\sstrrp.asm
                    jLoop   0x01227e    program     static E:\3.46\pic18-lt\cxx-framework\src\traditional\stdclib\scmpp2r.asm
                    jLoop   0x012240    program     static E:\3.46\pic18-lt\cxx-framework\src\traditional\stdclib\strcmp.asm
                    jLoop   0x0121dc    program     static E:\3.46\pic18-lt\cxx-framework\src\traditional\stdclib\schrpgm.asm
                    jLoop   0x0122b2    program     static E:\3.46\pic18-lt\cxx-framework\src\traditional\stdclib\scpyp2r.asm
                    jLoop   0x0121ae    program     static E:\3.46\pic18-lt\cxx-framework\src\traditional\stdclib\strchr.asm
                    jLoop   0x0122ce    program     static E:\3.46\pic18-lt\cxx-framework\src\traditional\stdclib\strlen.asm
                    jLoop   0x012182    program     static E:\3.46\pic18-lt\cxx-framework\src\traditional\stdclib\memset.asm
                    jLoop   0x0122f8    program     static E:\3.46\pic18-lt\cxx-framework\src\traditional\stdclib\slenpgm.asm
                    jLoop   0x01214e    program     static E:\3.46\pic18-lt\cxx-framework\src\traditional\stdclib\mcpyp2r.asm
                    jLoop   0x01234c    program     static E:\3.46\pic18-lt\cxx-framework\src\traditional\stdclib\strncpy.asm
                    jLoop   0x0120fa    program     static E:\3.46\pic18-lt\cxx-framework\src\traditional\stdclib\memcpy.asm
                    jLoop   0x0120b2    program     static E:\3.46\pic18-lt\cxx-framework\src\traditional\stdclib\mcmpp2r.asm
                    jLoop   0x012062    program     static E:\3.46\pic18-lt\cxx-framework\src\traditional\stdclib\memcmp.asm
                    jLoop   0x0123da    program     static E:\3.46\pic18-lt\cxx-framework\src\traditional\stdclib\strupr.asm
                    jLoop   0x01002a    program     static E:\3.46\pic18-lt\cxx-framework\src\traditional\math\castFP16.asm
                    jLoop   0x00fda6    program     static E:\3.46\pic18-lt\cxx-framework\src\traditional\math\divFP.asm
                    jLoop   0x0115b0    program     static E:\3.46\pic18-lt\cxx-framework\src\traditional\stdclib\itobcd.asm
                    jLoop   0x011712    program     static E:\3.46\pic18-lt\cxx-framework\src\traditional\stdclib\ltobcd.asm
                    jLoop   0x0113c2    program     static E:\3.46\pic18-lt\cxx-framework\src\traditional\stdclib\atol.asm
                    jLoop   0x0112d0    program     static E:\3.46\pic18-lt\cxx-framework\src\traditional\stdclib\atoi.asm
                jLoopExit   0x01003a    program     static E:\3.46\pic18-lt\cxx-framework\src\traditional\math\castFP16.asm
                   jMatch   0x0121c0    program     static E:\3.46\pic18-lt\cxx-framework\src\traditional\stdclib\strchr.asm
                   jMatch   0x0121fa    program     static E:\3.46\pic18-lt\cxx-framework\src\traditional\stdclib\schrpgm.asm
                     jMax   0x00fffe    program     static E:\3.46\pic18-lt\cxx-framework\src\traditional\math\castFP16.asm
                  jMaxNeg   0x01000c    program     static E:\3.46\pic18-lt\cxx-framework\src\traditional\math\castFP16.asm
                  jMaxPos   0x010002    program     static E:\3.46\pic18-lt\cxx-framework\src\traditional\math\castFP16.asm
                      jNE   0x010282    program     static E:\3.46\pic18-lt\cxx-framework\src\traditional\math\compFP.asm
                    jNext   0x00fdcc    program     static E:\3.46\pic18-lt\cxx-framework\src\traditional\math\divFP.asm
                jNoAdjust   0x00fdca    program     static E:\3.46\pic18-lt\cxx-framework\src\traditional\math\divFP.asm
                  jNoExch   0x0102aa    program     static E:\3.46\pic18-lt\cxx-framework\src\traditional\math\compFP.asm
                 jNoMatch   0x0123b6    program     static E:\3.46\pic18-lt\cxx-framework\src\traditional\stdclib\sstrrp.asm
             jNotBothZero   0x00fe42    program     static E:\3.46\pic18-lt\cxx-framework\src\traditional\math\addFP.asm
                  jNotInf   0x01001a    program     static E:\3.46\pic18-lt\cxx-framework\src\traditional\math\castFP16.asm
                    jNull   0x0123c0    program     static E:\3.46\pic18-lt\cxx-framework\src\traditional\stdclib\sstrrp.asm
               jOuterLoop   0x01238c    program     static E:\3.46\pic18-lt\cxx-framework\src\traditional\stdclib\sstrrp.asm
                  jPkLoop   0x010092    program     static E:\3.46\pic18-lt\cxx-framework\src\traditional\math\packFP.asm
             jPkRoundDone   0x0100dc    program     static E:\3.46\pic18-lt\cxx-framework\src\traditional\math\packFP.asm
               jPkRoundIt   0x0100c4    program     static E:\3.46\pic18-lt\cxx-framework\src\traditional\math\packFP.asm
             jPkShiftDone   0x0100ae    program     static E:\3.46\pic18-lt\cxx-framework\src\traditional\math\packFP.asm
           jReturnPosInf0   0x010068    program     static E:\3.46\pic18-lt\cxx-framework\src\traditional\math\packFP.asm
                  jRotate   0x0102dc    program     static E:\3.46\pic18-lt\cxx-framework\src\traditional\math\compFP.asm
                   jShift   0x0102c6    program     static E:\3.46\pic18-lt\cxx-framework\src\traditional\math\compFP.asm
               jShiftDone   0x00fed8    program     static E:\3.46\pic18-lt\cxx-framework\src\traditional\math\addFP.asm
               jShiftLoop   0x00feca    program     static E:\3.46\pic18-lt\cxx-framework\src\traditional\math\addFP.asm
                jSignDone   0x00ff08    program     static E:\3.46\pic18-lt\cxx-framework\src\traditional\math\addFP.asm
              jSignedZero   0x00fd74    program     static E:\3.46\pic18-lt\cxx-framework\src\traditional\math\divFP.asm
                 jSignsEQ   0x010266    program     static E:\3.46\pic18-lt\cxx-framework\src\traditional\math\compFP.asm
                    jSkip   0x0123ea    program     static E:\3.46\pic18-lt\cxx-framework\src\traditional\stdclib\strupr.asm
                  jSkipWS   0x0112a6    program     static E:\3.46\pic18-lt\cxx-framework\src\traditional\stdclib\atoi.asm
                  jSkipWS   0x011398    program     static E:\3.46\pic18-lt\cxx-framework\src\traditional\stdclib\atol.asm
                 jSkipWS1   0x0113aa    program     static E:\3.46\pic18-lt\cxx-framework\src\traditional\stdclib\atol.asm
                 jSkipWS1   0x0112b8    program     static E:\3.46\pic18-lt\cxx-framework\src\traditional\stdclib\atoi.asm
                jStrMatch   0x0123c4    program     static E:\3.46\pic18-lt\cxx-framework\src\traditional\stdclib\sstrrp.asm
                jTstLowZ1   0x0116e0    program     static E:\3.46\pic18-lt\cxx-framework\src\traditional\stdclib\ultoa.asm
                jTstLowZ1   0x011582    program     static E:\3.46\pic18-lt\cxx-framework\src\traditional\stdclib\itoa.asm
                 jTstSign   0x0113ae    program     static E:\3.46\pic18-lt\cxx-framework\src\traditional\stdclib\atol.asm
                 jTstSign   0x0112bc    program     static E:\3.46\pic18-lt\cxx-framework\src\traditional\stdclib\atoi.asm
                jTstSign1   0x0113ba    program     static E:\3.46\pic18-lt\cxx-framework\src\traditional\stdclib\atol.asm
                jTstSign1   0x0114e4    program     static E:\3.46\pic18-lt\cxx-framework\src\traditional\stdclib\itoa.asm
                jTstSign1   0x0112c8    program     static E:\3.46\pic18-lt\cxx-framework\src\traditional\stdclib\atoi.asm
                jTstSign2   0x0112ce    program     static E:\3.46\pic18-lt\cxx-framework\src\traditional\stdclib\atoi.asm
                jTstSign2   0x0113c0    program     static E:\3.46\pic18-lt\cxx-framework\src\traditional\stdclib\atol.asm
                jTstSign3   0x0112d0    program     static E:\3.46\pic18-lt\cxx-framework\src\traditional\stdclib\atoi.asm
                jTstSign3   0x0113c2    program     static E:\3.46\pic18-lt\cxx-framework\src\traditional\stdclib\atol.asm
                  jUnpkA1   0x010106    program     static E:\3.46\pic18-lt\cxx-framework\src\traditional\math\UnpackFP.asm
                  jUnpkA2   0x01011e    program     static E:\3.46\pic18-lt\cxx-framework\src\traditional\math\UnpackFP.asm
                 jUnpkANZ   0x010114    program     static E:\3.46\pic18-lt\cxx-framework\src\traditional\math\UnpackFP.asm
                  jUnpkB1   0x010136    program     static E:\3.46\pic18-lt\cxx-framework\src\traditional\math\UnpackFP.asm
                  jUnpkB2   0x01014e    program     static E:\3.46\pic18-lt\cxx-framework\src\traditional\math\UnpackFP.asm
                 jUnpkBNZ   0x010144    program     static E:\3.46\pic18-lt\cxx-framework\src\traditional\math\UnpackFP.asm
                 jUnpkNaN   0x010128    program     static E:\3.46\pic18-lt\cxx-framework\src\traditional\math\UnpackFP.asm
                 jWNotNeg   0x00fec4    program     static E:\3.46\pic18-lt\cxx-framework\src\traditional\math\addFP.asm
                    jZero   0x010014    program     static E:\3.46\pic18-lt\cxx-framework\src\traditional\math\castFP16.asm
               jZero1and2   0x01006c    program     static E:\3.46\pic18-lt\cxx-framework\src\traditional\math\packFP.asm
          leftRotateDWORD   0x00cdc0    program     extern F:\PIC-web\c18\PIC-WEB-5-42-UEXT-full\Microchip\TCPIP Stack\Helpers.c
                   listen   0x00954e    program     extern F:\PIC-web\c18\PIC-WEB-5-42-UEXT-full\Microchip\TCPIP Stack\BerkeleyAPI.c
                      log   0x010d7e    program     extern E:\3.46\pic18-lt\cxx-framework\src\traditional\stdclib\log.c
                     loop   0x015bea    program     static                          
                     loop   0x015a7e    program     static                          
                     loop   0x015b6c    program     static                          
                   loop_h   0x015ba8    program     static E:\3.46\pic18-lt\cxx-framework\src\traditional\proc\p18f67j60.asm
                   loop_l   0x015bb2    program     static E:\3.46\pic18-lt\cxx-framework\src\traditional\proc\p18f67j60.asm
                   ltoBCD   0x0116f6    program     extern E:\3.46\pic18-lt\cxx-framework\src\traditional\stdclib\ltobcd.asm
                     main   0x00f7f0    program     extern F:\PIC-web\c18\PIC-WEB-5-42-UEXT-full\TCPIP\Demo App\MainDemo.c
                   memcmp   0x012042    program     extern E:\3.46\pic18-lt\cxx-framework\src\traditional\stdclib\memcmp.asm
            memcmppgm2ram   0x012094    program     extern E:\3.46\pic18-lt\cxx-framework\src\traditional\stdclib\mcmpp2r.asm
                   memcpy   0x0120d2    program     extern E:\3.46\pic18-lt\cxx-framework\src\traditional\stdclib\memcpy.asm
            memcpypgm2ram   0x012128    program     extern E:\3.46\pic18-lt\cxx-framework\src\traditional\stdclib\mcpyp2r.asm
                   memset   0x01216e    program     extern E:\3.46\pic18-lt\cxx-framework\src\traditional\stdclib\memset.asm
postAssign_ToDHCPClient_FromPool   0x00b5d8    program     static F:\PIC-web\c18\PIC-WEB-5-42-UEXT-full\Microchip\TCPIP Stack\DHCPs.c
preAssign_ToDHCPClient_FromPool   0x00b4e4    program     static F:\PIC-web\c18\PIC-WEB-5-42-UEXT-full\Microchip\TCPIP Stack\DHCPs.c
               putrsUSART   0x01533e    program     extern F:\PIC-web\c18\PIC-WEB-5-42-UEXT-full\Microchip\TCPIP Stack\UART.c
                 putsSPI1   0x01575e    program     extern F:\PIC-web\c18\PIC-WEB-5-42-UEXT-full\TCPIP\Demo App\Olimex_Demo_Files\Custom_SPI_Low.c
                putsUSART   0x015314    program     extern F:\PIC-web\c18\PIC-WEB-5-42-UEXT-full\Microchip\TCPIP Stack\UART.c
                     recv   0x009c0a    program     extern F:\PIC-web\c18\PIC-WEB-5-42-UEXT-full\Microchip\TCPIP Stack\BerkeleyAPI.c
                 recvfrom   0x009c9e    program     extern F:\PIC-web\c18\PIC-WEB-5-42-UEXT-full\Microchip\TCPIP Stack\BerkeleyAPI.c
         renew_dhcps_Pool   0x00b2a8    program     static F:\PIC-web\c18\PIC-WEB-5-42-UEXT-full\Microchip\TCPIP Stack\DHCPs.c
                     send   0x00998a    program     extern F:\PIC-web\c18\PIC-WEB-5-42-UEXT-full\Microchip\TCPIP Stack\BerkeleyAPI.c
                   sendto   0x0099b6    program     extern F:\PIC-web\c18\PIC-WEB-5-42-UEXT-full\Microchip\TCPIP Stack\BerkeleyAPI.c
                   socket   0x0093d2    program     extern F:\PIC-web\c18\PIC-WEB-5-42-UEXT-full\Microchip\TCPIP Stack\BerkeleyAPI.c
          strAccessDenied   0x01499d    program     static F:\PIC-web\c18\PIC-WEB-5-42-UEXT-full\Microchip\TCPIP Stack\Telnet.c
         strAuthenticated   0x0149b1    program     static F:\PIC-web\c18\PIC-WEB-5-42-UEXT-full\Microchip\TCPIP Stack\Telnet.c
               strDisplay   0x0149e3    program     static F:\PIC-web\c18\PIC-WEB-5-42-UEXT-full\Microchip\TCPIP Stack\Telnet.c
               strGoodBye   0x014a57    program     static F:\PIC-web\c18\PIC-WEB-5-42-UEXT-full\Microchip\TCPIP Stack\Telnet.c
              strPassword   0x01498f    program     static F:\PIC-web\c18\PIC-WEB-5-42-UEXT-full\Microchip\TCPIP Stack\Telnet.c
                strSpaces   0x014a4c    program     static F:\PIC-web\c18\PIC-WEB-5-42-UEXT-full\Microchip\TCPIP Stack\Telnet.c
                 strTitle   0x01490a    program     static F:\PIC-web\c18\PIC-WEB-5-42-UEXT-full\Microchip\TCPIP Stack\Telnet.c
                   strchr   0x0121a2    program     extern E:\3.46\pic18-lt\cxx-framework\src\traditional\stdclib\strchr.asm
                strchrpgm   0x0121ca    program     extern E:\3.46\pic18-lt\cxx-framework\src\traditional\stdclib\schrpgm.asm
                   strcmp   0x012220    program     extern E:\3.46\pic18-lt\cxx-framework\src\traditional\stdclib\strcmp.asm
            strcmppgm2ram   0x012260    program     extern E:\3.46\pic18-lt\cxx-framework\src\traditional\stdclib\scmpp2r.asm
            strcpypgm2ram   0x01228c    program     extern E:\3.46\pic18-lt\cxx-framework\src\traditional\stdclib\scpyp2r.asm
           stricmppgm2ram   0x00cc34    program     extern F:\PIC-web\c18\PIC-WEB-5-42-UEXT-full\Microchip\TCPIP Stack\Helpers.c
                   strlen   0x0122be    program     extern E:\3.46\pic18-lt\cxx-framework\src\traditional\stdclib\strlen.asm
                strlenpgm   0x0122da    program     extern E:\3.46\pic18-lt\cxx-framework\src\traditional\stdclib\slenpgm.asm
                  strnchr   0x00ce6c    program     extern F:\PIC-web\c18\PIC-WEB-5-42-UEXT-full\Microchip\TCPIP Stack\Helpers.c
                  strncpy   0x012324    program     extern E:\3.46\pic18-lt\cxx-framework\src\traditional\stdclib\strncpy.asm
                strncpy_m   0x00cebc    program     extern F:\PIC-web\c18\PIC-WEB-5-42-UEXT-full\Microchip\TCPIP Stack\Helpers.c
             strstrrampgm   0x012380    program     extern E:\3.46\pic18-lt\cxx-framework\src\traditional\stdclib\sstrrp.asm
                   strupr   0x0123c6    program     extern E:\3.46\pic18-lt\cxx-framework\src\traditional\stdclib\strupr.asm
                    swapl   0x00ccbc    program     extern F:\PIC-web\c18\PIC-WEB-5-42-UEXT-full\Microchip\TCPIP Stack\Helpers.c
                    swaps   0x00ccb2    program     extern F:\PIC-web\c18\PIC-WEB-5-42-UEXT-full\Microchip\TCPIP Stack\Helpers.c
                     test   0x0158a2    program     static                          
                    uitoa   0x00cb18    program     extern F:\PIC-web\c18\PIC-WEB-5-42-UEXT-full\Microchip\TCPIP Stack\Helpers.c
                    ultoa   0x0115ec    program     extern E:\3.46\pic18-lt\cxx-framework\src\traditional\stdclib\ultoa.asm
               zero_block   0x015ba8    program     static E:\3.46\pic18-lt\cxx-framework\src\traditional\proc\p18f67j60.asm
                   ADCON0   0x000fc2       data     extern E:\3.46\pic18-lt\cxx-framework\src\traditional\proc\p18f67j60.asm
               ADCON0Save   0x000c0f       data     static F:\PIC-web\c18\PIC-WEB-5-42-UEXT-full\Microchip\TCPIP Stack\Helpers.c
               ADCON0bits   0x000fc2       data     extern E:\3.46\pic18-lt\cxx-framework\src\traditional\proc\p18f67j60.asm
                   ADCON1   0x000fc1       data     extern E:\3.46\pic18-lt\cxx-framework\src\traditional\proc\p18f67j60.asm
               ADCON1bits   0x000fc1       data     extern E:\3.46\pic18-lt\cxx-framework\src\traditional\proc\p18f67j60.asm
                   ADCON2   0x000fc0       data     extern E:\3.46\pic18-lt\cxx-framework\src\traditional\proc\p18f67j60.asm
               ADCON2Save   0x000c10       data     static F:\PIC-web\c18\PIC-WEB-5-42-UEXT-full\Microchip\TCPIP Stack\Helpers.c
               ADCON2bits   0x000fc0       data     extern E:\3.46\pic18-lt\cxx-framework\src\traditional\proc\p18f67j60.asm
                    ADRES   0x000fc3       data     extern E:\3.46\pic18-lt\cxx-framework\src\traditional\proc\p18f67j60.asm
                   ADRESH   0x000fc4       data     extern E:\3.46\pic18-lt\cxx-framework\src\traditional\proc\p18f67j60.asm
                   ADRESL   0x000fc3       data     extern E:\3.46\pic18-lt\cxx-framework\src\traditional\proc\p18f67j60.asm
                    ADval   0x000c08       data     static F:\PIC-web\c18\PIC-WEB-5-42-UEXT-full\TCPIP\Demo App\CustomHTTPApp.c
                AN0String   0x0007c3       data     extern F:\PIC-web\c18\PIC-WEB-5-42-UEXT-full\TCPIP\Demo App\MainDemo.c
                AN0String   0x000c00       data     static F:\PIC-web\c18\PIC-WEB-5-42-UEXT-full\TCPIP\Demo App\CustomHTTPApp.c
                  Address   0x0009a0       data     static F:\PIC-web\c18\PIC-WEB-5-42-UEXT-full\TCPIP\Demo App\Olimex_Demo_Files\Custom_I2C.c
                  Address   0x00099b       data     static F:\PIC-web\c18\PIC-WEB-5-42-UEXT-full\TCPIP\Demo App\Olimex_Demo_Files\Custom_I2C.c
                  Address   0x000c2b       data     static F:\PIC-web\c18\PIC-WEB-5-42-UEXT-full\TCPIP\Demo App\CustomHTTPApp.c
                AppBuffer   0x000c05       data     static F:\PIC-web\c18\PIC-WEB-5-42-UEXT-full\TCPIP\Demo App\GenericTCPServer.c
                AppConfig   0x00078e       data     extern F:\PIC-web\c18\PIC-WEB-5-42-UEXT-full\TCPIP\Demo App\MainDemo.c
               AsciiChars   0x0006bf       data     static F:\PIC-web\c18\PIC-WEB-5-42-UEXT-full\Microchip\TCPIP Stack\Helpers.c
             AutoIPClient   0x00083c       data     static F:\PIC-web\c18\PIC-WEB-5-42-UEXT-full\Microchip\TCPIP Stack\AutoIP.c
                  BAUDCON   0x000f7e       data     extern E:\3.46\pic18-lt\cxx-framework\src\traditional\proc\p18f67j60.asm
                 BAUDCON1   0x000f7e       data     extern E:\3.46\pic18-lt\cxx-framework\src\traditional\proc\p18f67j60.asm
             BAUDCON1bits   0x000f7e       data     extern E:\3.46\pic18-lt\cxx-framework\src\traditional\proc\p18f67j60.asm
              BAUDCONbits   0x000f7e       data     extern E:\3.46\pic18-lt\cxx-framework\src\traditional\proc\p18f67j60.asm
                  BAUDCTL   0x000f7e       data     extern E:\3.46\pic18-lt\cxx-framework\src\traditional\proc\p18f67j60.asm
                 BAUDCTL1   0x000f7e       data     extern E:\3.46\pic18-lt\cxx-framework\src\traditional\proc\p18f67j60.asm
             BAUDCTL1bits   0x000f7e       data     extern E:\3.46\pic18-lt\cxx-framework\src\traditional\proc\p18f67j60.asm
              BAUDCTLbits   0x000f7e       data     extern E:\3.46\pic18-lt\cxx-framework\src\traditional\proc\p18f67j60.asm
              BIT_COUNTER   0x000b1a       data     extern E:\3.46\pic18-lt\cxx-framework\src\pmc_common\SW_I2C\swgtci2c.c
              BOOTPHeader   0x000c03       data     static F:\PIC-web\c18\PIC-WEB-5-42-UEXT-full\Microchip\TCPIP Stack\DHCPs.c
           BSDClientState   0x00056d       data     static F:\PIC-web\c18\PIC-WEB-5-42-UEXT-full\TCPIP\Demo App\BerkeleyTCPClientDemo.c
           BSDServerState   0x000b33       data     static F:\PIC-web\c18\PIC-WEB-5-42-UEXT-full\TCPIP\Demo App\BerkeleyTCPServerDemo.c
           BSDSocketArray   0x000653       data     static F:\PIC-web\c18\PIC-WEB-5-42-UEXT-full\Microchip\TCPIP Stack\BerkeleyAPI.c
                      BSR   0x000fe0       data     extern E:\3.46\pic18-lt\cxx-framework\src\traditional\proc\p18f67j60.asm
                 BaudRate   0x0006fb       data     static F:\PIC-web\c18\PIC-WEB-5-42-UEXT-full\TCPIP\Demo App\Olimex_Demo_Files\Custom_UART_Low.c
                 BaudRate   0x000c1a       data     static F:\PIC-web\c18\PIC-WEB-5-42-UEXT-full\TCPIP\Demo App\CustomHTTPApp.c
        BootloaderAddress   0x000c00       data     static F:\PIC-web\c18\PIC-WEB-5-42-UEXT-full\Microchip\TCPIP Stack\Reboot.c
              BridgeState   0x0009d2       data     static F:\PIC-web\c18\PIC-WEB-5-42-UEXT-full\Microchip\TCPIP Stack\UART2TCPBridge.c
                     Buff   0x000c00       data     static F:\PIC-web\c18\PIC-WEB-5-42-UEXT-full\TCPIP\Demo App\CustomHTTPApp.c
                   Buffer   0x0006bd       data     static F:\PIC-web\c18\PIC-WEB-5-42-UEXT-full\Microchip\TCPIP Stack\Helpers.c
                BufferLen   0x0009aa       data     static F:\PIC-web\c18\PIC-WEB-5-42-UEXT-full\Microchip\TCPIP Stack\UART.c
                    Bytes   0x0009fa       data     static F:\PIC-web\c18\PIC-WEB-5-42-UEXT-full\TCPIP\Demo App\Olimex_Demo_Files\Custom_SPI.c
                    Bytes   0x0009a6       data     static F:\PIC-web\c18\PIC-WEB-5-42-UEXT-full\TCPIP\Demo App\Olimex_Demo_Files\Custom_I2C.c
                    Bytes   0x0009b8       data     static F:\PIC-web\c18\PIC-WEB-5-42-UEXT-full\TCPIP\Demo App\Olimex_Demo_Files\Custom_UART.c
                    Bytes   0x0009be       data     static F:\PIC-web\c18\PIC-WEB-5-42-UEXT-full\TCPIP\Demo App\Olimex_Demo_Files\Custom_UART.c
                  CCP1CON   0x000fbd       data     extern E:\3.46\pic18-lt\cxx-framework\src\traditional\proc\p18f67j60.asm
              CCP1CONbits   0x000fbd       data     extern E:\3.46\pic18-lt\cxx-framework\src\traditional\proc\p18f67j60.asm
                  CCP2CON   0x000fba       data     extern E:\3.46\pic18-lt\cxx-framework\src\traditional\proc\p18f67j60.asm
              CCP2CONbits   0x000fba       data     extern E:\3.46\pic18-lt\cxx-framework\src\traditional\proc\p18f67j60.asm
                  CCP3CON   0x000fb7       data     extern E:\3.46\pic18-lt\cxx-framework\src\traditional\proc\p18f67j60.asm
              CCP3CONbits   0x000fb7       data     extern E:\3.46\pic18-lt\cxx-framework\src\traditional\proc\p18f67j60.asm
                  CCP4CON   0x000f73       data     extern E:\3.46\pic18-lt\cxx-framework\src\traditional\proc\p18f67j60.asm
              CCP4CONbits   0x000f73       data     extern E:\3.46\pic18-lt\cxx-framework\src\traditional\proc\p18f67j60.asm
                  CCP5CON   0x000f70       data     extern E:\3.46\pic18-lt\cxx-framework\src\traditional\proc\p18f67j60.asm
              CCP5CONbits   0x000f70       data     extern E:\3.46\pic18-lt\cxx-framework\src\traditional\proc\p18f67j60.asm
                    CCPR1   0x000fbe       data     extern E:\3.46\pic18-lt\cxx-framework\src\traditional\proc\p18f67j60.asm
                   CCPR1H   0x000fbf       data     extern E:\3.46\pic18-lt\cxx-framework\src\traditional\proc\p18f67j60.asm
                   CCPR1L   0x000fbe       data     extern E:\3.46\pic18-lt\cxx-framework\src\traditional\proc\p18f67j60.asm
                    CCPR2   0x000fbb       data     extern E:\3.46\pic18-lt\cxx-framework\src\traditional\proc\p18f67j60.asm
                   CCPR2H   0x000fbc       data     extern E:\3.46\pic18-lt\cxx-framework\src\traditional\proc\p18f67j60.asm
                   CCPR2L   0x000fbb       data     extern E:\3.46\pic18-lt\cxx-framework\src\traditional\proc\p18f67j60.asm
                    CCPR3   0x000fb8       data     extern E:\3.46\pic18-lt\cxx-framework\src\traditional\proc\p18f67j60.asm
                   CCPR3H   0x000fb9       data     extern E:\3.46\pic18-lt\cxx-framework\src\traditional\proc\p18f67j60.asm
                   CCPR3L   0x000fb8       data     extern E:\3.46\pic18-lt\cxx-framework\src\traditional\proc\p18f67j60.asm
                    CCPR4   0x000f74       data     extern E:\3.46\pic18-lt\cxx-framework\src\traditional\proc\p18f67j60.asm
                   CCPR4H   0x000f75       data     extern E:\3.46\pic18-lt\cxx-framework\src\traditional\proc\p18f67j60.asm
                   CCPR4L   0x000f74       data     extern E:\3.46\pic18-lt\cxx-framework\src\traditional\proc\p18f67j60.asm
                    CCPR5   0x000f71       data     extern E:\3.46\pic18-lt\cxx-framework\src\traditional\proc\p18f67j60.asm
                   CCPR5H   0x000f72       data     extern E:\3.46\pic18-lt\cxx-framework\src\traditional\proc\p18f67j60.asm
                   CCPR5L   0x000f71       data     extern E:\3.46\pic18-lt\cxx-framework\src\traditional\proc\p18f67j60.asm
                    CMCON   0x000fb4       data     extern E:\3.46\pic18-lt\cxx-framework\src\traditional\proc\p18f67j60.asm
                CMCONbits   0x000fb4       data     extern E:\3.46\pic18-lt\cxx-framework\src\traditional\proc\p18f67j60.asm
                 CRPeriod   0x000f26       data     static F:\PIC-web\c18\PIC-WEB-5-42-UEXT-full\Microchip\TCPIP Stack\SMTP.c
                   CVRCON   0x000fb5       data     extern E:\3.46\pic18-lt\cxx-framework\src\traditional\proc\p18f67j60.asm
               CVRCONbits   0x000fb5       data     extern E:\3.46\pic18-lt\cxx-framework\src\traditional\proc\p18f67j60.asm
                    Cache   0x0005d8       data     static F:\PIC-web\c18\PIC-WEB-5-42-UEXT-full\Microchip\TCPIP Stack\ARP.c
             CalcChecksum   0x000c00       data     static F:\PIC-web\c18\PIC-WEB-5-42-UEXT-full\Microchip\TCPIP Stack\IP.c
                 Checksum   0x000cac       data     static F:\PIC-web\c18\PIC-WEB-5-42-UEXT-full\Microchip\TCPIP Stack\ETH97J60.c
                 ChunkLen   0x000cb0       data     static F:\PIC-web\c18\PIC-WEB-5-42-UEXT-full\Microchip\TCPIP Stack\ETH97J60.c
                    Class   0x000c03       data     static F:\PIC-web\c18\PIC-WEB-5-42-UEXT-full\Microchip\TCPIP Stack\NBNS.c
               ClientSock   0x000b09       data     static F:\PIC-web\c18\PIC-WEB-5-42-UEXT-full\TCPIP\Demo App\BerkeleyTCPServerDemo.c
                  Command   0x000c2d       data     static F:\PIC-web\c18\PIC-WEB-5-42-UEXT-full\TCPIP\Demo App\CustomHTTPApp.c
                  Command   0x0009a2       data     static F:\PIC-web\c18\PIC-WEB-5-42-UEXT-full\TCPIP\Demo App\Olimex_Demo_Files\Custom_I2C.c
                  Command   0x00099d       data     static F:\PIC-web\c18\PIC-WEB-5-42-UEXT-full\TCPIP\Demo App\Olimex_Demo_Files\Custom_I2C.c
    CurrentPacketLocation   0x0008b1       data     static F:\PIC-web\c18\PIC-WEB-5-42-UEXT-full\Microchip\TCPIP Stack\ETH97J60.c
                     DDRA   0x000f92       data     extern E:\3.46\pic18-lt\cxx-framework\src\traditional\proc\p18f67j60.asm
                 DDRAbits   0x000f92       data     extern E:\3.46\pic18-lt\cxx-framework\src\traditional\proc\p18f67j60.asm
                     DDRB   0x000f93       data     extern E:\3.46\pic18-lt\cxx-framework\src\traditional\proc\p18f67j60.asm
                 DDRBbits   0x000f93       data     extern E:\3.46\pic18-lt\cxx-framework\src\traditional\proc\p18f67j60.asm
                     DDRC   0x000f94       data     extern E:\3.46\pic18-lt\cxx-framework\src\traditional\proc\p18f67j60.asm
                 DDRCbits   0x000f94       data     extern E:\3.46\pic18-lt\cxx-framework\src\traditional\proc\p18f67j60.asm
                     DDRD   0x000f95       data     extern E:\3.46\pic18-lt\cxx-framework\src\traditional\proc\p18f67j60.asm
                 DDRDbits   0x000f95       data     extern E:\3.46\pic18-lt\cxx-framework\src\traditional\proc\p18f67j60.asm
                     DDRE   0x000f96       data     extern E:\3.46\pic18-lt\cxx-framework\src\traditional\proc\p18f67j60.asm
                 DDREbits   0x000f96       data     extern E:\3.46\pic18-lt\cxx-framework\src\traditional\proc\p18f67j60.asm
                     DDRF   0x000f97       data     extern E:\3.46\pic18-lt\cxx-framework\src\traditional\proc\p18f67j60.asm
                 DDRFbits   0x000f97       data     extern E:\3.46\pic18-lt\cxx-framework\src\traditional\proc\p18f67j60.asm
                     DDRG   0x000f98       data     extern E:\3.46\pic18-lt\cxx-framework\src\traditional\proc\p18f67j60.asm
                 DDRGbits   0x000f98       data     extern E:\3.46\pic18-lt\cxx-framework\src\traditional\proc\p18f67j60.asm
               DHCPClient   0x0003cf       data     static F:\PIC-web\c18\PIC-WEB-5-42-UEXT-full\Microchip\TCPIP Stack\DHCP.c
DHCPClientInitializedOnce   0x000b31       data     extern F:\PIC-web\c18\PIC-WEB-5-42-UEXT-full\Microchip\TCPIP Stack\DHCP.c
            DHCPNextLease   0x0004de       data     static F:\PIC-web\c18\PIC-WEB-5-42-UEXT-full\Microchip\TCPIP Stack\DHCPs.c
          DNSAnswerHeader   0x000c43       data     static F:\PIC-web\c18\PIC-WEB-5-42-UEXT-full\Microchip\TCPIP Stack\DNS.c
                DNSHeader   0x000c37       data     static F:\PIC-web\c18\PIC-WEB-5-42-UEXT-full\Microchip\TCPIP Stack\DNS.c
              DNSHostName   0x0007d1       data     static F:\PIC-web\c18\PIC-WEB-5-42-UEXT-full\Microchip\TCPIP Stack\DNS.c
           DNSHostNameROM   0x0007d3       data     static F:\PIC-web\c18\PIC-WEB-5-42-UEXT-full\Microchip\TCPIP Stack\DNS.c
                     Data   0x000f40       data     static F:\PIC-web\c18\PIC-WEB-5-42-UEXT-full\Microchip\TCPIP Stack\SMTP.c
                     Data   0x0008e1       data     static F:\PIC-web\c18\PIC-WEB-5-42-UEXT-full\Microchip\TCPIP Stack\ETH97J60.c
                     Data   0x000f44       data     static F:\PIC-web\c18\PIC-WEB-5-42-UEXT-full\Microchip\TCPIP Stack\SMTP.c
                     Data   0x000f49       data     static F:\PIC-web\c18\PIC-WEB-5-42-UEXT-full\Microchip\TCPIP Stack\SMTP.c
                     Data   0x000f4b       data     static F:\PIC-web\c18\PIC-WEB-5-42-UEXT-full\Microchip\TCPIP Stack\SMTP.c
                     Data   0x00099f       data     static F:\PIC-web\c18\PIC-WEB-5-42-UEXT-full\TCPIP\Demo App\Olimex_Demo_Files\Custom_I2C.c
                     Data   0x0009bc       data     static F:\PIC-web\c18\PIC-WEB-5-42-UEXT-full\TCPIP\Demo App\Olimex_Demo_Files\Custom_UART.c
                     Data   0x0009ba       data     static F:\PIC-web\c18\PIC-WEB-5-42-UEXT-full\TCPIP\Demo App\Olimex_Demo_Files\Custom_UART.c
                     Data   0x000c33       data     static F:\PIC-web\c18\PIC-WEB-5-42-UEXT-full\TCPIP\Demo App\CustomHTTPApp.c
                     Data   0x0009a4       data     static F:\PIC-web\c18\PIC-WEB-5-42-UEXT-full\TCPIP\Demo App\Olimex_Demo_Files\Custom_I2C.c
                     Data   0x000c3d       data     static F:\PIC-web\c18\PIC-WEB-5-42-UEXT-full\TCPIP\Demo App\CustomHTTPApp.c
                     Data   0x0009b6       data     static F:\PIC-web\c18\PIC-WEB-5-42-UEXT-full\TCPIP\Demo App\Olimex_Demo_Files\Custom_UART.c
                     Data   0x0009f7       data     static F:\PIC-web\c18\PIC-WEB-5-42-UEXT-full\TCPIP\Demo App\Olimex_Demo_Files\Custom_SPI.c
                     Data   0x0009f8       data     static F:\PIC-web\c18\PIC-WEB-5-42-UEXT-full\TCPIP\Demo App\Olimex_Demo_Files\Custom_SPI.c
                     Data   0x0009b4       data     static F:\PIC-web\c18\PIC-WEB-5-42-UEXT-full\TCPIP\Demo App\Olimex_Demo_Files\Custom_UART.c
               DataBuffer   0x000cb2       data     static F:\PIC-web\c18\PIC-WEB-5-42-UEXT-full\Microchip\TCPIP Stack\ETH97J60.c
                  DataPtr   0x000cc6       data     static F:\PIC-web\c18\PIC-WEB-5-42-UEXT-full\Microchip\TCPIP Stack\ETH97J60.c
            DelayCounter1   0x000034       data     extern E:\3.46\pic18-lt\cxx-framework\src\traditional\delays\delayd1.asm
                     Dest   0x0009a8       data     static F:\PIC-web\c18\PIC-WEB-5-42-UEXT-full\Microchip\TCPIP Stack\UART.c
               DestIPAddr   0x0005e6       data     static F:\PIC-web\c18\PIC-WEB-5-42-UEXT-full\Microchip\TCPIP Stack\ARP.c
                DestIndex   0x000c45       data     static F:\PIC-web\c18\PIC-WEB-5-42-UEXT-full\TCPIP\Demo App\Olimex_Demo_Files\Misc_Functions.c
              Destination   0x0009f2       data     static F:\PIC-web\c18\PIC-WEB-5-42-UEXT-full\TCPIP\Demo App\Olimex_Demo_Files\Misc_Functions.c
               DhcpIpPool   0x000484       data     extern F:\PIC-web\c18\PIC-WEB-5-42-UEXT-full\Microchip\TCPIP Stack\DHCPs.c
                    Digit   0x000c0d       data     static F:\PIC-web\c18\PIC-WEB-5-42-UEXT-full\Microchip\TCPIP Stack\Helpers.c
                    Digit   0x000c50       data     static F:\PIC-web\c18\PIC-WEB-5-42-UEXT-full\TCPIP\Demo App\Olimex_Demo_Files\Misc_Functions.c
              DiscoverySM   0x000b34       data     static F:\PIC-web\c18\PIC-WEB-5-42-UEXT-full\Microchip\TCPIP Stack\Announce.c
                  Divisor   0x000c0f       data     static F:\PIC-web\c18\PIC-WEB-5-42-UEXT-full\Microchip\TCPIP Stack\Helpers.c
                  ECCP1AS   0x000fb6       data     extern E:\3.46\pic18-lt\cxx-framework\src\traditional\proc\p18f67j60.asm
              ECCP1ASbits   0x000fb6       data     extern E:\3.46\pic18-lt\cxx-framework\src\traditional\proc\p18f67j60.asm
                 ECCP1CON   0x000fbd       data     extern E:\3.46\pic18-lt\cxx-framework\src\traditional\proc\p18f67j60.asm
             ECCP1CONbits   0x000fbd       data     extern E:\3.46\pic18-lt\cxx-framework\src\traditional\proc\p18f67j60.asm
                 ECCP1DEL   0x000f79       data     extern E:\3.46\pic18-lt\cxx-framework\src\traditional\proc\p18f67j60.asm
             ECCP1DELbits   0x000f79       data     extern E:\3.46\pic18-lt\cxx-framework\src\traditional\proc\p18f67j60.asm
                  ECCP2AS   0x000f68       data     extern E:\3.46\pic18-lt\cxx-framework\src\traditional\proc\p18f67j60.asm
              ECCP2ASbits   0x000f68       data     extern E:\3.46\pic18-lt\cxx-framework\src\traditional\proc\p18f67j60.asm
                 ECCP2CON   0x000fba       data     extern E:\3.46\pic18-lt\cxx-framework\src\traditional\proc\p18f67j60.asm
             ECCP2CONbits   0x000fba       data     extern E:\3.46\pic18-lt\cxx-framework\src\traditional\proc\p18f67j60.asm
                 ECCP2DEL   0x000f67       data     extern E:\3.46\pic18-lt\cxx-framework\src\traditional\proc\p18f67j60.asm
             ECCP2DELbits   0x000f67       data     extern E:\3.46\pic18-lt\cxx-framework\src\traditional\proc\p18f67j60.asm
                  ECCP3AS   0x000f6a       data     extern E:\3.46\pic18-lt\cxx-framework\src\traditional\proc\p18f67j60.asm
              ECCP3ASbits   0x000f6a       data     extern E:\3.46\pic18-lt\cxx-framework\src\traditional\proc\p18f67j60.asm
                 ECCP3CON   0x000fb7       data     extern E:\3.46\pic18-lt\cxx-framework\src\traditional\proc\p18f67j60.asm
             ECCP3CONbits   0x000fb7       data     extern E:\3.46\pic18-lt\cxx-framework\src\traditional\proc\p18f67j60.asm
                 ECCP3DEL   0x000f69       data     extern E:\3.46\pic18-lt\cxx-framework\src\traditional\proc\p18f67j60.asm
             ECCP3DELbits   0x000f69       data     extern E:\3.46\pic18-lt\cxx-framework\src\traditional\proc\p18f67j60.asm
                    ECON1   0x000fd2       data     extern E:\3.46\pic18-lt\cxx-framework\src\traditional\proc\p18f67j60.asm
                ECON1bits   0x000fd2       data     extern E:\3.46\pic18-lt\cxx-framework\src\traditional\proc\p18f67j60.asm
                    ECON2   0x000efe       data     extern E:\3.46\pic18-lt\cxx-framework\src\traditional\proc\p18f67j60.asm
                ECON2bits   0x000efe       data     extern E:\3.46\pic18-lt\cxx-framework\src\traditional\proc\p18f67j60.asm
                    EDATA   0x000f61       data     extern E:\3.46\pic18-lt\cxx-framework\src\traditional\proc\p18f67j60.asm
                EDATAbits   0x000f61       data     extern E:\3.46\pic18-lt\cxx-framework\src\traditional\proc\p18f67j60.asm
                   EDMACS   0x000ef6       data     extern E:\3.46\pic18-lt\cxx-framework\src\traditional\proc\p18f67j60.asm
                  EDMACSH   0x000ef7       data     extern E:\3.46\pic18-lt\cxx-framework\src\traditional\proc\p18f67j60.asm
                  EDMACSL   0x000ef6       data     extern E:\3.46\pic18-lt\cxx-framework\src\traditional\proc\p18f67j60.asm
                  EDMADST   0x000ef4       data     extern E:\3.46\pic18-lt\cxx-framework\src\traditional\proc\p18f67j60.asm
                 EDMADSTH   0x000ef5       data     extern E:\3.46\pic18-lt\cxx-framework\src\traditional\proc\p18f67j60.asm
                 EDMADSTL   0x000ef4       data     extern E:\3.46\pic18-lt\cxx-framework\src\traditional\proc\p18f67j60.asm
                   EDMAND   0x000ef2       data     extern E:\3.46\pic18-lt\cxx-framework\src\traditional\proc\p18f67j60.asm
                  EDMANDH   0x000ef3       data     extern E:\3.46\pic18-lt\cxx-framework\src\traditional\proc\p18f67j60.asm
                  EDMANDL   0x000ef2       data     extern E:\3.46\pic18-lt\cxx-framework\src\traditional\proc\p18f67j60.asm
                   EDMAST   0x000ef0       data     extern E:\3.46\pic18-lt\cxx-framework\src\traditional\proc\p18f67j60.asm
                  EDMASTH   0x000ef1       data     extern E:\3.46\pic18-lt\cxx-framework\src\traditional\proc\p18f67j60.asm
                  EDMASTL   0x000ef0       data     extern E:\3.46\pic18-lt\cxx-framework\src\traditional\proc\p18f67j60.asm
                   EECON1   0x000fa6       data     extern E:\3.46\pic18-lt\cxx-framework\src\traditional\proc\p18f67j60.asm
               EECON1bits   0x000fa6       data     extern E:\3.46\pic18-lt\cxx-framework\src\traditional\proc\p18f67j60.asm
                   EECON2   0x000fa7       data     extern E:\3.46\pic18-lt\cxx-framework\src\traditional\proc\p18f67j60.asm
                  EFLOCON   0x000e97       data     extern E:\3.46\pic18-lt\cxx-framework\src\traditional\proc\p18f67j60.asm
              EFLOCONbits   0x000e97       data     extern E:\3.46\pic18-lt\cxx-framework\src\traditional\proc\p18f67j60.asm
                     EHT0   0x000ec0       data     extern E:\3.46\pic18-lt\cxx-framework\src\traditional\proc\p18f67j60.asm
                     EHT1   0x000ec1       data     extern E:\3.46\pic18-lt\cxx-framework\src\traditional\proc\p18f67j60.asm
                     EHT2   0x000ec2       data     extern E:\3.46\pic18-lt\cxx-framework\src\traditional\proc\p18f67j60.asm
                     EHT3   0x000ec3       data     extern E:\3.46\pic18-lt\cxx-framework\src\traditional\proc\p18f67j60.asm
                     EHT4   0x000ec4       data     extern E:\3.46\pic18-lt\cxx-framework\src\traditional\proc\p18f67j60.asm
                     EHT5   0x000ec5       data     extern E:\3.46\pic18-lt\cxx-framework\src\traditional\proc\p18f67j60.asm
                     EHT6   0x000ec6       data     extern E:\3.46\pic18-lt\cxx-framework\src\traditional\proc\p18f67j60.asm
                     EHT7   0x000ec7       data     extern E:\3.46\pic18-lt\cxx-framework\src\traditional\proc\p18f67j60.asm
                      EIE   0x000efb       data     extern E:\3.46\pic18-lt\cxx-framework\src\traditional\proc\p18f67j60.asm
                  EIEbits   0x000efb       data     extern E:\3.46\pic18-lt\cxx-framework\src\traditional\proc\p18f67j60.asm
                      EIR   0x000f60       data     extern E:\3.46\pic18-lt\cxx-framework\src\traditional\proc\p18f67j60.asm
                  EIRbits   0x000f60       data     extern E:\3.46\pic18-lt\cxx-framework\src\traditional\proc\p18f67j60.asm
                    EPAUS   0x000e98       data     extern E:\3.46\pic18-lt\cxx-framework\src\traditional\proc\p18f67j60.asm
                   EPAUSH   0x000e99       data     extern E:\3.46\pic18-lt\cxx-framework\src\traditional\proc\p18f67j60.asm
                   EPAUSL   0x000e98       data     extern E:\3.46\pic18-lt\cxx-framework\src\traditional\proc\p18f67j60.asm
                  EPKTCNT   0x000ed9       data     extern E:\3.46\pic18-lt\cxx-framework\src\traditional\proc\p18f67j60.asm
                    EPMCS   0x000ed0       data     extern E:\3.46\pic18-lt\cxx-framework\src\traditional\proc\p18f67j60.asm
                   EPMCSH   0x000ed1       data     extern E:\3.46\pic18-lt\cxx-framework\src\traditional\proc\p18f67j60.asm
                   EPMCSL   0x000ed0       data     extern E:\3.46\pic18-lt\cxx-framework\src\traditional\proc\p18f67j60.asm
                    EPMM0   0x000ec8       data     extern E:\3.46\pic18-lt\cxx-framework\src\traditional\proc\p18f67j60.asm
                    EPMM1   0x000ec9       data     extern E:\3.46\pic18-lt\cxx-framework\src\traditional\proc\p18f67j60.asm
                    EPMM2   0x000eca       data     extern E:\3.46\pic18-lt\cxx-framework\src\traditional\proc\p18f67j60.asm
                    EPMM3   0x000ecb       data     extern E:\3.46\pic18-lt\cxx-framework\src\traditional\proc\p18f67j60.asm
                    EPMM4   0x000ecc       data     extern E:\3.46\pic18-lt\cxx-framework\src\traditional\proc\p18f67j60.asm
                    EPMM5   0x000ecd       data     extern E:\3.46\pic18-lt\cxx-framework\src\traditional\proc\p18f67j60.asm
                    EPMM6   0x000ece       data     extern E:\3.46\pic18-lt\cxx-framework\src\traditional\proc\p18f67j60.asm
                    EPMM7   0x000ecf       data     extern E:\3.46\pic18-lt\cxx-framework\src\traditional\proc\p18f67j60.asm
                     EPMO   0x000ed4       data     extern E:\3.46\pic18-lt\cxx-framework\src\traditional\proc\p18f67j60.asm
                    EPMOH   0x000ed5       data     extern E:\3.46\pic18-lt\cxx-framework\src\traditional\proc\p18f67j60.asm
                    EPMOL   0x000ed4       data     extern E:\3.46\pic18-lt\cxx-framework\src\traditional\proc\p18f67j60.asm
                    ERDPT   0x000f7a       data     extern E:\3.46\pic18-lt\cxx-framework\src\traditional\proc\p18f67j60.asm
                   ERDPTH   0x000f7b       data     extern E:\3.46\pic18-lt\cxx-framework\src\traditional\proc\p18f67j60.asm
                   ERDPTL   0x000f7a       data     extern E:\3.46\pic18-lt\cxx-framework\src\traditional\proc\p18f67j60.asm
                  ERXFCON   0x000ed8       data     extern E:\3.46\pic18-lt\cxx-framework\src\traditional\proc\p18f67j60.asm
              ERXFCONbits   0x000ed8       data     extern E:\3.46\pic18-lt\cxx-framework\src\traditional\proc\p18f67j60.asm
                    ERXND   0x000eea       data     extern E:\3.46\pic18-lt\cxx-framework\src\traditional\proc\p18f67j60.asm
                   ERXNDH   0x000eeb       data     extern E:\3.46\pic18-lt\cxx-framework\src\traditional\proc\p18f67j60.asm
                   ERXNDL   0x000eea       data     extern E:\3.46\pic18-lt\cxx-framework\src\traditional\proc\p18f67j60.asm
                  ERXRDPT   0x000eec       data     extern E:\3.46\pic18-lt\cxx-framework\src\traditional\proc\p18f67j60.asm
                 ERXRDPTH   0x000eed       data     extern E:\3.46\pic18-lt\cxx-framework\src\traditional\proc\p18f67j60.asm
                 ERXRDPTL   0x000eec       data     extern E:\3.46\pic18-lt\cxx-framework\src\traditional\proc\p18f67j60.asm
                    ERXST   0x000ee8       data     extern E:\3.46\pic18-lt\cxx-framework\src\traditional\proc\p18f67j60.asm
                   ERXSTH   0x000ee9       data     extern E:\3.46\pic18-lt\cxx-framework\src\traditional\proc\p18f67j60.asm
                   ERXSTL   0x000ee8       data     extern E:\3.46\pic18-lt\cxx-framework\src\traditional\proc\p18f67j60.asm
                  ERXWRPT   0x000eee       data     extern E:\3.46\pic18-lt\cxx-framework\src\traditional\proc\p18f67j60.asm
                 ERXWRPTH   0x000eef       data     extern E:\3.46\pic18-lt\cxx-framework\src\traditional\proc\p18f67j60.asm
                 ERXWRPTL   0x000eee       data     extern E:\3.46\pic18-lt\cxx-framework\src\traditional\proc\p18f67j60.asm
                    ESTAT   0x000efd       data     extern E:\3.46\pic18-lt\cxx-framework\src\traditional\proc\p18f67j60.asm
                ESTATbits   0x000efd       data     extern E:\3.46\pic18-lt\cxx-framework\src\traditional\proc\p18f67j60.asm
                    ETXND   0x000ee6       data     extern E:\3.46\pic18-lt\cxx-framework\src\traditional\proc\p18f67j60.asm
                   ETXNDH   0x000ee7       data     extern E:\3.46\pic18-lt\cxx-framework\src\traditional\proc\p18f67j60.asm
                   ETXNDL   0x000ee6       data     extern E:\3.46\pic18-lt\cxx-framework\src\traditional\proc\p18f67j60.asm
                    ETXST   0x000ee4       data     extern E:\3.46\pic18-lt\cxx-framework\src\traditional\proc\p18f67j60.asm
                   ETXSTH   0x000ee5       data     extern E:\3.46\pic18-lt\cxx-framework\src\traditional\proc\p18f67j60.asm
                   ETXSTL   0x000ee4       data     extern E:\3.46\pic18-lt\cxx-framework\src\traditional\proc\p18f67j60.asm
                    EWRPT   0x000ee2       data     extern E:\3.46\pic18-lt\cxx-framework\src\traditional\proc\p18f67j60.asm
                   EWRPTH   0x000ee3       data     extern E:\3.46\pic18-lt\cxx-framework\src\traditional\proc\p18f67j60.asm
                   EWRPTL   0x000ee2       data     extern E:\3.46\pic18-lt\cxx-framework\src\traditional\proc\p18f67j60.asm
                    Error   0x000c44       data     static F:\PIC-web\c18\PIC-WEB-5-42-UEXT-full\TCPIP\Demo App\Olimex_Demo_Files\Custom_I2C.c
                    Error   0x000c44       data     static F:\PIC-web\c18\PIC-WEB-5-42-UEXT-full\TCPIP\Demo App\Olimex_Demo_Files\Custom_I2C.c
             FLASHAddress   0x000887       data     extern F:\PIC-web\c18\PIC-WEB-5-42-UEXT-full\Microchip\TCPIP Stack\SPIFlash.c
              FLASHBuffer   0x00087b       data     extern F:\PIC-web\c18\PIC-WEB-5-42-UEXT-full\Microchip\TCPIP Stack\SPIFlash.c
           FLASHBufferPtr   0x000879       data     extern F:\PIC-web\c18\PIC-WEB-5-42-UEXT-full\Microchip\TCPIP Stack\SPIFlash.c
           FLASHReadyFlag   0x000878       data     extern F:\PIC-web\c18\PIC-WEB-5-42-UEXT-full\Microchip\TCPIP Stack\SPIFlash.c
                     FSR0   0x000fe9       data     extern E:\3.46\pic18-lt\cxx-framework\src\traditional\proc\p18f67j60.asm
                    FSR0H   0x000fea       data     extern E:\3.46\pic18-lt\cxx-framework\src\traditional\proc\p18f67j60.asm
                    FSR0L   0x000fe9       data     extern E:\3.46\pic18-lt\cxx-framework\src\traditional\proc\p18f67j60.asm
                     FSR1   0x000fe1       data     extern E:\3.46\pic18-lt\cxx-framework\src\traditional\proc\p18f67j60.asm
                    FSR1H   0x000fe2       data     extern E:\3.46\pic18-lt\cxx-framework\src\traditional\proc\p18f67j60.asm
                    FSR1L   0x000fe1       data     extern E:\3.46\pic18-lt\cxx-framework\src\traditional\proc\p18f67j60.asm
                     FSR2   0x000fd9       data     extern E:\3.46\pic18-lt\cxx-framework\src\traditional\proc\p18f67j60.asm
                    FSR2H   0x000fda       data     extern E:\3.46\pic18-lt\cxx-framework\src\traditional\proc\p18f67j60.asm
                    FSR2L   0x000fd9       data     extern E:\3.46\pic18-lt\cxx-framework\src\traditional\proc\p18f67j60.asm
                    First   0x000c4a       data     static F:\PIC-web\c18\PIC-WEB-5-42-UEXT-full\TCPIP\Demo App\Olimex_Demo_Files\Misc_Functions.c
                    Flags   0x0002c1       data     static F:\PIC-web\c18\PIC-WEB-5-42-UEXT-full\Microchip\TCPIP Stack\UDP.c
                    Flags   0x000b15       data     static F:\PIC-web\c18\PIC-WEB-5-42-UEXT-full\Microchip\TCPIP Stack\DNS.c
                  GIESave   0x000c00       data     static F:\PIC-web\c18\PIC-WEB-5-42-UEXT-full\Microchip\TCPIP Stack\ETH97J60.c
   GenericTCPExampleState   0x0006fa       data     static F:\PIC-web\c18\PIC-WEB-5-42-UEXT-full\TCPIP\Demo App\GenericTCPClient.c
                   Header   0x0004f5       data     static F:\PIC-web\c18\PIC-WEB-5-42-UEXT-full\Microchip\TCPIP Stack\DHCPs.c
                   Header   0x0004e2       data     static F:\PIC-web\c18\PIC-WEB-5-42-UEXT-full\Microchip\TCPIP Stack\DHCPs.c
                   Header   0x0004e4       data     static F:\PIC-web\c18\PIC-WEB-5-42-UEXT-full\Microchip\TCPIP Stack\DHCPs.c
                 HexDigit   0x000c46       data     static F:\PIC-web\c18\PIC-WEB-5-42-UEXT-full\TCPIP\Demo App\Olimex_Demo_Files\Misc_Functions.c
                   HostIP   0x0007e8       data     static F:\PIC-web\c18\PIC-WEB-5-42-UEXT-full\Microchip\TCPIP Stack\DNS.c
                 Hostname   0x0007e4       data     static F:\PIC-web\c18\PIC-WEB-5-42-UEXT-full\Microchip\TCPIP Stack\DNS.c
                 Hostname   0x0007e1       data     static F:\PIC-web\c18\PIC-WEB-5-42-UEXT-full\Microchip\TCPIP Stack\DNS.c
               I2C_BUFFER   0x000b19       data     extern E:\3.46\pic18-lt\cxx-framework\src\pmc_common\SW_I2C\swgtci2c.c
                I2C_Delay   0x000b32       data     extern F:\PIC-web\c18\PIC-WEB-5-42-UEXT-full\TCPIP\Demo App\Olimex_Demo_Files\Custom_I2C_Low.c
         I2C_Delay_String   0x000c29       data     static F:\PIC-web\c18\PIC-WEB-5-42-UEXT-full\TCPIP\Demo App\CustomHTTPApp.c
               I2C_String   0x0008e3       data     extern F:\PIC-web\c18\PIC-WEB-5-42-UEXT-full\TCPIP\Demo App\CustomHTTPApp.c
                ICMPFlags   0x000b2f       data     static F:\PIC-web\c18\PIC-WEB-5-42-UEXT-full\Microchip\TCPIP Stack\ICMP.c
               ICMPPacket   0x000c00       data     static F:\PIC-web\c18\PIC-WEB-5-42-UEXT-full\Microchip\TCPIP Stack\ICMP.c
                ICMPState   0x000951       data     static F:\PIC-web\c18\PIC-WEB-5-42-UEXT-full\Microchip\TCPIP Stack\ICMP.c
                ICMPTimer   0x000943       data     static F:\PIC-web\c18\PIC-WEB-5-42-UEXT-full\Microchip\TCPIP Stack\ICMP.c
                    INDF0   0x000fef       data     extern E:\3.46\pic18-lt\cxx-framework\src\traditional\proc\p18f67j60.asm
                    INDF1   0x000fe7       data     extern E:\3.46\pic18-lt\cxx-framework\src\traditional\proc\p18f67j60.asm
                    INDF2   0x000fdf       data     extern E:\3.46\pic18-lt\cxx-framework\src\traditional\proc\p18f67j60.asm
                   INTCON   0x000ff2       data     extern E:\3.46\pic18-lt\cxx-framework\src\traditional\proc\p18f67j60.asm
                  INTCON2   0x000ff1       data     extern E:\3.46\pic18-lt\cxx-framework\src\traditional\proc\p18f67j60.asm
              INTCON2bits   0x000ff1       data     extern E:\3.46\pic18-lt\cxx-framework\src\traditional\proc\p18f67j60.asm
                  INTCON3   0x000ff0       data     extern E:\3.46\pic18-lt\cxx-framework\src\traditional\proc\p18f67j60.asm
              INTCON3bits   0x000ff0       data     extern E:\3.46\pic18-lt\cxx-framework\src\traditional\proc\p18f67j60.asm
               INTCONbits   0x000ff2       data     extern E:\3.46\pic18-lt\cxx-framework\src\traditional\proc\p18f67j60.asm
                   IPAddr   0x0005f7       data     static F:\PIC-web\c18\PIC-WEB-5-42-UEXT-full\Microchip\TCPIP Stack\ARP.c
                   IPAddr   0x0005f9       data     static F:\PIC-web\c18\PIC-WEB-5-42-UEXT-full\Microchip\TCPIP Stack\ARP.c
                IPAddress   0x0006a4       data     static F:\PIC-web\c18\PIC-WEB-5-42-UEXT-full\Microchip\TCPIP Stack\Helpers.c
                IPAddress   0x0006a9       data     static F:\PIC-web\c18\PIC-WEB-5-42-UEXT-full\Microchip\TCPIP Stack\Helpers.c
                  IPDigit   0x000c00       data     static F:\PIC-web\c18\PIC-WEB-5-42-UEXT-full\TCPIP\Demo App\MainDemo.c
              IPHeaderLen   0x000978       data     static F:\PIC-web\c18\PIC-WEB-5-42-UEXT-full\Microchip\TCPIP Stack\IP.c
                     IPR1   0x000f9f       data     extern E:\3.46\pic18-lt\cxx-framework\src\traditional\proc\p18f67j60.asm
                 IPR1bits   0x000f9f       data     extern E:\3.46\pic18-lt\cxx-framework\src\traditional\proc\p18f67j60.asm
                     IPR2   0x000fa2       data     extern E:\3.46\pic18-lt\cxx-framework\src\traditional\proc\p18f67j60.asm
                 IPR2bits   0x000fa2       data     extern E:\3.46\pic18-lt\cxx-framework\src\traditional\proc\p18f67j60.asm
                     IPR3   0x000fa5       data     extern E:\3.46\pic18-lt\cxx-framework\src\traditional\proc\p18f67j60.asm
                 IPR3bits   0x000fa5       data     extern E:\3.46\pic18-lt\cxx-framework\src\traditional\proc\p18f67j60.asm
                    IPVal   0x0007cb       data     static F:\PIC-web\c18\PIC-WEB-5-42-UEXT-full\TCPIP\Demo App\MainDemo.c
              IndexOfPool   0x000c36       data     static F:\PIC-web\c18\PIC-WEB-5-42-UEXT-full\Microchip\TCPIP Stack\DHCPs.c
                     LATA   0x000f89       data     extern E:\3.46\pic18-lt\cxx-framework\src\traditional\proc\p18f67j60.asm
                 LATAbits   0x000f89       data     extern E:\3.46\pic18-lt\cxx-framework\src\traditional\proc\p18f67j60.asm
                     LATB   0x000f8a       data     extern E:\3.46\pic18-lt\cxx-framework\src\traditional\proc\p18f67j60.asm
                 LATBbits   0x000f8a       data     extern E:\3.46\pic18-lt\cxx-framework\src\traditional\proc\p18f67j60.asm
                     LATC   0x000f8b       data     extern E:\3.46\pic18-lt\cxx-framework\src\traditional\proc\p18f67j60.asm
                 LATCbits   0x000f8b       data     extern E:\3.46\pic18-lt\cxx-framework\src\traditional\proc\p18f67j60.asm
                     LATD   0x000f8c       data     extern E:\3.46\pic18-lt\cxx-framework\src\traditional\proc\p18f67j60.asm
                 LATDbits   0x000f8c       data     extern E:\3.46\pic18-lt\cxx-framework\src\traditional\proc\p18f67j60.asm
                     LATE   0x000f8d       data     extern E:\3.46\pic18-lt\cxx-framework\src\traditional\proc\p18f67j60.asm
                 LATEbits   0x000f8d       data     extern E:\3.46\pic18-lt\cxx-framework\src\traditional\proc\p18f67j60.asm
                     LATF   0x000f8e       data     extern E:\3.46\pic18-lt\cxx-framework\src\traditional\proc\p18f67j60.asm
                 LATFbits   0x000f8e       data     extern E:\3.46\pic18-lt\cxx-framework\src\traditional\proc\p18f67j60.asm
                     LATG   0x000f8f       data     extern E:\3.46\pic18-lt\cxx-framework\src\traditional\proc\p18f67j60.asm
                 LATGbits   0x000f8f       data     extern E:\3.46\pic18-lt\cxx-framework\src\traditional\proc\p18f67j60.asm
            LastPutSocket   0x000b1d       data     static F:\PIC-web\c18\PIC-WEB-5-42-UEXT-full\Microchip\TCPIP Stack\UDP.c
                      Len   0x000f47       data     static F:\PIC-web\c18\PIC-WEB-5-42-UEXT-full\Microchip\TCPIP Stack\SMTP.c
                      Len   0x000f42       data     static F:\PIC-web\c18\PIC-WEB-5-42-UEXT-full\Microchip\TCPIP Stack\SMTP.c
                      Len   0x000c50       data     static F:\PIC-web\c18\PIC-WEB-5-42-UEXT-full\Microchip\TCPIP Stack\DNS.c
                      Len   0x000c02       data     static F:\PIC-web\c18\PIC-WEB-5-42-UEXT-full\Microchip\TCPIP Stack\DHCPs.c
                      Len   0x000c51       data     static F:\PIC-web\c18\PIC-WEB-5-42-UEXT-full\Microchip\TCPIP Stack\DNS.c
                      Len   0x000c36       data     static F:\PIC-web\c18\PIC-WEB-5-42-UEXT-full\Microchip\TCPIP Stack\DHCPs.c
                   MAADR1   0x000e84       data     extern E:\3.46\pic18-lt\cxx-framework\src\traditional\proc\p18f67j60.asm
                   MAADR2   0x000e85       data     extern E:\3.46\pic18-lt\cxx-framework\src\traditional\proc\p18f67j60.asm
                   MAADR3   0x000e82       data     extern E:\3.46\pic18-lt\cxx-framework\src\traditional\proc\p18f67j60.asm
                   MAADR4   0x000e83       data     extern E:\3.46\pic18-lt\cxx-framework\src\traditional\proc\p18f67j60.asm
                   MAADR5   0x000e80       data     extern E:\3.46\pic18-lt\cxx-framework\src\traditional\proc\p18f67j60.asm
                   MAADR6   0x000e81       data     extern E:\3.46\pic18-lt\cxx-framework\src\traditional\proc\p18f67j60.asm
                  MABBIPG   0x000ea4       data     extern E:\3.46\pic18-lt\cxx-framework\src\traditional\proc\p18f67j60.asm
              MABBIPGbits   0x000ea4       data     extern E:\3.46\pic18-lt\cxx-framework\src\traditional\proc\p18f67j60.asm
                  MACAddr   0x0005fb       data     static F:\PIC-web\c18\PIC-WEB-5-42-UEXT-full\Microchip\TCPIP Stack\ARP.c
                   MACON1   0x000ea0       data     extern E:\3.46\pic18-lt\cxx-framework\src\traditional\proc\p18f67j60.asm
               MACON1bits   0x000ea0       data     extern E:\3.46\pic18-lt\cxx-framework\src\traditional\proc\p18f67j60.asm
                   MACON3   0x000ea2       data     extern E:\3.46\pic18-lt\cxx-framework\src\traditional\proc\p18f67j60.asm
               MACON3bits   0x000ea2       data     extern E:\3.46\pic18-lt\cxx-framework\src\traditional\proc\p18f67j60.asm
                   MACON4   0x000ea3       data     extern E:\3.46\pic18-lt\cxx-framework\src\traditional\proc\p18f67j60.asm
               MACON4bits   0x000ea3       data     extern E:\3.46\pic18-lt\cxx-framework\src\traditional\proc\p18f67j60.asm
                    MAIPG   0x000ea6       data     extern E:\3.46\pic18-lt\cxx-framework\src\traditional\proc\p18f67j60.asm
                   MAIPGH   0x000ea7       data     extern E:\3.46\pic18-lt\cxx-framework\src\traditional\proc\p18f67j60.asm
                   MAIPGL   0x000ea6       data     extern E:\3.46\pic18-lt\cxx-framework\src\traditional\proc\p18f67j60.asm
                   MAMXFL   0x000eaa       data     extern E:\3.46\pic18-lt\cxx-framework\src\traditional\proc\p18f67j60.asm
                  MAMXFLH   0x000eab       data     extern E:\3.46\pic18-lt\cxx-framework\src\traditional\proc\p18f67j60.asm
                  MAMXFLL   0x000eaa       data     extern E:\3.46\pic18-lt\cxx-framework\src\traditional\proc\p18f67j60.asm
                    MICMD   0x000eb2       data     extern E:\3.46\pic18-lt\cxx-framework\src\traditional\proc\p18f67j60.asm
                MICMDbits   0x000eb2       data     extern E:\3.46\pic18-lt\cxx-framework\src\traditional\proc\p18f67j60.asm
                     MIRD   0x000eb8       data     extern E:\3.46\pic18-lt\cxx-framework\src\traditional\proc\p18f67j60.asm
                    MIRDH   0x000eb9       data     extern E:\3.46\pic18-lt\cxx-framework\src\traditional\proc\p18f67j60.asm
                    MIRDL   0x000eb8       data     extern E:\3.46\pic18-lt\cxx-framework\src\traditional\proc\p18f67j60.asm
                 MIREGADR   0x000eb4       data     extern E:\3.46\pic18-lt\cxx-framework\src\traditional\proc\p18f67j60.asm
                   MISTAT   0x000e8a       data     extern E:\3.46\pic18-lt\cxx-framework\src\traditional\proc\p18f67j60.asm
               MISTATbits   0x000e8a       data     extern E:\3.46\pic18-lt\cxx-framework\src\traditional\proc\p18f67j60.asm
                     MIWR   0x000eb6       data     extern E:\3.46\pic18-lt\cxx-framework\src\traditional\proc\p18f67j60.asm
                    MIWRH   0x000eb7       data     extern E:\3.46\pic18-lt\cxx-framework\src\traditional\proc\p18f67j60.asm
                    MIWRL   0x000eb6       data     extern E:\3.46\pic18-lt\cxx-framework\src\traditional\proc\p18f67j60.asm
                MPFSStubs   0x000060       data     static F:\PIC-web\c18\PIC-WEB-5-42-UEXT-full\Microchip\TCPIP Stack\MPFS2.c
                  MacAddr   0x0004e8       data     static F:\PIC-web\c18\PIC-WEB-5-42-UEXT-full\Microchip\TCPIP Stack\DHCPs.c
                MailState   0x000700       data     static F:\PIC-web\c18\PIC-WEB-5-42-UEXT-full\TCPIP\Demo App\SMTPDemo.c
                     MyIP   0x000c01       data     static F:\PIC-web\c18\PIC-WEB-5-42-UEXT-full\Microchip\TCPIP Stack\DHCP.c
                 MySocket   0x0009e8       data     static F:\PIC-web\c18\PIC-WEB-5-42-UEXT-full\Microchip\TCPIP Stack\DHCPs.c
                 MySocket   0x000b1f       data     static F:\PIC-web\c18\PIC-WEB-5-42-UEXT-full\Microchip\TCPIP Stack\TCPPerformanceTest.c
                 MySocket   0x0009dc       data     static F:\PIC-web\c18\PIC-WEB-5-42-UEXT-full\Microchip\TCPIP Stack\SNTP.c
                 MySocket   0x0008fd       data     static F:\PIC-web\c18\PIC-WEB-5-42-UEXT-full\Microchip\TCPIP Stack\SMTP.c
                 MySocket   0x000b2c       data     static F:\PIC-web\c18\PIC-WEB-5-42-UEXT-full\Microchip\TCPIP Stack\Reboot.c
                 MySocket   0x0004fb       data     static F:\PIC-web\c18\PIC-WEB-5-42-UEXT-full\Microchip\TCPIP Stack\NBNS.c
                 MySocket   0x000b14       data     static F:\PIC-web\c18\PIC-WEB-5-42-UEXT-full\Microchip\TCPIP Stack\DNS.c
                 MySocket   0x0006f9       data     static F:\PIC-web\c18\PIC-WEB-5-42-UEXT-full\TCPIP\Demo App\GenericTCPClient.c
                 MySocket   0x0005ff       data     static F:\PIC-web\c18\PIC-WEB-5-42-UEXT-full\TCPIP\Demo App\GenericTCPServer.c
                 MySocket   0x0009d3       data     static F:\PIC-web\c18\PIC-WEB-5-42-UEXT-full\Microchip\TCPIP Stack\UART2TCPBridge.c
                 MySocket   0x000b2a       data     static F:\PIC-web\c18\PIC-WEB-5-42-UEXT-full\Microchip\TCPIP Stack\Announce.c
                 MySocket   0x000c02       data     static F:\PIC-web\c18\PIC-WEB-5-42-UEXT-full\Microchip\TCPIP Stack\Announce.c
                 MySocket   0x000c6f       data     static F:\PIC-web\c18\PIC-WEB-5-42-UEXT-full\Microchip\TCPIP Stack\Telnet.c
                 MySocket   0x000b20       data     static F:\PIC-web\c18\PIC-WEB-5-42-UEXT-full\Microchip\TCPIP Stack\TCPPerformanceTest.c
                    MyTCB   0x000302       data     static F:\PIC-web\c18\PIC-WEB-5-42-UEXT-full\Microchip\TCPIP Stack\TCP.c
                MyTCBStub   0x000329       data     static F:\PIC-web\c18\PIC-WEB-5-42-UEXT-full\Microchip\TCPIP Stack\TCP.c
               NBNSHeader   0x000c05       data     static F:\PIC-web\c18\PIC-WEB-5-42-UEXT-full\Microchip\TCPIP Stack\NBNS.c
      NVMValidationStruct   0x000c39       data     static F:\PIC-web\c18\PIC-WEB-5-42-UEXT-full\TCPIP\Demo App\MainDemo.c
      NVMValidationStruct   0x000c01       data     static F:\PIC-web\c18\PIC-WEB-5-42-UEXT-full\TCPIP\Demo App\MainDemo.c
                     Name   0x0006db       data     static F:\PIC-web\c18\PIC-WEB-5-42-UEXT-full\Microchip\TCPIP Stack\Helpers.c
               NameString   0x000c11       data     static F:\PIC-web\c18\PIC-WEB-5-42-UEXT-full\Microchip\TCPIP Stack\NBNS.c
            Negative_Flag   0x000c4c       data     static F:\PIC-web\c18\PIC-WEB-5-42-UEXT-full\TCPIP\Demo App\Olimex_Demo_Files\Misc_Functions.c
              NewBaudRate   0x000c1e       data     static F:\PIC-web\c18\PIC-WEB-5-42-UEXT-full\TCPIP\Demo App\CustomHTTPApp.c
                  NewLine   0x000c24       data     static F:\PIC-web\c18\PIC-WEB-5-42-UEXT-full\TCPIP\Demo App\CustomHTTPApp.c
          NewRXRDLocation   0x000c4d       data     static F:\PIC-web\c18\PIC-WEB-5-42-UEXT-full\Microchip\TCPIP Stack\ETH97J60.c
       NextPacketLocation   0x0008af       data     static F:\PIC-web\c18\PIC-WEB-5-42-UEXT-full\Microchip\TCPIP Stack\ETH97J60.c
                 NextPort   0x0002cb       data     static F:\PIC-web\c18\PIC-WEB-5-42-UEXT-full\Microchip\TCPIP Stack\UDP.c
                 NextPort   0x000300       data     static F:\PIC-web\c18\PIC-WEB-5-42-UEXT-full\Microchip\TCPIP Stack\TCP.c
                   OSCCON   0x000fd3       data     extern E:\3.46\pic18-lt\cxx-framework\src\traditional\proc\p18f67j60.asm
               OSCCONbits   0x000fd3       data     extern E:\3.46\pic18-lt\cxx-framework\src\traditional\proc\p18f67j60.asm
                  OSCTUNE   0x000f9b       data     extern E:\3.46\pic18-lt\cxx-framework\src\traditional\proc\p18f67j60.asm
              OSCTUNEbits   0x000f9b       data     extern E:\3.46\pic18-lt\cxx-framework\src\traditional\proc\p18f67j60.asm
                   Offset   0x000986       data     static F:\PIC-web\c18\PIC-WEB-5-42-UEXT-full\Microchip\TCPIP Stack\IP.c
              Old_OSCTUNE   0x000c34       data     static F:\PIC-web\c18\PIC-WEB-5-42-UEXT-full\TCPIP\Demo App\CustomHTTPApp.c
                   Option   0x000c01       data     static F:\PIC-web\c18\PIC-WEB-5-42-UEXT-full\Microchip\TCPIP Stack\DHCPs.c
                   Option   0x000c35       data     static F:\PIC-web\c18\PIC-WEB-5-42-UEXT-full\Microchip\TCPIP Stack\DHCPs.c
                       PC   0x000ff9       data     extern E:\3.46\pic18-lt\cxx-framework\src\traditional\proc\p18f67j60.asm
                      PCL   0x000ff9       data     extern E:\3.46\pic18-lt\cxx-framework\src\traditional\proc\p18f67j60.asm
                   PCLATH   0x000ffa       data     extern E:\3.46\pic18-lt\cxx-framework\src\traditional\proc\p18f67j60.asm
                   PCLATU   0x000ffb       data     extern E:\3.46\pic18-lt\cxx-framework\src\traditional\proc\p18f67j60.asm
                     PIE1   0x000f9d       data     extern E:\3.46\pic18-lt\cxx-framework\src\traditional\proc\p18f67j60.asm
                 PIE1bits   0x000f9d       data     extern E:\3.46\pic18-lt\cxx-framework\src\traditional\proc\p18f67j60.asm
                     PIE2   0x000fa0       data     extern E:\3.46\pic18-lt\cxx-framework\src\traditional\proc\p18f67j60.asm
                 PIE2bits   0x000fa0       data     extern E:\3.46\pic18-lt\cxx-framework\src\traditional\proc\p18f67j60.asm
                     PIE3   0x000fa3       data     extern E:\3.46\pic18-lt\cxx-framework\src\traditional\proc\p18f67j60.asm
                 PIE3bits   0x000fa3       data     extern E:\3.46\pic18-lt\cxx-framework\src\traditional\proc\p18f67j60.asm
                     PIR1   0x000f9e       data     extern E:\3.46\pic18-lt\cxx-framework\src\traditional\proc\p18f67j60.asm
                 PIR1bits   0x000f9e       data     extern E:\3.46\pic18-lt\cxx-framework\src\traditional\proc\p18f67j60.asm
                     PIR2   0x000fa1       data     extern E:\3.46\pic18-lt\cxx-framework\src\traditional\proc\p18f67j60.asm
                 PIR2bits   0x000fa1       data     extern E:\3.46\pic18-lt\cxx-framework\src\traditional\proc\p18f67j60.asm
                     PIR3   0x000fa4       data     extern E:\3.46\pic18-lt\cxx-framework\src\traditional\proc\p18f67j60.asm
                 PIR3bits   0x000fa4       data     extern E:\3.46\pic18-lt\cxx-framework\src\traditional\proc\p18f67j60.asm
                   PLUSW0   0x000feb       data     extern E:\3.46\pic18-lt\cxx-framework\src\traditional\proc\p18f67j60.asm
                   PLUSW1   0x000fe3       data     extern E:\3.46\pic18-lt\cxx-framework\src\traditional\proc\p18f67j60.asm
                   PLUSW2   0x000fdb       data     extern E:\3.46\pic18-lt\cxx-framework\src\traditional\proc\p18f67j60.asm
                    PORTA   0x000f80       data     extern E:\3.46\pic18-lt\cxx-framework\src\traditional\proc\p18f67j60.asm
                PORTAbits   0x000f80       data     extern E:\3.46\pic18-lt\cxx-framework\src\traditional\proc\p18f67j60.asm
                    PORTB   0x000f81       data     extern E:\3.46\pic18-lt\cxx-framework\src\traditional\proc\p18f67j60.asm
                PORTBbits   0x000f81       data     extern E:\3.46\pic18-lt\cxx-framework\src\traditional\proc\p18f67j60.asm
                    PORTC   0x000f82       data     extern E:\3.46\pic18-lt\cxx-framework\src\traditional\proc\p18f67j60.asm
                PORTCbits   0x000f82       data     extern E:\3.46\pic18-lt\cxx-framework\src\traditional\proc\p18f67j60.asm
                    PORTD   0x000f83       data     extern E:\3.46\pic18-lt\cxx-framework\src\traditional\proc\p18f67j60.asm
                PORTDbits   0x000f83       data     extern E:\3.46\pic18-lt\cxx-framework\src\traditional\proc\p18f67j60.asm
                    PORTE   0x000f84       data     extern E:\3.46\pic18-lt\cxx-framework\src\traditional\proc\p18f67j60.asm
                PORTEbits   0x000f84       data     extern E:\3.46\pic18-lt\cxx-framework\src\traditional\proc\p18f67j60.asm
                    PORTF   0x000f85       data     extern E:\3.46\pic18-lt\cxx-framework\src\traditional\proc\p18f67j60.asm
                PORTFbits   0x000f85       data     extern E:\3.46\pic18-lt\cxx-framework\src\traditional\proc\p18f67j60.asm
                    PORTG   0x000f86       data     extern E:\3.46\pic18-lt\cxx-framework\src\traditional\proc\p18f67j60.asm
                PORTGbits   0x000f86       data     extern E:\3.46\pic18-lt\cxx-framework\src\traditional\proc\p18f67j60.asm
                 POSTDEC0   0x000fed       data     extern E:\3.46\pic18-lt\cxx-framework\src\traditional\proc\p18f67j60.asm
                 POSTDEC1   0x000fe5       data     extern E:\3.46\pic18-lt\cxx-framework\src\traditional\proc\p18f67j60.asm
                 POSTDEC2   0x000fdd       data     extern E:\3.46\pic18-lt\cxx-framework\src\traditional\proc\p18f67j60.asm
                 POSTINC0   0x000fee       data     extern E:\3.46\pic18-lt\cxx-framework\src\traditional\proc\p18f67j60.asm
                 POSTINC1   0x000fe6       data     extern E:\3.46\pic18-lt\cxx-framework\src\traditional\proc\p18f67j60.asm
                 POSTINC2   0x000fde       data     extern E:\3.46\pic18-lt\cxx-framework\src\traditional\proc\p18f67j60.asm
                      PR2   0x000fcb       data     extern E:\3.46\pic18-lt\cxx-framework\src\traditional\proc\p18f67j60.asm
                      PR4   0x000f77       data     extern E:\3.46\pic18-lt\cxx-framework\src\traditional\proc\p18f67j60.asm
                  PREINC0   0x000fec       data     extern E:\3.46\pic18-lt\cxx-framework\src\traditional\proc\p18f67j60.asm
                  PREINC1   0x000fe4       data     extern E:\3.46\pic18-lt\cxx-framework\src\traditional\proc\p18f67j60.asm
                  PREINC2   0x000fdc       data     extern E:\3.46\pic18-lt\cxx-framework\src\traditional\proc\p18f67j60.asm
                     PROD   0x000ff3       data     extern E:\3.46\pic18-lt\cxx-framework\src\traditional\proc\p18f67j60.asm
                    PRODH   0x000ff4       data     extern E:\3.46\pic18-lt\cxx-framework\src\traditional\proc\p18f67j60.asm
                    PRODL   0x000ff3       data     extern E:\3.46\pic18-lt\cxx-framework\src\traditional\proc\p18f67j60.asm
              ParseStates   0x000c03       data     static F:\PIC-web\c18\PIC-WEB-5-42-UEXT-full\Microchip\TCPIP Stack\SMTP.c
              ParseStates   0x000c04       data     static F:\PIC-web\c18\PIC-WEB-5-42-UEXT-full\Microchip\TCPIP Stack\SMTP.c
                PingState   0x000b2d       data     static F:\PIC-web\c18\PIC-WEB-5-42-UEXT-full\TCPIP\Demo App\PingDemo.c
                  Printed   0x000c11       data     static F:\PIC-web\c18\PIC-WEB-5-42-UEXT-full\Microchip\TCPIP Stack\Helpers.c
          PutHeadersState   0x000f29       data     static F:\PIC-web\c18\PIC-WEB-5-42-UEXT-full\Microchip\TCPIP Stack\SMTP.c
                RAMStrPtr   0x000f3b       data     static F:\PIC-web\c18\PIC-WEB-5-42-UEXT-full\Microchip\TCPIP Stack\SMTP.c
            RAMStringBody   0x000715       data     static F:\PIC-web\c18\PIC-WEB-5-42-UEXT-full\TCPIP\Demo App\SMTPDemo.c
              RAMStringTo   0x000701       data     static F:\PIC-web\c18\PIC-WEB-5-42-UEXT-full\TCPIP\Demo App\SMTPDemo.c
                  RCIndex   0x0009de       data     extern F:\PIC-web\c18\PIC-WEB-5-42-UEXT-full\TCPIP\Demo App\MainDemo.c
                     RCON   0x000fd0       data     extern E:\3.46\pic18-lt\cxx-framework\src\traditional\proc\p18f67j60.asm
                 RCONbits   0x000fd0       data     extern E:\3.46\pic18-lt\cxx-framework\src\traditional\proc\p18f67j60.asm
                    RCREG   0x000fae       data     extern E:\3.46\pic18-lt\cxx-framework\src\traditional\proc\p18f67j60.asm
                   RCREG1   0x000fae       data     extern E:\3.46\pic18-lt\cxx-framework\src\traditional\proc\p18f67j60.asm
                    RCSTA   0x000fab       data     extern E:\3.46\pic18-lt\cxx-framework\src\traditional\proc\p18f67j60.asm
                   RCSTA1   0x000fab       data     extern E:\3.46\pic18-lt\cxx-framework\src\traditional\proc\p18f67j60.asm
               RCSTA1bits   0x000fab       data     extern E:\3.46\pic18-lt\cxx-framework\src\traditional\proc\p18f67j60.asm
                RCSTAbits   0x000fab       data     extern E:\3.46\pic18-lt\cxx-framework\src\traditional\proc\p18f67j60.asm
                   RDSave   0x000c18       data     static F:\PIC-web\c18\PIC-WEB-5-42-UEXT-full\Microchip\TCPIP Stack\ETH97J60.c
                ROMStrPtr   0x000f35       data     static F:\PIC-web\c18\PIC-WEB-5-42-UEXT-full\Microchip\TCPIP Stack\SMTP.c
               ROMStrPtr2   0x000f38       data     static F:\PIC-web\c18\PIC-WEB-5-42-UEXT-full\Microchip\TCPIP Stack\SMTP.c
                 RXBuffer   0x000f31       data     static F:\PIC-web\c18\PIC-WEB-5-42-UEXT-full\Microchip\TCPIP Stack\SMTP.c
                RXHeadPtr   0x0009ca       data     static F:\PIC-web\c18\PIC-WEB-5-42-UEXT-full\Microchip\TCPIP Stack\UART2TCPBridge.c
          RXHeadPtrShadow   0x000c06       data     static F:\PIC-web\c18\PIC-WEB-5-42-UEXT-full\Microchip\TCPIP Stack\UART2TCPBridge.c
            RXParserState   0x000f2a       data     static F:\PIC-web\c18\PIC-WEB-5-42-UEXT-full\Microchip\TCPIP Stack\SMTP.c
                RXTailPtr   0x0009cc       data     static F:\PIC-web\c18\PIC-WEB-5-42-UEXT-full\Microchip\TCPIP Stack\UART2TCPBridge.c
          RXTailPtrShadow   0x000c08       data     static F:\PIC-web\c18\PIC-WEB-5-42-UEXT-full\Microchip\TCPIP Stack\UART2TCPBridge.c
                   ReadPT   0x000c4d       data     static F:\PIC-web\c18\PIC-WEB-5-42-UEXT-full\Microchip\TCPIP Stack\ETH97J60.c
                   ReadPT   0x000caa       data     static F:\PIC-web\c18\PIC-WEB-5-42-UEXT-full\Microchip\TCPIP Stack\ETH97J60.c
                 ReadSave   0x000caa       data     static F:\PIC-web\c18\PIC-WEB-5-42-UEXT-full\Microchip\TCPIP Stack\ETH97J60.c
               RecordType   0x0007d6       data     static F:\PIC-web\c18\PIC-WEB-5-42-UEXT-full\Microchip\TCPIP Stack\DNS.c
                 Register   0x0008e0       data     static F:\PIC-web\c18\PIC-WEB-5-42-UEXT-full\Microchip\TCPIP Stack\ETH97J60.c
                 Register   0x0008df       data     static F:\PIC-web\c18\PIC-WEB-5-42-UEXT-full\Microchip\TCPIP Stack\ETH97J60.c
               RemoteInfo   0x000353       data     static F:\PIC-web\c18\PIC-WEB-5-42-UEXT-full\Microchip\TCPIP Stack\TCP.c
             ResolvedInfo   0x0007d7       data     static F:\PIC-web\c18\PIC-WEB-5-42-UEXT-full\Microchip\TCPIP Stack\DNS.c
             ResponseCode   0x000f2b       data     static F:\PIC-web\c18\PIC-WEB-5-42-UEXT-full\Microchip\TCPIP Stack\SMTP.c
                   Result   0x000c00       data     static F:\PIC-web\c18\PIC-WEB-5-42-UEXT-full\Microchip\TCPIP Stack\ETH97J60.c
                 RightLen   0x000c5f       data     static F:\PIC-web\c18\PIC-WEB-5-42-UEXT-full\Microchip\TCPIP Stack\TCP.c
                 RightPtr   0x000c4d       data     static F:\PIC-web\c18\PIC-WEB-5-42-UEXT-full\Microchip\TCPIP Stack\DNS.c
                 RightPtr   0x000c4d       data     static F:\PIC-web\c18\PIC-WEB-5-42-UEXT-full\Microchip\TCPIP Stack\DNS.c
                     SIGN   0x000020       data     extern E:\3.46\pic18-lt\cxx-framework\src\traditional\math\cmath18.asm
               SMTPClient   0x000f00       data     extern F:\PIC-web\c18\PIC-WEB-5-42-UEXT-full\Microchip\TCPIP Stack\SMTP.c
                SMTPFlags   0x0008ff       data     static F:\PIC-web\c18\PIC-WEB-5-42-UEXT-full\Microchip\TCPIP Stack\SMTP.c
               SMTPServer   0x000f22       data     static F:\PIC-web\c18\PIC-WEB-5-42-UEXT-full\Microchip\TCPIP Stack\SMTP.c
                SMTPState   0x000f28       data     static F:\PIC-web\c18\PIC-WEB-5-42-UEXT-full\Microchip\TCPIP Stack\SMTP.c
                SNTPState   0x000f5f       data     static F:\PIC-web\c18\PIC-WEB-5-42-UEXT-full\TCPIP\Demo App\BerkeleyUDPClientDemo.c
                SNTPState   0x0009dd       data     static F:\PIC-web\c18\PIC-WEB-5-42-UEXT-full\Microchip\TCPIP Stack\SNTP.c
                    SPBRG   0x000faf       data     extern E:\3.46\pic18-lt\cxx-framework\src\traditional\proc\p18f67j60.asm
                   SPBRG1   0x000faf       data     extern E:\3.46\pic18-lt\cxx-framework\src\traditional\proc\p18f67j60.asm
                   SPBRGH   0x000f7f       data     extern E:\3.46\pic18-lt\cxx-framework\src\traditional\proc\p18f67j60.asm
                  SPBRGH1   0x000f7f       data     extern E:\3.46\pic18-lt\cxx-framework\src\traditional\proc\p18f67j60.asm
               SPI_String   0x0008ef       data     extern F:\PIC-web\c18\PIC-WEB-5-42-UEXT-full\TCPIP\Demo App\CustomHTTPApp.c
                  SSP1ADD   0x000fc8       data     extern E:\3.46\pic18-lt\cxx-framework\src\traditional\proc\p18f67j60.asm
                  SSP1BUF   0x000fc9       data     extern E:\3.46\pic18-lt\cxx-framework\src\traditional\proc\p18f67j60.asm
                 SSP1CON1   0x000fc6       data     extern E:\3.46\pic18-lt\cxx-framework\src\traditional\proc\p18f67j60.asm
             SSP1CON1bits   0x000fc6       data     extern E:\3.46\pic18-lt\cxx-framework\src\traditional\proc\p18f67j60.asm
                 SSP1CON2   0x000fc5       data     extern E:\3.46\pic18-lt\cxx-framework\src\traditional\proc\p18f67j60.asm
             SSP1CON2bits   0x000fc5       data     extern E:\3.46\pic18-lt\cxx-framework\src\traditional\proc\p18f67j60.asm
                 SSP1STAT   0x000fc7       data     extern E:\3.46\pic18-lt\cxx-framework\src\traditional\proc\p18f67j60.asm
             SSP1STATbits   0x000fc7       data     extern E:\3.46\pic18-lt\cxx-framework\src\traditional\proc\p18f67j60.asm
                   SSPADD   0x000fc8       data     extern E:\3.46\pic18-lt\cxx-framework\src\traditional\proc\p18f67j60.asm
                   SSPBUF   0x000fc9       data     extern E:\3.46\pic18-lt\cxx-framework\src\traditional\proc\p18f67j60.asm
                  SSPCON1   0x000fc6       data     extern E:\3.46\pic18-lt\cxx-framework\src\traditional\proc\p18f67j60.asm
              SSPCON1bits   0x000fc6       data     extern E:\3.46\pic18-lt\cxx-framework\src\traditional\proc\p18f67j60.asm
                  SSPCON2   0x000fc5       data     extern E:\3.46\pic18-lt\cxx-framework\src\traditional\proc\p18f67j60.asm
              SSPCON2bits   0x000fc5       data     extern E:\3.46\pic18-lt\cxx-framework\src\traditional\proc\p18f67j60.asm
                  SSPSTAT   0x000fc7       data     extern E:\3.46\pic18-lt\cxx-framework\src\traditional\proc\p18f67j60.asm
              SSPSTATbits   0x000fc7       data     extern E:\3.46\pic18-lt\cxx-framework\src\traditional\proc\p18f67j60.asm
                   STATUS   0x000fd8       data     extern E:\3.46\pic18-lt\cxx-framework\src\traditional\proc\p18f67j60.asm
               STATUSbits   0x000fd8       data     extern E:\3.46\pic18-lt\cxx-framework\src\traditional\proc\p18f67j60.asm
                   STKPTR   0x000ffc       data     extern E:\3.46\pic18-lt\cxx-framework\src\traditional\proc\p18f67j60.asm
               STKPTRbits   0x000ffc       data     extern E:\3.46\pic18-lt\cxx-framework\src\traditional\proc\p18f67j60.asm
                 SYNQueue   0x000800       data     static F:\PIC-web\c18\PIC-WEB-5-42-UEXT-full\Microchip\TCPIP Stack\TCP.c
        SentTransactionID   0x0007ee       data     static F:\PIC-web\c18\PIC-WEB-5-42-UEXT-full\Microchip\TCPIP Stack\DNS.c
               ServerName   0x0006e8       data     static F:\PIC-web\c18\PIC-WEB-5-42-UEXT-full\TCPIP\Demo App\GenericTCPClient.c
               ServerPort   0x0006f7       data     static F:\PIC-web\c18\PIC-WEB-5-42-UEXT-full\TCPIP\Demo App\GenericTCPClient.c
                     Size   0x0009f4       data     static F:\PIC-web\c18\PIC-WEB-5-42-UEXT-full\TCPIP\Demo App\Olimex_Demo_Files\Misc_Functions.c
         SocketWithRxData   0x000b1e       data     static F:\PIC-web\c18\PIC-WEB-5-42-UEXT-full\Microchip\TCPIP Stack\UDP.c
                   Source   0x0009f0       data     static F:\PIC-web\c18\PIC-WEB-5-42-UEXT-full\TCPIP\Demo App\Olimex_Demo_Files\Misc_Functions.c
              SourceIndex   0x000c44       data     static F:\PIC-web\c18\PIC-WEB-5-42-UEXT-full\TCPIP\Demo App\Olimex_Demo_Files\Misc_Functions.c
                SrcIPAddr   0x0005e2       data     static F:\PIC-web\c18\PIC-WEB-5-42-UEXT-full\Microchip\TCPIP Stack\ARP.c
                    Start   0x000caa       data     static F:\PIC-web\c18\PIC-WEB-5-42-UEXT-full\Microchip\TCPIP Stack\ETH97J60.c
                StartTime   0x000ce7       data     static F:\PIC-web\c18\PIC-WEB-5-42-UEXT-full\TCPIP\Demo App\MainDemo.c
                StartTime   0x0007ea       data     static F:\PIC-web\c18\PIC-WEB-5-42-UEXT-full\Microchip\TCPIP Stack\DNS.c
               StaticVars   0x000947       data     static F:\PIC-web\c18\PIC-WEB-5-42-UEXT-full\Microchip\TCPIP Stack\ICMP.c
                      Str   0x0009f5       data     static F:\PIC-web\c18\PIC-WEB-5-42-UEXT-full\TCPIP\Demo App\Olimex_Demo_Files\Misc_Functions.c
                   String   0x0007f2       data     static F:\PIC-web\c18\PIC-WEB-5-42-UEXT-full\Microchip\TCPIP Stack\DNS.c
                   String   0x0007f4       data     static F:\PIC-web\c18\PIC-WEB-5-42-UEXT-full\Microchip\TCPIP Stack\DNS.c
                   String   0x0004fc       data     static F:\PIC-web\c18\PIC-WEB-5-42-UEXT-full\Microchip\TCPIP Stack\NBNS.c
                   String   0x0004fe       data     static F:\PIC-web\c18\PIC-WEB-5-42-UEXT-full\Microchip\TCPIP Stack\NBNS.c
                   System   0x000c4e       data     static F:\PIC-web\c18\PIC-WEB-5-42-UEXT-full\TCPIP\Demo App\Olimex_Demo_Files\Misc_Functions.c
                    T0CON   0x000fd5       data     extern E:\3.46\pic18-lt\cxx-framework\src\traditional\proc\p18f67j60.asm
                T0CONSave   0x000c11       data     static F:\PIC-web\c18\PIC-WEB-5-42-UEXT-full\Microchip\TCPIP Stack\Helpers.c
                T0CONbits   0x000fd5       data     extern E:\3.46\pic18-lt\cxx-framework\src\traditional\proc\p18f67j60.asm
                    T1CON   0x000fcd       data     extern E:\3.46\pic18-lt\cxx-framework\src\traditional\proc\p18f67j60.asm
                T1CONbits   0x000fcd       data     extern E:\3.46\pic18-lt\cxx-framework\src\traditional\proc\p18f67j60.asm
                    T2CON   0x000fca       data     extern E:\3.46\pic18-lt\cxx-framework\src\traditional\proc\p18f67j60.asm
                T2CONbits   0x000fca       data     extern E:\3.46\pic18-lt\cxx-framework\src\traditional\proc\p18f67j60.asm
                    T3CON   0x000fb1       data     extern E:\3.46\pic18-lt\cxx-framework\src\traditional\proc\p18f67j60.asm
                T3CONbits   0x000fb1       data     extern E:\3.46\pic18-lt\cxx-framework\src\traditional\proc\p18f67j60.asm
                    T4CON   0x000f76       data     extern E:\3.46\pic18-lt\cxx-framework\src\traditional\proc\p18f67j60.asm
                T4CONbits   0x000f76       data     extern E:\3.46\pic18-lt\cxx-framework\src\traditional\proc\p18f67j60.asm
                   TABLAT   0x000ff5       data     extern E:\3.46\pic18-lt\cxx-framework\src\traditional\proc\p18f67j60.asm
                   TBLPTR   0x000ff6       data     extern E:\3.46\pic18-lt\cxx-framework\src\traditional\proc\p18f67j60.asm
                  TBLPTRH   0x000ff7       data     extern E:\3.46\pic18-lt\cxx-framework\src\traditional\proc\p18f67j60.asm
                  TBLPTRL   0x000ff6       data     extern E:\3.46\pic18-lt\cxx-framework\src\traditional\proc\p18f67j60.asm
                  TBLPTRU   0x000ff8       data     extern E:\3.46\pic18-lt\cxx-framework\src\traditional\proc\p18f67j60.asm
                 TCBStubs   0x000100       data     static F:\PIC-web\c18\PIC-WEB-5-42-UEXT-full\Microchip\TCPIP Stack\TCP.c
                  TCIndex   0x0009df       data     extern F:\PIC-web\c18\PIC-WEB-5-42-UEXT-full\TCPIP\Demo App\MainDemo.c
                TCPHeader   0x000c00       data     static F:\PIC-web\c18\PIC-WEB-5-42-UEXT-full\Microchip\TCPIP Stack\TCP.c
           TCPServerState   0x000b30       data     static F:\PIC-web\c18\PIC-WEB-5-42-UEXT-full\TCPIP\Demo App\GenericTCPServer.c
                    TMR0H   0x000fd7       data     extern E:\3.46\pic18-lt\cxx-framework\src\traditional\proc\p18f67j60.asm
                TMR0HSave   0x000c12       data     static F:\PIC-web\c18\PIC-WEB-5-42-UEXT-full\Microchip\TCPIP Stack\Helpers.c
                    TMR0L   0x000fd6       data     extern E:\3.46\pic18-lt\cxx-framework\src\traditional\proc\p18f67j60.asm
                TMR0LSave   0x000c13       data     static F:\PIC-web\c18\PIC-WEB-5-42-UEXT-full\Microchip\TCPIP Stack\Helpers.c
                    TMR1H   0x000fcf       data     extern E:\3.46\pic18-lt\cxx-framework\src\traditional\proc\p18f67j60.asm
                    TMR1L   0x000fce       data     extern E:\3.46\pic18-lt\cxx-framework\src\traditional\proc\p18f67j60.asm
                     TMR2   0x000fcc       data     extern E:\3.46\pic18-lt\cxx-framework\src\traditional\proc\p18f67j60.asm
                    TMR3H   0x000fb3       data     extern E:\3.46\pic18-lt\cxx-framework\src\traditional\proc\p18f67j60.asm
                    TMR3L   0x000fb2       data     extern E:\3.46\pic18-lt\cxx-framework\src\traditional\proc\p18f67j60.asm
                     TMR4   0x000f78       data     extern E:\3.46\pic18-lt\cxx-framework\src\traditional\proc\p18f67j60.asm
                      TOS   0x000ffd       data     extern E:\3.46\pic18-lt\cxx-framework\src\traditional\proc\p18f67j60.asm
                     TOSH   0x000ffe       data     extern E:\3.46\pic18-lt\cxx-framework\src\traditional\proc\p18f67j60.asm
                     TOSL   0x000ffd       data     extern E:\3.46\pic18-lt\cxx-framework\src\traditional\proc\p18f67j60.asm
                     TOSU   0x000fff       data     extern E:\3.46\pic18-lt\cxx-framework\src\traditional\proc\p18f67j60.asm
                    TRISA   0x000f92       data     extern E:\3.46\pic18-lt\cxx-framework\src\traditional\proc\p18f67j60.asm
                TRISAbits   0x000f92       data     extern E:\3.46\pic18-lt\cxx-framework\src\traditional\proc\p18f67j60.asm
                    TRISB   0x000f93       data     extern E:\3.46\pic18-lt\cxx-framework\src\traditional\proc\p18f67j60.asm
                TRISBbits   0x000f93       data     extern E:\3.46\pic18-lt\cxx-framework\src\traditional\proc\p18f67j60.asm
                    TRISC   0x000f94       data     extern E:\3.46\pic18-lt\cxx-framework\src\traditional\proc\p18f67j60.asm
                TRISCbits   0x000f94       data     extern E:\3.46\pic18-lt\cxx-framework\src\traditional\proc\p18f67j60.asm
                    TRISD   0x000f95       data     extern E:\3.46\pic18-lt\cxx-framework\src\traditional\proc\p18f67j60.asm
                TRISDbits   0x000f95       data     extern E:\3.46\pic18-lt\cxx-framework\src\traditional\proc\p18f67j60.asm
                    TRISE   0x000f96       data     extern E:\3.46\pic18-lt\cxx-framework\src\traditional\proc\p18f67j60.asm
                TRISEbits   0x000f96       data     extern E:\3.46\pic18-lt\cxx-framework\src\traditional\proc\p18f67j60.asm
                    TRISF   0x000f97       data     extern E:\3.46\pic18-lt\cxx-framework\src\traditional\proc\p18f67j60.asm
                TRISFbits   0x000f97       data     extern E:\3.46\pic18-lt\cxx-framework\src\traditional\proc\p18f67j60.asm
                    TRISG   0x000f98       data     extern E:\3.46\pic18-lt\cxx-framework\src\traditional\proc\p18f67j60.asm
                TRISGbits   0x000f98       data     extern E:\3.46\pic18-lt\cxx-framework\src\traditional\proc\p18f67j60.asm
                TXHeadPtr   0x0009ce       data     static F:\PIC-web\c18\PIC-WEB-5-42-UEXT-full\Microchip\TCPIP Stack\UART2TCPBridge.c
          TXHeadPtrShadow   0x000c0a       data     static F:\PIC-web\c18\PIC-WEB-5-42-UEXT-full\Microchip\TCPIP Stack\UART2TCPBridge.c
                    TXREG   0x000fad       data     extern E:\3.46\pic18-lt\cxx-framework\src\traditional\proc\p18f67j60.asm
                   TXREG1   0x000fad       data     extern E:\3.46\pic18-lt\cxx-framework\src\traditional\proc\p18f67j60.asm
                    TXSTA   0x000fac       data     extern E:\3.46\pic18-lt\cxx-framework\src\traditional\proc\p18f67j60.asm
                   TXSTA1   0x000fac       data     extern E:\3.46\pic18-lt\cxx-framework\src\traditional\proc\p18f67j60.asm
               TXSTA1bits   0x000fac       data     extern E:\3.46\pic18-lt\cxx-framework\src\traditional\proc\p18f67j60.asm
                TXSTAbits   0x000fac       data     extern E:\3.46\pic18-lt\cxx-framework\src\traditional\proc\p18f67j60.asm
                TXTailPtr   0x0009d0       data     static F:\PIC-web\c18\PIC-WEB-5-42-UEXT-full\Microchip\TCPIP Stack\UART2TCPBridge.c
          TXTailPtrShadow   0x000c0c       data     static F:\PIC-web\c18\PIC-WEB-5-42-UEXT-full\Microchip\TCPIP Stack\UART2TCPBridge.c
                   Target   0x0005ed       data     static F:\PIC-web\c18\PIC-WEB-5-42-UEXT-full\Microchip\TCPIP Stack\ARP.c
              TelnetState   0x000c70       data     static F:\PIC-web\c18\PIC-WEB-5-42-UEXT-full\Microchip\TCPIP Stack\Telnet.c
                     Temp   0x000c16       data     static F:\PIC-web\c18\PIC-WEB-5-42-UEXT-full\TCPIP\Demo App\CustomHTTPApp.c
                     Temp   0x000c37       data     static F:\PIC-web\c18\PIC-WEB-5-42-UEXT-full\TCPIP\Demo App\CustomHTTPApp.c
                     Temp   0x000c44       data     static F:\PIC-web\c18\PIC-WEB-5-42-UEXT-full\TCPIP\Demo App\Olimex_Demo_Files\Misc_Functions.c
                     Temp   0x000c27       data     static F:\PIC-web\c18\PIC-WEB-5-42-UEXT-full\TCPIP\Demo App\CustomHTTPApp.c
                     Temp   0x000c1c       data     static F:\PIC-web\c18\PIC-WEB-5-42-UEXT-full\TCPIP\Demo App\CustomHTTPApp.c
               TempString   0x000c00       data     static F:\PIC-web\c18\PIC-WEB-5-42-UEXT-full\TCPIP\Demo App\CustomHTTPApp.c
                  TempVar   0x000c44       data     static F:\PIC-web\c18\PIC-WEB-5-42-UEXT-full\TCPIP\Demo App\Olimex_Demo_Files\Custom_SPI_Low.c
                  TempVar   0x000c44       data     static F:\PIC-web\c18\PIC-WEB-5-42-UEXT-full\TCPIP\Demo App\Olimex_Demo_Files\Custom_SPI_Low.c
                    Timer   0x000b04       data     static F:\PIC-web\c18\PIC-WEB-5-42-UEXT-full\TCPIP\Demo App\GenericTCPClient.c
                    Timer   0x000f2d       data     static F:\PIC-web\c18\PIC-WEB-5-42-UEXT-full\Microchip\TCPIP Stack\SMTP.c
                    Timer   0x000b00       data     static F:\PIC-web\c18\PIC-WEB-5-42-UEXT-full\TCPIP\Demo App\PingDemo.c
                 Transmit   0x000c18       data     static F:\PIC-web\c18\PIC-WEB-5-42-UEXT-full\TCPIP\Demo App\CustomHTTPApp.c
           TransportState   0x0008fe       data     static F:\PIC-web\c18\PIC-WEB-5-42-UEXT-full\Microchip\TCPIP Stack\SMTP.c
                     Type   0x000c01       data     static F:\PIC-web\c18\PIC-WEB-5-42-UEXT-full\Microchip\TCPIP Stack\NBNS.c
                     Type   0x0007e3       data     static F:\PIC-web\c18\PIC-WEB-5-42-UEXT-full\Microchip\TCPIP Stack\DNS.c
                     Type   0x0007e7       data     static F:\PIC-web\c18\PIC-WEB-5-42-UEXT-full\Microchip\TCPIP Stack\DNS.c
              UART_Buffer   0x000a00       data     extern F:\PIC-web\c18\PIC-WEB-5-42-UEXT-full\TCPIP\Demo App\MainDemo.c
               UDPRxCount   0x0002bb       data     extern F:\PIC-web\c18\PIC-WEB-5-42-UEXT-full\Microchip\TCPIP Stack\UDP.c
            UDPSocketInfo   0x000200       data     extern F:\PIC-web\c18\PIC-WEB-5-42-UEXT-full\Microchip\TCPIP Stack\UDP.c
               UDPTxCount   0x0002b9       data     extern F:\PIC-web\c18\PIC-WEB-5-42-UEXT-full\Microchip\TCPIP Stack\UDP.c
        UpdateReadPointer   0x000caf       data     static F:\PIC-web\c18\PIC-WEB-5-42-UEXT-full\Microchip\TCPIP Stack\ETH97J60.c
       UpdateWritePointer   0x000cae       data     static F:\PIC-web\c18\PIC-WEB-5-42-UEXT-full\Microchip\TCPIP Stack\ETH97J60.c
                    Value   0x000c2f       data     static F:\PIC-web\c18\PIC-WEB-5-42-UEXT-full\TCPIP\Demo App\CustomHTTPApp.c
                    Value   0x0006bb       data     static F:\PIC-web\c18\PIC-WEB-5-42-UEXT-full\Microchip\TCPIP Stack\Helpers.c
                    Value   0x000c39       data     static F:\PIC-web\c18\PIC-WEB-5-42-UEXT-full\TCPIP\Demo App\CustomHTTPApp.c
                   WDTCON   0x000fd1       data     extern E:\3.46\pic18-lt\cxx-framework\src\traditional\proc\p18f67j60.asm
               WDTCONbits   0x000fd1       data     extern E:\3.46\pic18-lt\cxx-framework\src\traditional\proc\p18f67j60.asm
                     WREG   0x000fe8       data     extern E:\3.46\pic18-lt\cxx-framework\src\traditional\proc\p18f67j60.asm
                 WaitTime   0x0009fc       data     static F:\PIC-web\c18\PIC-WEB-5-42-UEXT-full\TCPIP\Demo App\SMTPDemo.c
                  WritePT   0x000cac       data     static F:\PIC-web\c18\PIC-WEB-5-42-UEXT-full\Microchip\TCPIP Stack\ETH97J60.c
                WriteSave   0x000cac       data     static F:\PIC-web\c18\PIC-WEB-5-42-UEXT-full\Microchip\TCPIP Stack\ETH97J60.c
              _Identifier   0x000b25       data     static F:\PIC-web\c18\PIC-WEB-5-42-UEXT-full\Microchip\TCPIP Stack\IP.c
                 __AARGB0   0x000029       data     extern E:\3.46\pic18-lt\cxx-framework\src\traditional\math\aarg.asm
                 __AARGB1   0x000028       data     extern E:\3.46\pic18-lt\cxx-framework\src\traditional\math\aarg.asm
                 __AARGB2   0x000027       data     extern E:\3.46\pic18-lt\cxx-framework\src\traditional\math\aarg.asm
                 __AARGB3   0x000026       data     extern E:\3.46\pic18-lt\cxx-framework\src\traditional\math\aarg.asm
                 __AARGB4   0x000025       data     extern E:\3.46\pic18-lt\cxx-framework\src\traditional\math\aarg.asm
                 __AARGB5   0x000024       data     extern E:\3.46\pic18-lt\cxx-framework\src\traditional\math\aarg.asm
                 __AARGB6   0x000023       data     extern E:\3.46\pic18-lt\cxx-framework\src\traditional\math\aarg.asm
                 __AARGB7   0x000022       data     extern E:\3.46\pic18-lt\cxx-framework\src\traditional\math\aarg.asm
                   __AEXP   0x00002a       data     extern E:\3.46\pic18-lt\cxx-framework\src\traditional\math\aarg.asm
        __ARPIsResolved:0   0x0005f9       data     extern F:\PIC-web\c18\PIC-WEB-5-42-UEXT-full\Microchip\TCPIP Stack\ARP.c
        __ARPIsResolved:1   0x0005fb       data     extern F:\PIC-web\c18\PIC-WEB-5-42-UEXT-full\Microchip\TCPIP Stack\ARP.c
               __ARPPut:0   0x0005eb       data     static F:\PIC-web\c18\PIC-WEB-5-42-UEXT-full\Microchip\TCPIP Stack\ARP.c
           __ARPResolve:0   0x0005f7       data     extern F:\PIC-web\c18\PIC-WEB-5-42-UEXT-full\Microchip\TCPIP Stack\ARP.c
           __ARPSendPkt:0   0x0005e2       data     extern F:\PIC-web\c18\PIC-WEB-5-42-UEXT-full\Microchip\TCPIP Stack\ARP.c
           __ARPSendPkt:1   0x0005e6       data     extern F:\PIC-web\c18\PIC-WEB-5-42-UEXT-full\Microchip\TCPIP Stack\ARP.c
           __ARPSendPkt:2   0x0005ea       data     extern F:\PIC-web\c18\PIC-WEB-5-42-UEXT-full\Microchip\TCPIP Stack\ARP.c
__AutoIPConfigIsInProgress:0   0x00086d       data     extern F:\PIC-web\c18\PIC-WEB-5-42-UEXT-full\Microchip\TCPIP Stack\AutoIP.c
       __AutoIPConflict:0   0x00086e       data     extern F:\PIC-web\c18\PIC-WEB-5-42-UEXT-full\Microchip\TCPIP Stack\AutoIP.c
        __AutoIPDisable:0   0x00086f       data     extern F:\PIC-web\c18\PIC-WEB-5-42-UEXT-full\Microchip\TCPIP Stack\AutoIP.c
         __AutoIPEnable:0   0x000870       data     extern F:\PIC-web\c18\PIC-WEB-5-42-UEXT-full\Microchip\TCPIP Stack\AutoIP.c
           __AutoIPInit:0   0x00086b       data     extern F:\PIC-web\c18\PIC-WEB-5-42-UEXT-full\Microchip\TCPIP Stack\AutoIP.c
   __AutoIPIsConfigured:0   0x00086c       data     extern F:\PIC-web\c18\PIC-WEB-5-42-UEXT-full\Microchip\TCPIP Stack\AutoIP.c
     __AutoIPIsDisabled:0   0x000871       data     extern F:\PIC-web\c18\PIC-WEB-5-42-UEXT-full\Microchip\TCPIP Stack\AutoIP.c
           __AutoIPRand:0   0x000877       data     extern F:\PIC-web\c18\PIC-WEB-5-42-UEXT-full\Microchip\TCPIP Stack\AutoIP.c
       __AutoIPRandSeed:0   0x000872       data     extern F:\PIC-web\c18\PIC-WEB-5-42-UEXT-full\Microchip\TCPIP Stack\AutoIP.c
       __AutoIPRandSeed:1   0x000876       data     extern F:\PIC-web\c18\PIC-WEB-5-42-UEXT-full\Microchip\TCPIP Stack\AutoIP.c
                 __BARGB0   0x00002e       data     extern E:\3.46\pic18-lt\cxx-framework\src\traditional\math\barg.asm
                 __BARGB1   0x00002d       data     extern E:\3.46\pic18-lt\cxx-framework\src\traditional\math\barg.asm
                 __BARGB2   0x00002c       data     extern E:\3.46\pic18-lt\cxx-framework\src\traditional\math\barg.asm
                 __BARGB3   0x00002b       data     extern E:\3.46\pic18-lt\cxx-framework\src\traditional\math\barg.asm
                   __BEXP   0x00002f       data     extern E:\3.46\pic18-lt\cxx-framework\src\traditional\math\barg.asm
         __Base64Decode:0   0x0006ab       data     extern F:\PIC-web\c18\PIC-WEB-5-42-UEXT-full\Microchip\TCPIP Stack\Helpers.c
         __Base64Decode:1   0x0006ad       data     extern F:\PIC-web\c18\PIC-WEB-5-42-UEXT-full\Microchip\TCPIP Stack\Helpers.c
         __Base64Decode:2   0x0006af       data     extern F:\PIC-web\c18\PIC-WEB-5-42-UEXT-full\Microchip\TCPIP Stack\Helpers.c
         __Base64Decode:3   0x0006b1       data     extern F:\PIC-web\c18\PIC-WEB-5-42-UEXT-full\Microchip\TCPIP Stack\Helpers.c
         __Base64Encode:0   0x0006b3       data     extern F:\PIC-web\c18\PIC-WEB-5-42-UEXT-full\Microchip\TCPIP Stack\Helpers.c
         __Base64Encode:1   0x0006b5       data     extern F:\PIC-web\c18\PIC-WEB-5-42-UEXT-full\Microchip\TCPIP Stack\Helpers.c
         __Base64Encode:2   0x0006b7       data     extern F:\PIC-web\c18\PIC-WEB-5-42-UEXT-full\Microchip\TCPIP Stack\Helpers.c
         __Base64Encode:3   0x0006b9       data     extern F:\PIC-web\c18\PIC-WEB-5-42-UEXT-full\Microchip\TCPIP Stack\Helpers.c
         __ByteToBuffer:0   0x0008a9       data     extern F:\PIC-web\c18\PIC-WEB-5-42-UEXT-full\Microchip\TCPIP Stack\SPIFlash.c
         __ByteToBuffer:1   0x0008ab       data     extern F:\PIC-web\c18\PIC-WEB-5-42-UEXT-full\Microchip\TCPIP Stack\SPIFlash.c
 __CalcIPBufferChecksum:0   0x0008c9       data     extern F:\PIC-web\c18\PIC-WEB-5-42-UEXT-full\Microchip\TCPIP Stack\ETH97J60.c
       __CalcIPChecksum:0   0x0006ce       data     extern F:\PIC-web\c18\PIC-WEB-5-42-UEXT-full\Microchip\TCPIP Stack\Helpers.c
       __CalcIPChecksum:1   0x0006d0       data     extern F:\PIC-web\c18\PIC-WEB-5-42-UEXT-full\Microchip\TCPIP Stack\Helpers.c
     __Compare_MAC_addr:0   0x0004ef       data     static F:\PIC-web\c18\PIC-WEB-5-42-UEXT-full\Microchip\TCPIP Stack\DHCPs.c
     __Compare_MAC_addr:1   0x0004f1       data     static F:\PIC-web\c18\PIC-WEB-5-42-UEXT-full\Microchip\TCPIP Stack\DHCPs.c
 __ConvertArrayToString:0   0x0009f0       data     extern F:\PIC-web\c18\PIC-WEB-5-42-UEXT-full\TCPIP\Demo App\Olimex_Demo_Files\Misc_Functions.c
 __ConvertArrayToString:1   0x0009f2       data     extern F:\PIC-web\c18\PIC-WEB-5-42-UEXT-full\TCPIP\Demo App\Olimex_Demo_Files\Misc_Functions.c
 __ConvertArrayToString:2   0x0009f4       data     extern F:\PIC-web\c18\PIC-WEB-5-42-UEXT-full\TCPIP\Demo App\Olimex_Demo_Files\Misc_Functions.c
__Convert_String_to_Int:0   0x0009f5       data     extern F:\PIC-web\c18\PIC-WEB-5-42-UEXT-full\TCPIP\Demo App\Olimex_Demo_Files\Misc_Functions.c
    __Custom_SWWriteI2C:0   0x000b29       data     extern F:\PIC-web\c18\PIC-WEB-5-42-UEXT-full\TCPIP\Demo App\Olimex_Demo_Files\Custom_I2C_Low.c
          __DHCPDisable:0   0x0003f8       data     extern F:\PIC-web\c18\PIC-WEB-5-42-UEXT-full\Microchip\TCPIP Stack\DHCP.c
           __DHCPEnable:0   0x0003f9       data     extern F:\PIC-web\c18\PIC-WEB-5-42-UEXT-full\Microchip\TCPIP Stack\DHCP.c
             __DHCPInit:0   0x0003f7       data     extern F:\PIC-web\c18\PIC-WEB-5-42-UEXT-full\Microchip\TCPIP Stack\DHCP.c
          __DHCPIsBound:0   0x0003fb       data     extern F:\PIC-web\c18\PIC-WEB-5-42-UEXT-full\Microchip\TCPIP Stack\DHCP.c
        __DHCPIsEnabled:0   0x0003fa       data     extern F:\PIC-web\c18\PIC-WEB-5-42-UEXT-full\Microchip\TCPIP Stack\DHCP.c
 __DHCPIsServerDetected:0   0x0003fd       data     extern F:\PIC-web\c18\PIC-WEB-5-42-UEXT-full\Microchip\TCPIP Stack\DHCP.c
 __DHCPReplyToDiscovery:0   0x0004e2       data     static F:\PIC-web\c18\PIC-WEB-5-42-UEXT-full\Microchip\TCPIP Stack\DHCPs.c
   __DHCPReplyToRequest:0   0x0004e4       data     static F:\PIC-web\c18\PIC-WEB-5-42-UEXT-full\Microchip\TCPIP Stack\DHCPs.c
   __DHCPReplyToRequest:1   0x0004e6       data     static F:\PIC-web\c18\PIC-WEB-5-42-UEXT-full\Microchip\TCPIP Stack\DHCPs.c
   __DHCPReplyToRequest:2   0x0004e7       data     static F:\PIC-web\c18\PIC-WEB-5-42-UEXT-full\Microchip\TCPIP Stack\DHCPs.c
     __DHCPStateChanged:0   0x0003fc       data     extern F:\PIC-web\c18\PIC-WEB-5-42-UEXT-full\Microchip\TCPIP Stack\DHCP.c
        __DNSIsResolved:0   0x0007e8       data     extern F:\PIC-web\c18\PIC-WEB-5-42-UEXT-full\Microchip\TCPIP Stack\DNS.c
      __DNSPutROMString:0   0x0007f4       data     static F:\PIC-web\c18\PIC-WEB-5-42-UEXT-full\Microchip\TCPIP Stack\DNS.c
         __DNSPutString:0   0x0007f2       data     static F:\PIC-web\c18\PIC-WEB-5-42-UEXT-full\Microchip\TCPIP Stack\DNS.c
           __DNSResolve:0   0x0007e1       data     extern F:\PIC-web\c18\PIC-WEB-5-42-UEXT-full\Microchip\TCPIP Stack\DNS.c
           __DNSResolve:1   0x0007e3       data     extern F:\PIC-web\c18\PIC-WEB-5-42-UEXT-full\Microchip\TCPIP Stack\DNS.c
        __DNSResolveROM:0   0x0007e4       data     extern F:\PIC-web\c18\PIC-WEB-5-42-UEXT-full\Microchip\TCPIP Stack\DNS.c
        __DNSResolveROM:1   0x0007e7       data     extern F:\PIC-web\c18\PIC-WEB-5-42-UEXT-full\Microchip\TCPIP Stack\DNS.c
       __DisplayIPValue:0   0x0007cb       data     extern F:\PIC-web\c18\PIC-WEB-5-42-UEXT-full\TCPIP\Demo App\MainDemo.c
                __FPFLAGS   0x000021       data     extern E:\3.46\pic18-lt\cxx-framework\src\traditional\math\cmath18.asm
            __FPFLAGSbits   0x000021       data     extern E:\3.46\pic18-lt\cxx-framework\src\traditional\math\cmath18.asm
     __FindEmailAddress:0   0x000f4e       data     static F:\PIC-web\c18\PIC-WEB-5-42-UEXT-full\Microchip\TCPIP Stack\SMTP.c
     __FindEmailAddress:1   0x000f50       data     static F:\PIC-web\c18\PIC-WEB-5-42-UEXT-full\Microchip\TCPIP Stack\SMTP.c
   __FindMatchingSocket:0   0x0002f0       data     static F:\PIC-web\c18\PIC-WEB-5-42-UEXT-full\Microchip\TCPIP Stack\UDP.c
   __FindMatchingSocket:0   0x0003af       data     static F:\PIC-web\c18\PIC-WEB-5-42-UEXT-full\Microchip\TCPIP Stack\TCP.c
   __FindMatchingSocket:1   0x0002f2       data     static F:\PIC-web\c18\PIC-WEB-5-42-UEXT-full\Microchip\TCPIP Stack\UDP.c
   __FindMatchingSocket:1   0x0003b1       data     static F:\PIC-web\c18\PIC-WEB-5-42-UEXT-full\Microchip\TCPIP Stack\TCP.c
   __FindMatchingSocket:2   0x0002f4       data     static F:\PIC-web\c18\PIC-WEB-5-42-UEXT-full\Microchip\TCPIP Stack\UDP.c
  __FindROMEmailAddress:0   0x000f52       data     static F:\PIC-web\c18\PIC-WEB-5-42-UEXT-full\Microchip\TCPIP Stack\SMTP.c
  __FindROMEmailAddress:1   0x000f55       data     static F:\PIC-web\c18\PIC-WEB-5-42-UEXT-full\Microchip\TCPIP Stack\SMTP.c
    __FormatNetBIOSName:0   0x0006db       data     extern F:\PIC-web\c18\PIC-WEB-5-42-UEXT-full\Microchip\TCPIP Stack\Helpers.c
__GetIPAddrFromIndex_DhcpPool:0   0x0004ee       data     static F:\PIC-web\c18\PIC-WEB-5-42-UEXT-full\Microchip\TCPIP Stack\DHCPs.c
        __HTTPCheckAuth:0   0x000e02       data     extern F:\PIC-web\c18\PIC-WEB-5-42-UEXT-full\TCPIP\Demo App\CustomHTTPApp.c
        __HTTPCheckAuth:1   0x000e04       data     extern F:\PIC-web\c18\PIC-WEB-5-42-UEXT-full\TCPIP\Demo App\CustomHTTPApp.c
           __HTTPGetArg:0   0x000908       data     extern F:\PIC-web\c18\PIC-WEB-5-42-UEXT-full\Microchip\TCPIP Stack\HTTP2.c
           __HTTPGetArg:1   0x00090a       data     extern F:\PIC-web\c18\PIC-WEB-5-42-UEXT-full\Microchip\TCPIP Stack\HTTP2.c
        __HTTPGetROMArg:0   0x00090c       data     extern F:\PIC-web\c18\PIC-WEB-5-42-UEXT-full\Microchip\TCPIP Stack\HTTP2.c
        __HTTPGetROMArg:1   0x00090e       data     extern F:\PIC-web\c18\PIC-WEB-5-42-UEXT-full\Microchip\TCPIP Stack\HTTP2.c
__HTTPHeaderParseLookup:0   0x000905       data     static F:\PIC-web\c18\PIC-WEB-5-42-UEXT-full\Microchip\TCPIP Stack\HTTP2.c
          __HTTPIncFile:0   0x00091e       data     extern F:\PIC-web\c18\PIC-WEB-5-42-UEXT-full\Microchip\TCPIP Stack\HTTP2.c
         __HTTPLoadConn:0   0x000904       data     static F:\PIC-web\c18\PIC-WEB-5-42-UEXT-full\Microchip\TCPIP Stack\HTTP2.c
        __HTTPNeedsAuth:0   0x000e00       data     extern F:\PIC-web\c18\PIC-WEB-5-42-UEXT-full\TCPIP\Demo App\CustomHTTPApp.c
            __HTTPPrint:0   0x000900       data     extern F:\PIC-web\c18\PIC-WEB-5-42-UEXT-full\TCPIP\Demo App\HTTPPrint.h
          __HTTPPrintIP:0   0x000e6b       data     extern F:\PIC-web\c18\PIC-WEB-5-42-UEXT-full\TCPIP\Demo App\CustomHTTPApp.c
        __HTTPPrint_btn:0   0x000e63       data     extern F:\PIC-web\c18\PIC-WEB-5-42-UEXT-full\TCPIP\Demo App\CustomHTTPApp.c
__HTTPPrint_ddns_service:0   0x000e73       data     extern F:\PIC-web\c18\PIC-WEB-5-42-UEXT-full\TCPIP\Demo App\CustomHTTPApp.c
        __HTTPPrint_led:0   0x000e65       data     extern F:\PIC-web\c18\PIC-WEB-5-42-UEXT-full\TCPIP\Demo App\CustomHTTPApp.c
__HTTPPrint_ledSelected:0   0x000e67       data     extern F:\PIC-web\c18\PIC-WEB-5-42-UEXT-full\TCPIP\Demo App\CustomHTTPApp.c
__HTTPPrint_ledSelected:1   0x000e69       data     extern F:\PIC-web\c18\PIC-WEB-5-42-UEXT-full\TCPIP\Demo App\CustomHTTPApp.c
  __HTTPPrint_read_comm:0   0x000e6f       data     extern F:\PIC-web\c18\PIC-WEB-5-42-UEXT-full\TCPIP\Demo App\CustomHTTPApp.c
 __HTTPPrint_write_comm:0   0x000e71       data     extern F:\PIC-web\c18\PIC-WEB-5-42-UEXT-full\TCPIP\Demo App\CustomHTTPApp.c
     __HTTPReadPostName:0   0x000911       data     extern F:\PIC-web\c18\PIC-WEB-5-42-UEXT-full\Microchip\TCPIP Stack\HTTP2.c
     __HTTPReadPostName:1   0x000913       data     extern F:\PIC-web\c18\PIC-WEB-5-42-UEXT-full\Microchip\TCPIP Stack\HTTP2.c
    __HTTPReadPostValue:0   0x000915       data     extern F:\PIC-web\c18\PIC-WEB-5-42-UEXT-full\Microchip\TCPIP Stack\HTTP2.c
    __HTTPReadPostValue:1   0x000917       data     extern F:\PIC-web\c18\PIC-WEB-5-42-UEXT-full\Microchip\TCPIP Stack\HTTP2.c
           __HTTPReadTo:0   0x000919       data     static F:\PIC-web\c18\PIC-WEB-5-42-UEXT-full\Microchip\TCPIP Stack\HTTP2.c
           __HTTPReadTo:1   0x00091a       data     static F:\PIC-web\c18\PIC-WEB-5-42-UEXT-full\Microchip\TCPIP Stack\HTTP2.c
           __HTTPReadTo:2   0x00091c       data     static F:\PIC-web\c18\PIC-WEB-5-42-UEXT-full\Microchip\TCPIP Stack\HTTP2.c
        __HTTPURLDecode:0   0x000906       data     extern F:\PIC-web\c18\PIC-WEB-5-42-UEXT-full\Microchip\TCPIP Stack\HTTP2.c
__HandlePossibleTCPDisconnection:0   0x00078d       data     static F:\PIC-web\c18\PIC-WEB-5-42-UEXT-full\Microchip\TCPIP Stack\BerkeleyAPI.c
         __HandleTCPSeg:0   0x0003b5       data     static F:\PIC-web\c18\PIC-WEB-5-42-UEXT-full\Microchip\TCPIP Stack\TCP.c
         __HandleTCPSeg:1   0x0003b7       data     static F:\PIC-web\c18\PIC-WEB-5-42-UEXT-full\Microchip\TCPIP Stack\TCP.c
          __HashAddData:0   0x0005ae       data     extern F:\PIC-web\c18\PIC-WEB-5-42-UEXT-full\Microchip\TCPIP Stack\Hashes.c
          __HashAddData:1   0x0005b0       data     extern F:\PIC-web\c18\PIC-WEB-5-42-UEXT-full\Microchip\TCPIP Stack\Hashes.c
          __HashAddData:2   0x0005b2       data     extern F:\PIC-web\c18\PIC-WEB-5-42-UEXT-full\Microchip\TCPIP Stack\Hashes.c
       __HashAddROMData:0   0x0005b4       data     extern F:\PIC-web\c18\PIC-WEB-5-42-UEXT-full\Microchip\TCPIP Stack\Hashes.c
       __HashAddROMData:1   0x0005b6       data     extern F:\PIC-web\c18\PIC-WEB-5-42-UEXT-full\Microchip\TCPIP Stack\Hashes.c
       __HashAddROMData:2   0x0005b9       data     extern F:\PIC-web\c18\PIC-WEB-5-42-UEXT-full\Microchip\TCPIP Stack\Hashes.c
          __I2C_Receive:0   0x0009a0       data     extern F:\PIC-web\c18\PIC-WEB-5-42-UEXT-full\TCPIP\Demo App\Olimex_Demo_Files\Custom_I2C.c
          __I2C_Receive:1   0x0009a2       data     extern F:\PIC-web\c18\PIC-WEB-5-42-UEXT-full\TCPIP\Demo App\Olimex_Demo_Files\Custom_I2C.c
          __I2C_Receive:2   0x0009a4       data     extern F:\PIC-web\c18\PIC-WEB-5-42-UEXT-full\TCPIP\Demo App\Olimex_Demo_Files\Custom_I2C.c
          __I2C_Receive:3   0x0009a6       data     extern F:\PIC-web\c18\PIC-WEB-5-42-UEXT-full\TCPIP\Demo App\Olimex_Demo_Files\Custom_I2C.c
         __I2C_Transmit:0   0x00099b       data     extern F:\PIC-web\c18\PIC-WEB-5-42-UEXT-full\TCPIP\Demo App\Olimex_Demo_Files\Custom_I2C.c
         __I2C_Transmit:1   0x00099d       data     extern F:\PIC-web\c18\PIC-WEB-5-42-UEXT-full\TCPIP\Demo App\Olimex_Demo_Files\Custom_I2C.c
         __I2C_Transmit:2   0x00099f       data     extern F:\PIC-web\c18\PIC-WEB-5-42-UEXT-full\TCPIP\Demo App\Olimex_Demo_Files\Custom_I2C.c
          __ICMPProcess:0   0x000952       data     extern F:\PIC-web\c18\PIC-WEB-5-42-UEXT-full\Microchip\TCPIP Stack\ICMP.c
          __ICMPProcess:1   0x000954       data     extern F:\PIC-web\c18\PIC-WEB-5-42-UEXT-full\Microchip\TCPIP Stack\ICMP.c
         __ICMPSendPing:0   0x000956       data     extern F:\PIC-web\c18\PIC-WEB-5-42-UEXT-full\Microchip\TCPIP Stack\ICMP.c
   __ICMPSendPingToHost:0   0x00095a       data     extern F:\PIC-web\c18\PIC-WEB-5-42-UEXT-full\Microchip\TCPIP Stack\ICMP.c
__ICMPSendPingToHostROM:0   0x00095c       data     extern F:\PIC-web\c18\PIC-WEB-5-42-UEXT-full\Microchip\TCPIP Stack\ICMP.c
          __IPGetHeader:0   0x000979       data     extern F:\PIC-web\c18\PIC-WEB-5-42-UEXT-full\Microchip\TCPIP Stack\IP.c
          __IPGetHeader:1   0x00097b       data     extern F:\PIC-web\c18\PIC-WEB-5-42-UEXT-full\Microchip\TCPIP Stack\IP.c
          __IPGetHeader:2   0x00097d       data     extern F:\PIC-web\c18\PIC-WEB-5-42-UEXT-full\Microchip\TCPIP Stack\IP.c
          __IPGetHeader:3   0x00097f       data     extern F:\PIC-web\c18\PIC-WEB-5-42-UEXT-full\Microchip\TCPIP Stack\IP.c
          __IPPutHeader:0   0x000981       data     extern F:\PIC-web\c18\PIC-WEB-5-42-UEXT-full\Microchip\TCPIP Stack\IP.c
          __IPPutHeader:1   0x000983       data     extern F:\PIC-web\c18\PIC-WEB-5-42-UEXT-full\Microchip\TCPIP Stack\IP.c
          __IPPutHeader:2   0x000984       data     extern F:\PIC-web\c18\PIC-WEB-5-42-UEXT-full\Microchip\TCPIP Stack\IP.c
        __IPSetRxBuffer:0   0x000986       data     extern F:\PIC-web\c18\PIC-WEB-5-42-UEXT-full\Microchip\TCPIP Stack\IP.c
         __LFSRSeedRand:0   0x00069e       data     extern F:\PIC-web\c18\PIC-WEB-5-42-UEXT-full\Microchip\TCPIP Stack\Helpers.c
    __MACCalcRxChecksum:0   0x0008c5       data     extern F:\PIC-web\c18\PIC-WEB-5-42-UEXT-full\Microchip\TCPIP Stack\ETH97J60.c
    __MACCalcRxChecksum:1   0x0008c7       data     extern F:\PIC-web\c18\PIC-WEB-5-42-UEXT-full\Microchip\TCPIP Stack\ETH97J60.c
          __MACGetArray:0   0x0008d1       data     extern F:\PIC-web\c18\PIC-WEB-5-42-UEXT-full\Microchip\TCPIP Stack\ETH97J60.c
          __MACGetArray:1   0x0008d3       data     extern F:\PIC-web\c18\PIC-WEB-5-42-UEXT-full\Microchip\TCPIP Stack\ETH97J60.c
         __MACGetHeader:0   0x0008b6       data     extern F:\PIC-web\c18\PIC-WEB-5-42-UEXT-full\Microchip\TCPIP Stack\ETH97J60.c
         __MACGetHeader:1   0x0008b8       data     extern F:\PIC-web\c18\PIC-WEB-5-42-UEXT-full\Microchip\TCPIP Stack\ETH97J60.c
      __MACMemCopyAsync:0   0x0008cb       data     extern F:\PIC-web\c18\PIC-WEB-5-42-UEXT-full\Microchip\TCPIP Stack\ETH97J60.c
      __MACMemCopyAsync:1   0x0008cd       data     extern F:\PIC-web\c18\PIC-WEB-5-42-UEXT-full\Microchip\TCPIP Stack\ETH97J60.c
      __MACMemCopyAsync:2   0x0008cf       data     extern F:\PIC-web\c18\PIC-WEB-5-42-UEXT-full\Microchip\TCPIP Stack\ETH97J60.c
               __MACPut:0   0x0008d5       data     extern F:\PIC-web\c18\PIC-WEB-5-42-UEXT-full\Microchip\TCPIP Stack\ETH97J60.c
          __MACPutArray:0   0x0008d6       data     extern F:\PIC-web\c18\PIC-WEB-5-42-UEXT-full\Microchip\TCPIP Stack\ETH97J60.c
          __MACPutArray:1   0x0008d8       data     extern F:\PIC-web\c18\PIC-WEB-5-42-UEXT-full\Microchip\TCPIP Stack\ETH97J60.c
         __MACPutHeader:0   0x0008ba       data     extern F:\PIC-web\c18\PIC-WEB-5-42-UEXT-full\Microchip\TCPIP Stack\ETH97J60.c
         __MACPutHeader:1   0x0008bc       data     extern F:\PIC-web\c18\PIC-WEB-5-42-UEXT-full\Microchip\TCPIP Stack\ETH97J60.c
         __MACPutHeader:2   0x0008bd       data     extern F:\PIC-web\c18\PIC-WEB-5-42-UEXT-full\Microchip\TCPIP Stack\ETH97J60.c
       __MACPutROMArray:0   0x0008da       data     extern F:\PIC-web\c18\PIC-WEB-5-42-UEXT-full\Microchip\TCPIP Stack\ETH97J60.c
       __MACPutROMArray:1   0x0008dd       data     extern F:\PIC-web\c18\PIC-WEB-5-42-UEXT-full\Microchip\TCPIP Stack\ETH97J60.c
        __MACSetReadPtr:0   0x0008c3       data     extern F:\PIC-web\c18\PIC-WEB-5-42-UEXT-full\Microchip\TCPIP Stack\ETH97J60.c
    __MACSetReadPtrInRx:0   0x0008bf       data     extern F:\PIC-web\c18\PIC-WEB-5-42-UEXT-full\Microchip\TCPIP Stack\ETH97J60.c
       __MACSetWritePtr:0   0x0008c1       data     extern F:\PIC-web\c18\PIC-WEB-5-42-UEXT-full\Microchip\TCPIP Stack\ETH97J60.c
           __MD5AddData:0   0x0005bd       data     extern F:\PIC-web\c18\PIC-WEB-5-42-UEXT-full\Microchip\TCPIP Stack\Hashes.c
           __MD5AddData:1   0x0005bf       data     extern F:\PIC-web\c18\PIC-WEB-5-42-UEXT-full\Microchip\TCPIP Stack\Hashes.c
           __MD5AddData:2   0x0005c1       data     extern F:\PIC-web\c18\PIC-WEB-5-42-UEXT-full\Microchip\TCPIP Stack\Hashes.c
        __MD5AddROMData:0   0x0005c3       data     extern F:\PIC-web\c18\PIC-WEB-5-42-UEXT-full\Microchip\TCPIP Stack\Hashes.c
        __MD5AddROMData:1   0x0005c5       data     extern F:\PIC-web\c18\PIC-WEB-5-42-UEXT-full\Microchip\TCPIP Stack\Hashes.c
        __MD5AddROMData:2   0x0005c8       data     extern F:\PIC-web\c18\PIC-WEB-5-42-UEXT-full\Microchip\TCPIP Stack\Hashes.c
         __MD5Calculate:0   0x0005d4       data     extern F:\PIC-web\c18\PIC-WEB-5-42-UEXT-full\Microchip\TCPIP Stack\Hashes.c
         __MD5Calculate:1   0x0005d6       data     extern F:\PIC-web\c18\PIC-WEB-5-42-UEXT-full\Microchip\TCPIP Stack\Hashes.c
         __MD5HashBlock:0   0x0005ca       data     static F:\PIC-web\c18\PIC-WEB-5-42-UEXT-full\Microchip\TCPIP Stack\Hashes.c
         __MD5HashBlock:1   0x0005cc       data     static F:\PIC-web\c18\PIC-WEB-5-42-UEXT-full\Microchip\TCPIP Stack\Hashes.c
         __MD5HashBlock:2   0x0005ce       data     static F:\PIC-web\c18\PIC-WEB-5-42-UEXT-full\Microchip\TCPIP Stack\Hashes.c
         __MD5HashBlock:3   0x0005d0       data     static F:\PIC-web\c18\PIC-WEB-5-42-UEXT-full\Microchip\TCPIP Stack\Hashes.c
         __MD5HashBlock:4   0x0005d2       data     static F:\PIC-web\c18\PIC-WEB-5-42-UEXT-full\Microchip\TCPIP Stack\Hashes.c
        __MD5Initialize:0   0x0005bb       data     extern F:\PIC-web\c18\PIC-WEB-5-42-UEXT-full\Microchip\TCPIP Stack\Hashes.c
            __MPFSClose:0   0x0000d2       data     extern F:\PIC-web\c18\PIC-WEB-5-42-UEXT-full\Microchip\TCPIP Stack\MPFS2.c
              __MPFSGet:0   0x0000d3       data     extern F:\PIC-web\c18\PIC-WEB-5-42-UEXT-full\Microchip\TCPIP Stack\MPFS2.c
              __MPFSGet:1   0x0000d4       data     extern F:\PIC-web\c18\PIC-WEB-5-42-UEXT-full\Microchip\TCPIP Stack\MPFS2.c
         __MPFSGetArray:0   0x0000d6       data     extern F:\PIC-web\c18\PIC-WEB-5-42-UEXT-full\Microchip\TCPIP Stack\MPFS2.c
         __MPFSGetArray:1   0x0000d7       data     extern F:\PIC-web\c18\PIC-WEB-5-42-UEXT-full\Microchip\TCPIP Stack\MPFS2.c
         __MPFSGetArray:2   0x0000d9       data     extern F:\PIC-web\c18\PIC-WEB-5-42-UEXT-full\Microchip\TCPIP Stack\MPFS2.c
      __MPFSGetBytesRem:0   0x0000f0       data     extern F:\PIC-web\c18\PIC-WEB-5-42-UEXT-full\Microchip\TCPIP Stack\MPFS2.c
       __MPFSGetEndAddr:0   0x0000f2       data     extern F:\PIC-web\c18\PIC-WEB-5-42-UEXT-full\Microchip\TCPIP Stack\MPFS2.c
      __MPFSGetFilename:0   0x0000f3       data     extern F:\PIC-web\c18\PIC-WEB-5-42-UEXT-full\Microchip\TCPIP Stack\MPFS2.c
      __MPFSGetFilename:1   0x0000f4       data     extern F:\PIC-web\c18\PIC-WEB-5-42-UEXT-full\Microchip\TCPIP Stack\MPFS2.c
      __MPFSGetFilename:2   0x0000f6       data     extern F:\PIC-web\c18\PIC-WEB-5-42-UEXT-full\Microchip\TCPIP Stack\MPFS2.c
         __MPFSGetFlags:0   0x0000ee       data     extern F:\PIC-web\c18\PIC-WEB-5-42-UEXT-full\Microchip\TCPIP Stack\MPFS2.c
            __MPFSGetID:0   0x0000f9       data     extern F:\PIC-web\c18\PIC-WEB-5-42-UEXT-full\Microchip\TCPIP Stack\MPFS2.c
          __MPFSGetLong:0   0x0000db       data     extern F:\PIC-web\c18\PIC-WEB-5-42-UEXT-full\Microchip\TCPIP Stack\MPFS2.c
          __MPFSGetLong:1   0x0000dc       data     extern F:\PIC-web\c18\PIC-WEB-5-42-UEXT-full\Microchip\TCPIP Stack\MPFS2.c
     __MPFSGetMicrotime:0   0x0000ed       data     extern F:\PIC-web\c18\PIC-WEB-5-42-UEXT-full\Microchip\TCPIP Stack\MPFS2.c
      __MPFSGetPosition:0   0x0000f8       data     extern F:\PIC-web\c18\PIC-WEB-5-42-UEXT-full\Microchip\TCPIP Stack\MPFS2.c
          __MPFSGetSize:0   0x0000ef       data     extern F:\PIC-web\c18\PIC-WEB-5-42-UEXT-full\Microchip\TCPIP Stack\MPFS2.c
     __MPFSGetStartAddr:0   0x0000f1       data     extern F:\PIC-web\c18\PIC-WEB-5-42-UEXT-full\Microchip\TCPIP Stack\MPFS2.c
     __MPFSGetTimestamp:0   0x0000ec       data     extern F:\PIC-web\c18\PIC-WEB-5-42-UEXT-full\Microchip\TCPIP Stack\MPFS2.c
             __MPFSOpen:0   0x0000cb       data     extern F:\PIC-web\c18\PIC-WEB-5-42-UEXT-full\Microchip\TCPIP Stack\MPFS2.c
           __MPFSOpenID:0   0x0000d0       data     extern F:\PIC-web\c18\PIC-WEB-5-42-UEXT-full\Microchip\TCPIP Stack\MPFS2.c
          __MPFSOpenROM:0   0x0000cd       data     extern F:\PIC-web\c18\PIC-WEB-5-42-UEXT-full\Microchip\TCPIP Stack\MPFS2.c
         __MPFSPutArray:0   0x0000e4       data     extern F:\PIC-web\c18\PIC-WEB-5-42-UEXT-full\Microchip\TCPIP Stack\MPFS2.c
         __MPFSPutArray:1   0x0000e5       data     extern F:\PIC-web\c18\PIC-WEB-5-42-UEXT-full\Microchip\TCPIP Stack\MPFS2.c
         __MPFSPutArray:2   0x0000e7       data     extern F:\PIC-web\c18\PIC-WEB-5-42-UEXT-full\Microchip\TCPIP Stack\MPFS2.c
           __MPFSPutEnd:0   0x0000e9       data     extern F:\PIC-web\c18\PIC-WEB-5-42-UEXT-full\Microchip\TCPIP Stack\MPFS2.c
             __MPFSSeek:0   0x0000de       data     extern F:\PIC-web\c18\PIC-WEB-5-42-UEXT-full\Microchip\TCPIP Stack\MPFS2.c
             __MPFSSeek:1   0x0000df       data     extern F:\PIC-web\c18\PIC-WEB-5-42-UEXT-full\Microchip\TCPIP Stack\MPFS2.c
             __MPFSSeek:2   0x0000e3       data     extern F:\PIC-web\c18\PIC-WEB-5-42-UEXT-full\Microchip\TCPIP Stack\MPFS2.c
          __NBNSGetName:0   0x0004fe       data     static F:\PIC-web\c18\PIC-WEB-5-42-UEXT-full\Microchip\TCPIP Stack\NBNS.c
          __NBNSPutName:0   0x0004fc       data     static F:\PIC-web\c18\PIC-WEB-5-42-UEXT-full\Microchip\TCPIP Stack\NBNS.c
             __OpenSPI1:0   0x0007fd       data     extern F:\PIC-web\c18\PIC-WEB-5-42-UEXT-full\TCPIP\Demo App\Olimex_Demo_Files\Custom_SPI_Low.c
             __OpenSPI1:1   0x0007fe       data     extern F:\PIC-web\c18\PIC-WEB-5-42-UEXT-full\TCPIP\Demo App\Olimex_Demo_Files\Custom_SPI_Low.c
             __OpenSPI1:2   0x0007ff       data     extern F:\PIC-web\c18\PIC-WEB-5-42-UEXT-full\TCPIP\Demo App\Olimex_Demo_Files\Custom_SPI_Low.c
                  __REMB0   0x000025       data     extern E:\3.46\pic18-lt\cxx-framework\src\traditional\math\aarg.asm
                  __REMB1   0x000024       data     extern E:\3.46\pic18-lt\cxx-framework\src\traditional\math\aarg.asm
                  __REMB2   0x000023       data     extern E:\3.46\pic18-lt\cxx-framework\src\traditional\math\aarg.asm
                  __REMB3   0x000022       data     extern E:\3.46\pic18-lt\cxx-framework\src\traditional\math\aarg.asm
 __ROMStringToIPAddress:0   0x0006a6       data     extern F:\PIC-web\c18\PIC-WEB-5-42-UEXT-full\Microchip\TCPIP Stack\Helpers.c
 __ROMStringToIPAddress:1   0x0006a9       data     extern F:\PIC-web\c18\PIC-WEB-5-42-UEXT-full\Microchip\TCPIP Stack\Helpers.c
__ReadBufferFromMainMemory:0   0x0008a5       data     extern F:\PIC-web\c18\PIC-WEB-5-42-UEXT-full\Microchip\TCPIP Stack\SPIFlash.c
           __ReadPHYReg:0   0x0008df       data     extern F:\PIC-web\c18\PIC-WEB-5-42-UEXT-full\Microchip\TCPIP Stack\ETH97J60.c
       __ReadStringUART:0   0x0009a8       data     extern F:\PIC-web\c18\PIC-WEB-5-42-UEXT-full\Microchip\TCPIP Stack\UART.c
       __ReadStringUART:1   0x0009aa       data     extern F:\PIC-web\c18\PIC-WEB-5-42-UEXT-full\Microchip\TCPIP Stack\UART.c
              __SMTPPut:0   0x000f3f       data     extern F:\PIC-web\c18\PIC-WEB-5-42-UEXT-full\Microchip\TCPIP Stack\SMTP.c
         __SMTPPutArray:0   0x000f40       data     extern F:\PIC-web\c18\PIC-WEB-5-42-UEXT-full\Microchip\TCPIP Stack\SMTP.c
         __SMTPPutArray:1   0x000f42       data     extern F:\PIC-web\c18\PIC-WEB-5-42-UEXT-full\Microchip\TCPIP Stack\SMTP.c
      __SMTPPutROMArray:0   0x000f44       data     extern F:\PIC-web\c18\PIC-WEB-5-42-UEXT-full\Microchip\TCPIP Stack\SMTP.c
      __SMTPPutROMArray:1   0x000f47       data     extern F:\PIC-web\c18\PIC-WEB-5-42-UEXT-full\Microchip\TCPIP Stack\SMTP.c
     __SMTPPutROMString:0   0x000f4b       data     extern F:\PIC-web\c18\PIC-WEB-5-42-UEXT-full\Microchip\TCPIP Stack\SMTP.c
        __SMTPPutString:0   0x000f49       data     extern F:\PIC-web\c18\PIC-WEB-5-42-UEXT-full\Microchip\TCPIP Stack\SMTP.c
    __SPIFlashBeginRead:0   0x00088c       data     extern F:\PIC-web\c18\PIC-WEB-5-42-UEXT-full\Microchip\TCPIP Stack\SPIFlash.c
   __SPIFlashBeginWrite:0   0x000898       data     extern F:\PIC-web\c18\PIC-WEB-5-42-UEXT-full\Microchip\TCPIP Stack\SPIFlash.c
    __SPIFlashReadArray:0   0x000890       data     extern F:\PIC-web\c18\PIC-WEB-5-42-UEXT-full\Microchip\TCPIP Stack\SPIFlash.c
    __SPIFlashReadArray:1   0x000894       data     extern F:\PIC-web\c18\PIC-WEB-5-42-UEXT-full\Microchip\TCPIP Stack\SPIFlash.c
    __SPIFlashReadArray:2   0x000896       data     extern F:\PIC-web\c18\PIC-WEB-5-42-UEXT-full\Microchip\TCPIP Stack\SPIFlash.c
        __SPIFlashWrite:0   0x00089c       data     extern F:\PIC-web\c18\PIC-WEB-5-42-UEXT-full\Microchip\TCPIP Stack\SPIFlash.c
   __SPIFlashWriteArray:0   0x00089d       data     extern F:\PIC-web\c18\PIC-WEB-5-42-UEXT-full\Microchip\TCPIP Stack\SPIFlash.c
   __SPIFlashWriteArray:1   0x00089f       data     extern F:\PIC-web\c18\PIC-WEB-5-42-UEXT-full\Microchip\TCPIP Stack\SPIFlash.c
          __SPITransfer:0   0x00088b       data     extern F:\PIC-web\c18\PIC-WEB-5-42-UEXT-full\Microchip\TCPIP Stack\SPIFlash.c
          __SPI_Receive:0   0x0009f8       data     extern F:\PIC-web\c18\PIC-WEB-5-42-UEXT-full\TCPIP\Demo App\Olimex_Demo_Files\Custom_SPI.c
          __SPI_Receive:1   0x0009fa       data     extern F:\PIC-web\c18\PIC-WEB-5-42-UEXT-full\TCPIP\Demo App\Olimex_Demo_Files\Custom_SPI.c
         __SPI_Transmit:0   0x0009f7       data     extern F:\PIC-web\c18\PIC-WEB-5-42-UEXT-full\TCPIP\Demo App\Olimex_Demo_Files\Custom_SPI.c
        __SaveAppConfig:0   0x0007cf       data     extern F:\PIC-web\c18\PIC-WEB-5-42-UEXT-full\TCPIP\Demo App\MainDemo.c
              __SendTCP:0   0x0003ad       data     static F:\PIC-web\c18\PIC-WEB-5-42-UEXT-full\Microchip\TCPIP Stack\TCP.c
              __SendTCP:1   0x0003ae       data     static F:\PIC-web\c18\PIC-WEB-5-42-UEXT-full\Microchip\TCPIP Stack\TCP.c
    __StringToIPAddress:0   0x0006a2       data     extern F:\PIC-web\c18\PIC-WEB-5-42-UEXT-full\Microchip\TCPIP Stack\Helpers.c
    __StringToIPAddress:1   0x0006a4       data     extern F:\PIC-web\c18\PIC-WEB-5-42-UEXT-full\Microchip\TCPIP Stack\Helpers.c
        __SwapARPPacket:0   0x0005fd       data     extern F:\PIC-web\c18\PIC-WEB-5-42-UEXT-full\Microchip\TCPIP Stack\ARP.c
         __SwapIPHeader:0   0x000988       data     static F:\PIC-web\c18\PIC-WEB-5-42-UEXT-full\Microchip\TCPIP Stack\IP.c
        __SwapTCPHeader:0   0x0003b3       data     static F:\PIC-web\c18\PIC-WEB-5-42-UEXT-full\Microchip\TCPIP Stack\TCP.c
          __SyncTCBStub:0   0x000345       data     static F:\PIC-web\c18\PIC-WEB-5-42-UEXT-full\Microchip\TCPIP Stack\TCP.c
    __TCPAdjustFIFOSize:0   0x0003b9       data     extern F:\PIC-web\c18\PIC-WEB-5-42-UEXT-full\Microchip\TCPIP Stack\TCP.c
    __TCPAdjustFIFOSize:1   0x0003ba       data     extern F:\PIC-web\c18\PIC-WEB-5-42-UEXT-full\Microchip\TCPIP Stack\TCP.c
    __TCPAdjustFIFOSize:2   0x0003bc       data     extern F:\PIC-web\c18\PIC-WEB-5-42-UEXT-full\Microchip\TCPIP Stack\TCP.c
    __TCPAdjustFIFOSize:3   0x0003be       data     extern F:\PIC-web\c18\PIC-WEB-5-42-UEXT-full\Microchip\TCPIP Stack\TCP.c
             __TCPClose:0   0x000351       data     extern F:\PIC-web\c18\PIC-WEB-5-42-UEXT-full\Microchip\TCPIP Stack\TCP.c
           __TCPDiscard:0   0x000376       data     extern F:\PIC-web\c18\PIC-WEB-5-42-UEXT-full\Microchip\TCPIP Stack\TCP.c
        __TCPDisconnect:0   0x000350       data     extern F:\PIC-web\c18\PIC-WEB-5-42-UEXT-full\Microchip\TCPIP Stack\TCP.c
       __TCPFindArrayEx:0   0x00038b       data     extern F:\PIC-web\c18\PIC-WEB-5-42-UEXT-full\Microchip\TCPIP Stack\TCP.c
       __TCPFindArrayEx:1   0x00038c       data     extern F:\PIC-web\c18\PIC-WEB-5-42-UEXT-full\Microchip\TCPIP Stack\TCP.c
       __TCPFindArrayEx:2   0x00038e       data     extern F:\PIC-web\c18\PIC-WEB-5-42-UEXT-full\Microchip\TCPIP Stack\TCP.c
       __TCPFindArrayEx:3   0x000390       data     extern F:\PIC-web\c18\PIC-WEB-5-42-UEXT-full\Microchip\TCPIP Stack\TCP.c
       __TCPFindArrayEx:4   0x000392       data     extern F:\PIC-web\c18\PIC-WEB-5-42-UEXT-full\Microchip\TCPIP Stack\TCP.c
       __TCPFindArrayEx:5   0x000394       data     extern F:\PIC-web\c18\PIC-WEB-5-42-UEXT-full\Microchip\TCPIP Stack\TCP.c
            __TCPFindEx:0   0x0003a0       data     extern F:\PIC-web\c18\PIC-WEB-5-42-UEXT-full\Microchip\TCPIP Stack\TCP.c
            __TCPFindEx:1   0x0003a1       data     extern F:\PIC-web\c18\PIC-WEB-5-42-UEXT-full\Microchip\TCPIP Stack\TCP.c
            __TCPFindEx:2   0x0003a2       data     extern F:\PIC-web\c18\PIC-WEB-5-42-UEXT-full\Microchip\TCPIP Stack\TCP.c
            __TCPFindEx:3   0x0003a4       data     extern F:\PIC-web\c18\PIC-WEB-5-42-UEXT-full\Microchip\TCPIP Stack\TCP.c
            __TCPFindEx:4   0x0003a6       data     extern F:\PIC-web\c18\PIC-WEB-5-42-UEXT-full\Microchip\TCPIP Stack\TCP.c
    __TCPFindROMArrayEx:0   0x000395       data     extern F:\PIC-web\c18\PIC-WEB-5-42-UEXT-full\Microchip\TCPIP Stack\TCP.c
    __TCPFindROMArrayEx:1   0x000396       data     extern F:\PIC-web\c18\PIC-WEB-5-42-UEXT-full\Microchip\TCPIP Stack\TCP.c
    __TCPFindROMArrayEx:2   0x000399       data     extern F:\PIC-web\c18\PIC-WEB-5-42-UEXT-full\Microchip\TCPIP Stack\TCP.c
    __TCPFindROMArrayEx:3   0x00039b       data     extern F:\PIC-web\c18\PIC-WEB-5-42-UEXT-full\Microchip\TCPIP Stack\TCP.c
    __TCPFindROMArrayEx:4   0x00039d       data     extern F:\PIC-web\c18\PIC-WEB-5-42-UEXT-full\Microchip\TCPIP Stack\TCP.c
    __TCPFindROMArrayEx:5   0x00039f       data     extern F:\PIC-web\c18\PIC-WEB-5-42-UEXT-full\Microchip\TCPIP Stack\TCP.c
             __TCPFlush:0   0x00035f       data     extern F:\PIC-web\c18\PIC-WEB-5-42-UEXT-full\Microchip\TCPIP Stack\TCP.c
               __TCPGet:0   0x000378       data     extern F:\PIC-web\c18\PIC-WEB-5-42-UEXT-full\Microchip\TCPIP Stack\TCP.c
               __TCPGet:1   0x000379       data     extern F:\PIC-web\c18\PIC-WEB-5-42-UEXT-full\Microchip\TCPIP Stack\TCP.c
          __TCPGetArray:0   0x00037b       data     extern F:\PIC-web\c18\PIC-WEB-5-42-UEXT-full\Microchip\TCPIP Stack\TCP.c
          __TCPGetArray:1   0x00037c       data     extern F:\PIC-web\c18\PIC-WEB-5-42-UEXT-full\Microchip\TCPIP Stack\TCP.c
          __TCPGetArray:2   0x00037e       data     extern F:\PIC-web\c18\PIC-WEB-5-42-UEXT-full\Microchip\TCPIP Stack\TCP.c
     __TCPGetRemoteInfo:0   0x000352       data     extern F:\PIC-web\c18\PIC-WEB-5-42-UEXT-full\Microchip\TCPIP Stack\TCP.c
     __TCPGetRxFIFOFree:0   0x000380       data     extern F:\PIC-web\c18\PIC-WEB-5-42-UEXT-full\Microchip\TCPIP Stack\TCP.c
     __TCPGetTxFIFOFull:0   0x000375       data     extern F:\PIC-web\c18\PIC-WEB-5-42-UEXT-full\Microchip\TCPIP Stack\TCP.c
       __TCPIsConnected:0   0x00034f       data     extern F:\PIC-web\c18\PIC-WEB-5-42-UEXT-full\Microchip\TCPIP Stack\TCP.c
        __TCPIsGetReady:0   0x000377       data     extern F:\PIC-web\c18\PIC-WEB-5-42-UEXT-full\Microchip\TCPIP Stack\TCP.c
        __TCPIsPutReady:0   0x000360       data     extern F:\PIC-web\c18\PIC-WEB-5-42-UEXT-full\Microchip\TCPIP Stack\TCP.c
              __TCPOpen:0   0x000346       data     extern F:\PIC-web\c18\PIC-WEB-5-42-UEXT-full\Microchip\TCPIP Stack\TCP.c
              __TCPOpen:1   0x00034a       data     extern F:\PIC-web\c18\PIC-WEB-5-42-UEXT-full\Microchip\TCPIP Stack\TCP.c
              __TCPOpen:2   0x00034b       data     extern F:\PIC-web\c18\PIC-WEB-5-42-UEXT-full\Microchip\TCPIP Stack\TCP.c
              __TCPOpen:3   0x00034d       data     extern F:\PIC-web\c18\PIC-WEB-5-42-UEXT-full\Microchip\TCPIP Stack\TCP.c
              __TCPPeek:0   0x000388       data     extern F:\PIC-web\c18\PIC-WEB-5-42-UEXT-full\Microchip\TCPIP Stack\TCP.c
              __TCPPeek:1   0x000389       data     extern F:\PIC-web\c18\PIC-WEB-5-42-UEXT-full\Microchip\TCPIP Stack\TCP.c
         __TCPPeekArray:0   0x000381       data     extern F:\PIC-web\c18\PIC-WEB-5-42-UEXT-full\Microchip\TCPIP Stack\TCP.c
         __TCPPeekArray:1   0x000382       data     extern F:\PIC-web\c18\PIC-WEB-5-42-UEXT-full\Microchip\TCPIP Stack\TCP.c
         __TCPPeekArray:2   0x000384       data     extern F:\PIC-web\c18\PIC-WEB-5-42-UEXT-full\Microchip\TCPIP Stack\TCP.c
         __TCPPeekArray:3   0x000386       data     extern F:\PIC-web\c18\PIC-WEB-5-42-UEXT-full\Microchip\TCPIP Stack\TCP.c
           __TCPProcess:0   0x0003a7       data     extern F:\PIC-web\c18\PIC-WEB-5-42-UEXT-full\Microchip\TCPIP Stack\TCP.c
           __TCPProcess:1   0x0003a9       data     extern F:\PIC-web\c18\PIC-WEB-5-42-UEXT-full\Microchip\TCPIP Stack\TCP.c
           __TCPProcess:2   0x0003ab       data     extern F:\PIC-web\c18\PIC-WEB-5-42-UEXT-full\Microchip\TCPIP Stack\TCP.c
               __TCPPut:0   0x000361       data     extern F:\PIC-web\c18\PIC-WEB-5-42-UEXT-full\Microchip\TCPIP Stack\TCP.c
               __TCPPut:1   0x000362       data     extern F:\PIC-web\c18\PIC-WEB-5-42-UEXT-full\Microchip\TCPIP Stack\TCP.c
          __TCPPutArray:0   0x000363       data     extern F:\PIC-web\c18\PIC-WEB-5-42-UEXT-full\Microchip\TCPIP Stack\TCP.c
          __TCPPutArray:1   0x000364       data     extern F:\PIC-web\c18\PIC-WEB-5-42-UEXT-full\Microchip\TCPIP Stack\TCP.c
          __TCPPutArray:2   0x000366       data     extern F:\PIC-web\c18\PIC-WEB-5-42-UEXT-full\Microchip\TCPIP Stack\TCP.c
       __TCPPutROMArray:0   0x000368       data     extern F:\PIC-web\c18\PIC-WEB-5-42-UEXT-full\Microchip\TCPIP Stack\TCP.c
       __TCPPutROMArray:1   0x000369       data     extern F:\PIC-web\c18\PIC-WEB-5-42-UEXT-full\Microchip\TCPIP Stack\TCP.c
       __TCPPutROMArray:2   0x00036c       data     extern F:\PIC-web\c18\PIC-WEB-5-42-UEXT-full\Microchip\TCPIP Stack\TCP.c
      __TCPPutROMString:0   0x000371       data     extern F:\PIC-web\c18\PIC-WEB-5-42-UEXT-full\Microchip\TCPIP Stack\TCP.c
      __TCPPutROMString:1   0x000372       data     extern F:\PIC-web\c18\PIC-WEB-5-42-UEXT-full\Microchip\TCPIP Stack\TCP.c
         __TCPPutString:0   0x00036e       data     extern F:\PIC-web\c18\PIC-WEB-5-42-UEXT-full\Microchip\TCPIP Stack\TCP.c
         __TCPPutString:1   0x00036f       data     extern F:\PIC-web\c18\PIC-WEB-5-42-UEXT-full\Microchip\TCPIP Stack\TCP.c
           __TCPRAMCopy:0   0x0003bf       data     static F:\PIC-web\c18\PIC-WEB-5-42-UEXT-full\Microchip\TCPIP Stack\TCP.c
           __TCPRAMCopy:1   0x0003c1       data     static F:\PIC-web\c18\PIC-WEB-5-42-UEXT-full\Microchip\TCPIP Stack\TCP.c
           __TCPRAMCopy:2   0x0003c2       data     static F:\PIC-web\c18\PIC-WEB-5-42-UEXT-full\Microchip\TCPIP Stack\TCP.c
           __TCPRAMCopy:3   0x0003c4       data     static F:\PIC-web\c18\PIC-WEB-5-42-UEXT-full\Microchip\TCPIP Stack\TCP.c
           __TCPRAMCopy:4   0x0003c5       data     static F:\PIC-web\c18\PIC-WEB-5-42-UEXT-full\Microchip\TCPIP Stack\TCP.c
        __TCPRAMCopyROM:0   0x0003c7       data     static F:\PIC-web\c18\PIC-WEB-5-42-UEXT-full\Microchip\TCPIP Stack\TCP.c
        __TCPRAMCopyROM:1   0x0003c9       data     static F:\PIC-web\c18\PIC-WEB-5-42-UEXT-full\Microchip\TCPIP Stack\TCP.c
        __TCPRAMCopyROM:2   0x0003ca       data     static F:\PIC-web\c18\PIC-WEB-5-42-UEXT-full\Microchip\TCPIP Stack\TCP.c
        __TCPRAMCopyROM:3   0x0003cd       data     static F:\PIC-web\c18\PIC-WEB-5-42-UEXT-full\Microchip\TCPIP Stack\TCP.c
          __TCPWasReset:0   0x00034e       data     extern F:\PIC-web\c18\PIC-WEB-5-42-UEXT-full\Microchip\TCPIP Stack\TCP.c
                   __TEMP   0x000033       data     extern E:\3.46\pic18-lt\cxx-framework\src\traditional\math\temparg.asm
                 __TEMPB0   0x000033       data     extern E:\3.46\pic18-lt\cxx-framework\src\traditional\math\temparg.asm
                 __TEMPB1   0x000032       data     extern E:\3.46\pic18-lt\cxx-framework\src\traditional\math\temparg.asm
                 __TEMPB2   0x000031       data     extern E:\3.46\pic18-lt\cxx-framework\src\traditional\math\temparg.asm
                 __TEMPB3   0x000030       data     extern E:\3.46\pic18-lt\cxx-framework\src\traditional\math\temparg.asm
__TickConvertToMilliseconds:0   0x0009c6       data     extern F:\PIC-web\c18\PIC-WEB-5-42-UEXT-full\Microchip\TCPIP Stack\Tick.c
            __UART_Init:0   0x0006fb       data     extern F:\PIC-web\c18\PIC-WEB-5-42-UEXT-full\TCPIP\Demo App\Olimex_Demo_Files\Custom_UART_Low.c
      __UART_Read_Array:0   0x0009bc       data     extern F:\PIC-web\c18\PIC-WEB-5-42-UEXT-full\TCPIP\Demo App\Olimex_Demo_Files\Custom_UART.c
      __UART_Read_Array:1   0x0009be       data     extern F:\PIC-web\c18\PIC-WEB-5-42-UEXT-full\TCPIP\Demo App\Olimex_Demo_Files\Custom_UART.c
     __UART_Read_String:0   0x0009ba       data     extern F:\PIC-web\c18\PIC-WEB-5-42-UEXT-full\TCPIP\Demo App\Olimex_Demo_Files\Custom_UART.c
        __UART_Transmit:0   0x0006ff       data     extern F:\PIC-web\c18\PIC-WEB-5-42-UEXT-full\TCPIP\Demo App\Olimex_Demo_Files\Custom_UART_Low.c
     __UART_Write_Array:0   0x0009b6       data     extern F:\PIC-web\c18\PIC-WEB-5-42-UEXT-full\TCPIP\Demo App\Olimex_Demo_Files\Custom_UART.c
     __UART_Write_Array:1   0x0009b8       data     extern F:\PIC-web\c18\PIC-WEB-5-42-UEXT-full\TCPIP\Demo App\Olimex_Demo_Files\Custom_UART.c
    __UART_Write_String:0   0x0009b4       data     extern F:\PIC-web\c18\PIC-WEB-5-42-UEXT-full\TCPIP\Demo App\Olimex_Demo_Files\Custom_UART.c
             __UDPClose:0   0x0002ce       data     extern F:\PIC-web\c18\PIC-WEB-5-42-UEXT-full\Microchip\TCPIP Stack\UDP.c
               __UDPGet:0   0x0002e4       data     extern F:\PIC-web\c18\PIC-WEB-5-42-UEXT-full\Microchip\TCPIP Stack\UDP.c
          __UDPGetArray:0   0x0002e6       data     extern F:\PIC-web\c18\PIC-WEB-5-42-UEXT-full\Microchip\TCPIP Stack\UDP.c
          __UDPGetArray:1   0x0002e8       data     extern F:\PIC-web\c18\PIC-WEB-5-42-UEXT-full\Microchip\TCPIP Stack\UDP.c
        __UDPIsGetReady:0   0x0002e3       data     extern F:\PIC-web\c18\PIC-WEB-5-42-UEXT-full\Microchip\TCPIP Stack\UDP.c
          __UDPIsOpened:0   0x0002cd       data     extern F:\PIC-web\c18\PIC-WEB-5-42-UEXT-full\Microchip\TCPIP Stack\UDP.c
        __UDPIsPutReady:0   0x0002d3       data     extern F:\PIC-web\c18\PIC-WEB-5-42-UEXT-full\Microchip\TCPIP Stack\UDP.c
            __UDPOpenEx:0   0x0002c2       data     extern F:\PIC-web\c18\PIC-WEB-5-42-UEXT-full\Microchip\TCPIP Stack\UDP.c
            __UDPOpenEx:1   0x0002c6       data     extern F:\PIC-web\c18\PIC-WEB-5-42-UEXT-full\Microchip\TCPIP Stack\UDP.c
            __UDPOpenEx:2   0x0002c7       data     extern F:\PIC-web\c18\PIC-WEB-5-42-UEXT-full\Microchip\TCPIP Stack\UDP.c
            __UDPOpenEx:3   0x0002c9       data     extern F:\PIC-web\c18\PIC-WEB-5-42-UEXT-full\Microchip\TCPIP Stack\UDP.c
           __UDPProcess:0   0x0002ea       data     extern F:\PIC-web\c18\PIC-WEB-5-42-UEXT-full\Microchip\TCPIP Stack\UDP.c
           __UDPProcess:1   0x0002ec       data     extern F:\PIC-web\c18\PIC-WEB-5-42-UEXT-full\Microchip\TCPIP Stack\UDP.c
           __UDPProcess:2   0x0002ee       data     extern F:\PIC-web\c18\PIC-WEB-5-42-UEXT-full\Microchip\TCPIP Stack\UDP.c
               __UDPPut:0   0x0002d4       data     extern F:\PIC-web\c18\PIC-WEB-5-42-UEXT-full\Microchip\TCPIP Stack\UDP.c
          __UDPPutArray:0   0x0002d5       data     extern F:\PIC-web\c18\PIC-WEB-5-42-UEXT-full\Microchip\TCPIP Stack\UDP.c
          __UDPPutArray:1   0x0002d7       data     extern F:\PIC-web\c18\PIC-WEB-5-42-UEXT-full\Microchip\TCPIP Stack\UDP.c
       __UDPPutROMArray:0   0x0002d9       data     extern F:\PIC-web\c18\PIC-WEB-5-42-UEXT-full\Microchip\TCPIP Stack\UDP.c
       __UDPPutROMArray:1   0x0002dc       data     extern F:\PIC-web\c18\PIC-WEB-5-42-UEXT-full\Microchip\TCPIP Stack\UDP.c
      __UDPPutROMString:0   0x0002e0       data     extern F:\PIC-web\c18\PIC-WEB-5-42-UEXT-full\Microchip\TCPIP Stack\UDP.c
         __UDPPutString:0   0x0002de       data     extern F:\PIC-web\c18\PIC-WEB-5-42-UEXT-full\Microchip\TCPIP Stack\UDP.c
       __UDPSetRxBuffer:0   0x0002d1       data     extern F:\PIC-web\c18\PIC-WEB-5-42-UEXT-full\Microchip\TCPIP Stack\UDP.c
       __UDPSetTxBuffer:0   0x0002cf       data     extern F:\PIC-web\c18\PIC-WEB-5-42-UEXT-full\Microchip\TCPIP Stack\UDP.c
__WriteBufferToMainMemory:0   0x0008a1       data     extern F:\PIC-web\c18\PIC-WEB-5-42-UEXT-full\Microchip\TCPIP Stack\SPIFlash.c
          __WritePHYReg:0   0x0008e0       data     extern F:\PIC-web\c18\PIC-WEB-5-42-UEXT-full\Microchip\TCPIP Stack\ETH97J60.c
          __WritePHYReg:1   0x0008e1       data     extern F:\PIC-web\c18\PIC-WEB-5-42-UEXT-full\Microchip\TCPIP Stack\ETH97J60.c
            __WriteSPI1:0   0x0007f7       data     extern F:\PIC-web\c18\PIC-WEB-5-42-UEXT-full\TCPIP\Demo App\Olimex_Demo_Files\Custom_SPI_Low.c
           __WriteUSART:0   0x0009ab       data     extern F:\PIC-web\c18\PIC-WEB-5-42-UEXT-full\Microchip\TCPIP Stack\UART.c
            ___DHCPSend:0   0x0003fe       data     static F:\PIC-web\c18\PIC-WEB-5-42-UEXT-full\Microchip\TCPIP Stack\DHCP.c
            ___DHCPSend:1   0x0003ff       data     static F:\PIC-web\c18\PIC-WEB-5-42-UEXT-full\Microchip\TCPIP Stack\DHCP.c
       ___LoadFATRecord:0   0x0000ea       data     static F:\PIC-web\c18\PIC-WEB-5-42-UEXT-full\Microchip\TCPIP Stack\MPFS2.c
               __accept:0   0x000756       data     extern F:\PIC-web\c18\PIC-WEB-5-42-UEXT-full\Microchip\TCPIP Stack\BerkeleyAPI.c
               __accept:1   0x000757       data     extern F:\PIC-web\c18\PIC-WEB-5-42-UEXT-full\Microchip\TCPIP Stack\BerkeleyAPI.c
               __accept:2   0x000759       data     extern F:\PIC-web\c18\PIC-WEB-5-42-UEXT-full\Microchip\TCPIP Stack\BerkeleyAPI.c
                 __bind:0   0x00074e       data     extern F:\PIC-web\c18\PIC-WEB-5-42-UEXT-full\Microchip\TCPIP Stack\BerkeleyAPI.c
                 __bind:1   0x00074f       data     extern F:\PIC-web\c18\PIC-WEB-5-42-UEXT-full\Microchip\TCPIP Stack\BerkeleyAPI.c
                 __bind:2   0x000751       data     extern F:\PIC-web\c18\PIC-WEB-5-42-UEXT-full\Microchip\TCPIP Stack\BerkeleyAPI.c
         __btohexa_high:0   0x0006c1       data     extern F:\PIC-web\c18\PIC-WEB-5-42-UEXT-full\Microchip\TCPIP Stack\Helpers.c
          __btohexa_low:0   0x0006c2       data     extern F:\PIC-web\c18\PIC-WEB-5-42-UEXT-full\Microchip\TCPIP Stack\Helpers.c
          __closesocket:0   0x00078c       data     extern F:\PIC-web\c18\PIC-WEB-5-42-UEXT-full\Microchip\TCPIP Stack\BerkeleyAPI.c
              __connect:0   0x00075b       data     extern F:\PIC-web\c18\PIC-WEB-5-42-UEXT-full\Microchip\TCPIP Stack\BerkeleyAPI.c
              __connect:1   0x00075c       data     extern F:\PIC-web\c18\PIC-WEB-5-42-UEXT-full\Microchip\TCPIP Stack\BerkeleyAPI.c
              __connect:2   0x00075e       data     extern F:\PIC-web\c18\PIC-WEB-5-42-UEXT-full\Microchip\TCPIP Stack\BerkeleyAPI.c
__getIndexByMacaddr_DhcpPool:0   0x0004e8       data     static F:\PIC-web\c18\PIC-WEB-5-42-UEXT-full\Microchip\TCPIP Stack\DHCPs.c
          __gethostname:0   0x000788       data     extern F:\PIC-web\c18\PIC-WEB-5-42-UEXT-full\Microchip\TCPIP Stack\BerkeleyAPI.c
          __gethostname:1   0x00078a       data     extern F:\PIC-web\c18\PIC-WEB-5-42-UEXT-full\Microchip\TCPIP Stack\BerkeleyAPI.c
             __getsSPI1:0   0x0007f8       data     extern F:\PIC-web\c18\PIC-WEB-5-42-UEXT-full\TCPIP\Demo App\Olimex_Demo_Files\Custom_SPI_Low.c
             __getsSPI1:1   0x0007fa       data     extern F:\PIC-web\c18\PIC-WEB-5-42-UEXT-full\TCPIP\Demo App\Olimex_Demo_Files\Custom_SPI_Low.c
            __getsUSART:0   0x0009ac       data     extern F:\PIC-web\c18\PIC-WEB-5-42-UEXT-full\Microchip\TCPIP Stack\UART.c
            __getsUSART:1   0x0009ae       data     extern F:\PIC-web\c18\PIC-WEB-5-42-UEXT-full\Microchip\TCPIP Stack\UART.c
              __hexatob:0   0x0006bf       data     extern F:\PIC-web\c18\PIC-WEB-5-42-UEXT-full\Microchip\TCPIP Stack\Helpers.c
       __isIpAddrInPool:0   0x0004ea       data     static F:\PIC-web\c18\PIC-WEB-5-42-UEXT-full\Microchip\TCPIP Stack\DHCPs.c
  __isMacAddr_Effective:0   0x0004f3       data     static F:\PIC-web\c18\PIC-WEB-5-42-UEXT-full\Microchip\TCPIP Stack\DHCPs.c
      __leftRotateDWORD:0   0x0006d6       data     extern F:\PIC-web\c18\PIC-WEB-5-42-UEXT-full\Microchip\TCPIP Stack\Helpers.c
      __leftRotateDWORD:1   0x0006da       data     extern F:\PIC-web\c18\PIC-WEB-5-42-UEXT-full\Microchip\TCPIP Stack\Helpers.c
               __listen:0   0x000753       data     extern F:\PIC-web\c18\PIC-WEB-5-42-UEXT-full\Microchip\TCPIP Stack\BerkeleyAPI.c
               __listen:1   0x000754       data     extern F:\PIC-web\c18\PIC-WEB-5-42-UEXT-full\Microchip\TCPIP Stack\BerkeleyAPI.c
__postAssign_ToDHCPClient_FromPool:0   0x0004f7       data     static F:\PIC-web\c18\PIC-WEB-5-42-UEXT-full\Microchip\TCPIP Stack\DHCPs.c
__postAssign_ToDHCPClient_FromPool:1   0x0004f9       data     static F:\PIC-web\c18\PIC-WEB-5-42-UEXT-full\Microchip\TCPIP Stack\DHCPs.c
__preAssign_ToDHCPClient_FromPool:0   0x0004f5       data     static F:\PIC-web\c18\PIC-WEB-5-42-UEXT-full\Microchip\TCPIP Stack\DHCPs.c
           __putrsUSART:0   0x0009b1       data     extern F:\PIC-web\c18\PIC-WEB-5-42-UEXT-full\Microchip\TCPIP Stack\UART.c
             __putsSPI1:0   0x0007fb       data     extern F:\PIC-web\c18\PIC-WEB-5-42-UEXT-full\TCPIP\Demo App\Olimex_Demo_Files\Custom_SPI_Low.c
            __putsUSART:0   0x0009af       data     extern F:\PIC-web\c18\PIC-WEB-5-42-UEXT-full\Microchip\TCPIP Stack\UART.c
                 __recv:0   0x000776       data     extern F:\PIC-web\c18\PIC-WEB-5-42-UEXT-full\Microchip\TCPIP Stack\BerkeleyAPI.c
                 __recv:1   0x000777       data     extern F:\PIC-web\c18\PIC-WEB-5-42-UEXT-full\Microchip\TCPIP Stack\BerkeleyAPI.c
                 __recv:2   0x000779       data     extern F:\PIC-web\c18\PIC-WEB-5-42-UEXT-full\Microchip\TCPIP Stack\BerkeleyAPI.c
                 __recv:3   0x00077b       data     extern F:\PIC-web\c18\PIC-WEB-5-42-UEXT-full\Microchip\TCPIP Stack\BerkeleyAPI.c
             __recvfrom:0   0x00077d       data     extern F:\PIC-web\c18\PIC-WEB-5-42-UEXT-full\Microchip\TCPIP Stack\BerkeleyAPI.c
             __recvfrom:1   0x00077e       data     extern F:\PIC-web\c18\PIC-WEB-5-42-UEXT-full\Microchip\TCPIP Stack\BerkeleyAPI.c
             __recvfrom:2   0x000780       data     extern F:\PIC-web\c18\PIC-WEB-5-42-UEXT-full\Microchip\TCPIP Stack\BerkeleyAPI.c
             __recvfrom:3   0x000782       data     extern F:\PIC-web\c18\PIC-WEB-5-42-UEXT-full\Microchip\TCPIP Stack\BerkeleyAPI.c
             __recvfrom:4   0x000784       data     extern F:\PIC-web\c18\PIC-WEB-5-42-UEXT-full\Microchip\TCPIP Stack\BerkeleyAPI.c
             __recvfrom:5   0x000786       data     extern F:\PIC-web\c18\PIC-WEB-5-42-UEXT-full\Microchip\TCPIP Stack\BerkeleyAPI.c
                 __send:0   0x000760       data     extern F:\PIC-web\c18\PIC-WEB-5-42-UEXT-full\Microchip\TCPIP Stack\BerkeleyAPI.c
                 __send:1   0x000761       data     extern F:\PIC-web\c18\PIC-WEB-5-42-UEXT-full\Microchip\TCPIP Stack\BerkeleyAPI.c
                 __send:2   0x000763       data     extern F:\PIC-web\c18\PIC-WEB-5-42-UEXT-full\Microchip\TCPIP Stack\BerkeleyAPI.c
                 __send:3   0x000765       data     extern F:\PIC-web\c18\PIC-WEB-5-42-UEXT-full\Microchip\TCPIP Stack\BerkeleyAPI.c
               __sendto:0   0x000767       data     extern F:\PIC-web\c18\PIC-WEB-5-42-UEXT-full\Microchip\TCPIP Stack\BerkeleyAPI.c
               __sendto:1   0x000768       data     extern F:\PIC-web\c18\PIC-WEB-5-42-UEXT-full\Microchip\TCPIP Stack\BerkeleyAPI.c
               __sendto:2   0x00076a       data     extern F:\PIC-web\c18\PIC-WEB-5-42-UEXT-full\Microchip\TCPIP Stack\BerkeleyAPI.c
               __sendto:3   0x00076c       data     extern F:\PIC-web\c18\PIC-WEB-5-42-UEXT-full\Microchip\TCPIP Stack\BerkeleyAPI.c
               __sendto:4   0x00076e       data     extern F:\PIC-web\c18\PIC-WEB-5-42-UEXT-full\Microchip\TCPIP Stack\BerkeleyAPI.c
               __sendto:5   0x000770       data     extern F:\PIC-web\c18\PIC-WEB-5-42-UEXT-full\Microchip\TCPIP Stack\BerkeleyAPI.c
               __socket:0   0x000748       data     extern F:\PIC-web\c18\PIC-WEB-5-42-UEXT-full\Microchip\TCPIP Stack\BerkeleyAPI.c
               __socket:1   0x00074a       data     extern F:\PIC-web\c18\PIC-WEB-5-42-UEXT-full\Microchip\TCPIP Stack\BerkeleyAPI.c
               __socket:2   0x00074c       data     extern F:\PIC-web\c18\PIC-WEB-5-42-UEXT-full\Microchip\TCPIP Stack\BerkeleyAPI.c
       __stricmppgm2ram:0   0x0006c3       data     extern F:\PIC-web\c18\PIC-WEB-5-42-UEXT-full\Microchip\TCPIP Stack\Helpers.c
       __stricmppgm2ram:1   0x0006c5       data     extern F:\PIC-web\c18\PIC-WEB-5-42-UEXT-full\Microchip\TCPIP Stack\Helpers.c
              __strnchr:0   0x0006dd       data     extern F:\PIC-web\c18\PIC-WEB-5-42-UEXT-full\Microchip\TCPIP Stack\Helpers.c
              __strnchr:1   0x0006df       data     extern F:\PIC-web\c18\PIC-WEB-5-42-UEXT-full\Microchip\TCPIP Stack\Helpers.c
              __strnchr:2   0x0006e1       data     extern F:\PIC-web\c18\PIC-WEB-5-42-UEXT-full\Microchip\TCPIP Stack\Helpers.c
            __strncpy_m:0   0x0006e2       data     extern F:\PIC-web\c18\PIC-WEB-5-42-UEXT-full\Microchip\TCPIP Stack\Helpers.c
            __strncpy_m:1   0x0006e4       data     extern F:\PIC-web\c18\PIC-WEB-5-42-UEXT-full\Microchip\TCPIP Stack\Helpers.c
            __strncpy_m:2   0x0006e6       data     extern F:\PIC-web\c18\PIC-WEB-5-42-UEXT-full\Microchip\TCPIP Stack\Helpers.c
                __swapl:0   0x0006ca       data     extern F:\PIC-web\c18\PIC-WEB-5-42-UEXT-full\Microchip\TCPIP Stack\Helpers.c
                __swaps:0   0x0006c8       data     extern F:\PIC-web\c18\PIC-WEB-5-42-UEXT-full\Microchip\TCPIP Stack\Helpers.c
                  __tmp_0   0x000000       data     static F:\PIC-web\c18\PIC-WEB-5-42-UEXT-full\Microchip\TCPIP Stack\Reboot.c
                  __tmp_0   0x000000       data     static F:\PIC-web\c18\PIC-WEB-5-42-UEXT-full\TCPIP\Demo App\BerkeleyTCPClientDemo.c
                  __tmp_0   0x000000       data     static F:\PIC-web\c18\PIC-WEB-5-42-UEXT-full\Microchip\TCPIP Stack\NBNS.c
                  __tmp_0   0x000000       data     static F:\PIC-web\c18\PIC-WEB-5-42-UEXT-full\TCPIP\Demo App\Olimex_Demo_Files\Misc_Functions.c
                  __tmp_0   0x000000       data     static F:\PIC-web\c18\PIC-WEB-5-42-UEXT-full\TCPIP\Demo App\BerkeleyTCPServerDemo.c
                  __tmp_0   0x000000       data     static F:\PIC-web\c18\PIC-WEB-5-42-UEXT-full\Microchip\TCPIP Stack\SMTP.c
                  __tmp_0   0x000000       data     static F:\PIC-web\c18\PIC-WEB-5-42-UEXT-full\Microchip\TCPIP Stack\MPFS2.c
                  __tmp_0   0x000000       data     static F:\PIC-web\c18\PIC-WEB-5-42-UEXT-full\Microchip\TCPIP Stack\ETH97J60.c
                  __tmp_0   0x000000       data     static F:\PIC-web\c18\PIC-WEB-5-42-UEXT-full\TCPIP\Demo App\BerkeleyUDPClientDemo.c
                  __tmp_0   0x000000       data     static F:\PIC-web\c18\PIC-WEB-5-42-UEXT-full\TCPIP\Demo App\GenericTCPClient.c
                  __tmp_0   0x000000       data     static F:\PIC-web\c18\PIC-WEB-5-42-UEXT-full\TCPIP\Demo App\MainDemo.c
                  __tmp_0   0x000000       data     static F:\PIC-web\c18\PIC-WEB-5-42-UEXT-full\TCPIP\Demo App\GenericTCPServer.c
                  __tmp_0   0x000000       data     static F:\PIC-web\c18\PIC-WEB-5-42-UEXT-full\TCPIP\Demo App\PingDemo.c
                  __tmp_0   0x000000       data     static F:\PIC-web\c18\PIC-WEB-5-42-UEXT-full\TCPIP\Demo App\SMTPDemo.c
                  __tmp_0   0x000000       data     static F:\PIC-web\c18\PIC-WEB-5-42-UEXT-full\Microchip\TCPIP Stack\Telnet.c
                  __tmp_0   0x000000       data     static F:\PIC-web\c18\PIC-WEB-5-42-UEXT-full\TCPIP\Demo App\UARTConfig.c
                  __tmp_0   0x000000       data     static F:\PIC-web\c18\PIC-WEB-5-42-UEXT-full\Microchip\TCPIP Stack\IP.c
                  __tmp_0   0x000000       data     static F:\PIC-web\c18\PIC-WEB-5-42-UEXT-full\Microchip\TCPIP Stack\ICMP.c
                  __tmp_0   0x000000       data     static F:\PIC-web\c18\PIC-WEB-5-42-UEXT-full\TCPIP\Demo App\Olimex_Demo_Files\Custom_I2C.c
                  __tmp_0   0x000000       data     static F:\PIC-web\c18\PIC-WEB-5-42-UEXT-full\Microchip\TCPIP Stack\BerkeleyAPI.c
                  __tmp_0   0x000000       data     static F:\PIC-web\c18\PIC-WEB-5-42-UEXT-full\TCPIP\Demo App\Olimex_Demo_Files\Custom_I2C_Low.c
                  __tmp_0   0x000000       data     static F:\PIC-web\c18\PIC-WEB-5-42-UEXT-full\Microchip\TCPIP Stack\HTTP2.c
                  __tmp_0   0x000000       data     static E:\3.46\pic18-lt\cxx-framework\src\pmc_common\SW_I2C\swgtci2c.c
                  __tmp_0   0x000000       data     static F:\PIC-web\c18\PIC-WEB-5-42-UEXT-full\Microchip\TCPIP Stack\TCPPerformanceTest.c
                  __tmp_0   0x000000       data     static F:\PIC-web\c18\PIC-WEB-5-42-UEXT-full\Microchip\TCPIP Stack\TCP.c
                  __tmp_0   0x000000       data     static F:\PIC-web\c18\PIC-WEB-5-42-UEXT-full\Microchip\TCPIP Stack\AutoIP.c
                  __tmp_0   0x000000       data     static F:\PIC-web\c18\PIC-WEB-5-42-UEXT-full\TCPIP\Demo App\Olimex_Demo_Files\Custom_UART.c
                  __tmp_0   0x000000       data     static F:\PIC-web\c18\PIC-WEB-5-42-UEXT-full\Microchip\TCPIP Stack\Helpers.c
                  __tmp_0   0x000000       data     static F:\PIC-web\c18\PIC-WEB-5-42-UEXT-full\TCPIP\Demo App\Olimex_Demo_Files\Custom_UART_Low.c
                  __tmp_0   0x000000       data     static E:\3.46\pic18-lt\cxx-framework\src\traditional\stdclib\PackMath.c
                  __tmp_0   0x000000       data     static F:\PIC-web\c18\PIC-WEB-5-42-UEXT-full\Microchip\TCPIP Stack\DNS.c
                  __tmp_0   0x000000       data     static F:\PIC-web\c18\PIC-WEB-5-42-UEXT-full\Microchip\TCPIP Stack\UDP.c
                  __tmp_0   0x000000       data     static F:\PIC-web\c18\PIC-WEB-5-42-UEXT-full\Microchip\TCPIP Stack\UART2TCPBridge.c
                  __tmp_0   0x000000       data     static F:\PIC-web\c18\PIC-WEB-5-42-UEXT-full\Microchip\TCPIP Stack\DHCPs.c
                  __tmp_0   0x000000       data     static F:\PIC-web\c18\PIC-WEB-5-42-UEXT-full\Microchip\TCPIP Stack\DHCP.c
                  __tmp_0   0x000000       data     static F:\PIC-web\c18\PIC-WEB-5-42-UEXT-full\Microchip\TCPIP Stack\Announce.c
                  __tmp_0   0x000000       data     static F:\PIC-web\c18\PIC-WEB-5-42-UEXT-full\Microchip\TCPIP Stack\Hashes.c
                  __tmp_0   0x000000       data     static F:\PIC-web\c18\PIC-WEB-5-42-UEXT-full\Microchip\TCPIP Stack\StackTsk.c
                  __tmp_0   0x000000       data     static E:\3.46\pic18-lt\cxx-framework\src\traditional\stdclib\frexp.c
                  __tmp_0   0x000000       data     static F:\PIC-web\c18\PIC-WEB-5-42-UEXT-full\TCPIP\Demo App\CustomHTTPApp.c
                  __tmp_0   0x000000       data     static F:\PIC-web\c18\PIC-WEB-5-42-UEXT-full\Microchip\TCPIP Stack\SPIFlash.c
                  __tmp_0   0x000000       data     static F:\PIC-web\c18\PIC-WEB-5-42-UEXT-full\Microchip\TCPIP Stack\ARP.c
                  __tmp_0   0x000000       data     static E:\3.46\pic18-lt\cxx-framework\src\traditional\stdclib\UnpkMath.c
                  __tmp_0   0x000000       data     static F:\PIC-web\c18\PIC-WEB-5-42-UEXT-full\Microchip\TCPIP Stack\SNTP.c
                  __tmp_0   0x000000       data     static E:\3.46\pic18-lt\cxx-framework\src\traditional\stdclib\log.c
                __uitoa:0   0x0006bb       data     extern F:\PIC-web\c18\PIC-WEB-5-42-UEXT-full\Microchip\TCPIP Stack\Helpers.c
                __uitoa:1   0x0006bd       data     extern F:\PIC-web\c18\PIC-WEB-5-42-UEXT-full\Microchip\TCPIP Stack\Helpers.c
                   _iTemp   0x000c42       data     static F:\PIC-web\c18\PIC-WEB-5-42-UEXT-full\TCPIP\Demo App\CustomHTTPApp.c
                        a   0x000c00       data     static F:\PIC-web\c18\PIC-WEB-5-42-UEXT-full\Microchip\TCPIP Stack\Hashes.c
                        a   0x0006c3       data     static F:\PIC-web\c18\PIC-WEB-5-42-UEXT-full\Microchip\TCPIP Stack\Helpers.c
          activeUDPSocket   0x0002b8       data     extern F:\PIC-web\c18\PIC-WEB-5-42-UEXT-full\Microchip\TCPIP Stack\UDP.c
                addRemote   0x000c10       data     static F:\PIC-web\c18\PIC-WEB-5-42-UEXT-full\TCPIP\Demo App\BerkeleyTCPServerDemo.c
                     addr   0x00098b       data     static F:\PIC-web\c18\PIC-WEB-5-42-UEXT-full\TCPIP\Demo App\BerkeleyTCPClientDemo.c
                     addr   0x000c0f       data     static F:\PIC-web\c18\PIC-WEB-5-42-UEXT-full\Microchip\TCPIP Stack\BerkeleyAPI.c
                     addr   0x000cab       data     static F:\PIC-web\c18\PIC-WEB-5-42-UEXT-full\Microchip\TCPIP Stack\SPIFlash.c
                     addr   0x000c44       data     static F:\PIC-web\c18\PIC-WEB-5-42-UEXT-full\Microchip\TCPIP Stack\MPFS2.c
                     addr   0x000c00       data     static F:\PIC-web\c18\PIC-WEB-5-42-UEXT-full\TCPIP\Demo App\BerkeleyTCPServerDemo.c
                     addr   0x000cab       data     static F:\PIC-web\c18\PIC-WEB-5-42-UEXT-full\Microchip\TCPIP Stack\SPIFlash.c
                     addr   0x000757       data     static F:\PIC-web\c18\PIC-WEB-5-42-UEXT-full\Microchip\TCPIP Stack\BerkeleyAPI.c
               addrRemote   0x000c39       data     static F:\PIC-web\c18\PIC-WEB-5-42-UEXT-full\Microchip\TCPIP Stack\BerkeleyAPI.c
                  address   0x00088c       data     static F:\PIC-web\c18\PIC-WEB-5-42-UEXT-full\Microchip\TCPIP Stack\SPIFlash.c
                  address   0x0008c3       data     static F:\PIC-web\c18\PIC-WEB-5-42-UEXT-full\Microchip\TCPIP Stack\ETH97J60.c
                  address   0x000898       data     static F:\PIC-web\c18\PIC-WEB-5-42-UEXT-full\Microchip\TCPIP Stack\SPIFlash.c
                  address   0x000890       data     static F:\PIC-web\c18\PIC-WEB-5-42-UEXT-full\Microchip\TCPIP Stack\SPIFlash.c
                  address   0x0008ab       data     static F:\PIC-web\c18\PIC-WEB-5-42-UEXT-full\Microchip\TCPIP Stack\SPIFlash.c
                  address   0x0008a5       data     static F:\PIC-web\c18\PIC-WEB-5-42-UEXT-full\Microchip\TCPIP Stack\SPIFlash.c
                  address   0x0008a1       data     static F:\PIC-web\c18\PIC-WEB-5-42-UEXT-full\Microchip\TCPIP Stack\SPIFlash.c
                  address   0x0008c1       data     static F:\PIC-web\c18\PIC-WEB-5-42-UEXT-full\Microchip\TCPIP Stack\ETH97J60.c
                  addrlen   0x000c32       data     static F:\PIC-web\c18\PIC-WEB-5-42-UEXT-full\TCPIP\Demo App\BerkeleyUDPClientDemo.c
                  addrlen   0x000c0b       data     static F:\PIC-web\c18\PIC-WEB-5-42-UEXT-full\TCPIP\Demo App\BerkeleyTCPClientDemo.c
                  addrlen   0x000c20       data     static F:\PIC-web\c18\PIC-WEB-5-42-UEXT-full\TCPIP\Demo App\BerkeleyTCPServerDemo.c
                  addrlen   0x000759       data     static F:\PIC-web\c18\PIC-WEB-5-42-UEXT-full\Microchip\TCPIP Stack\BerkeleyAPI.c
                       af   0x000748       data     static F:\PIC-web\c18\PIC-WEB-5-42-UEXT-full\Microchip\TCPIP Stack\BerkeleyAPI.c
                     args   0x000c00       data     static F:\PIC-web\c18\PIC-WEB-5-42-UEXT-full\Microchip\TCPIP Stack\Helpers.c
                 assigned   0x000c3a       data     static F:\PIC-web\c18\PIC-WEB-5-42-UEXT-full\Microchip\TCPIP Stack\BerkeleyAPI.c
                        b   0x000c04       data     static F:\PIC-web\c18\PIC-WEB-5-42-UEXT-full\Microchip\TCPIP Stack\Hashes.c
                        b   0x0006c1       data     static F:\PIC-web\c18\PIC-WEB-5-42-UEXT-full\Microchip\TCPIP Stack\Helpers.c
                        b   0x0006c2       data     static F:\PIC-web\c18\PIC-WEB-5-42-UEXT-full\Microchip\TCPIP Stack\Helpers.c
                        b   0x0006c5       data     static F:\PIC-web\c18\PIC-WEB-5-42-UEXT-full\Microchip\TCPIP Stack\Helpers.c
                        b   0x000cc0       data     static F:\PIC-web\c18\PIC-WEB-5-42-UEXT-full\Microchip\TCPIP Stack\Helpers.c
                  bAccept   0x0004e6       data     static F:\PIC-web\c18\PIC-WEB-5-42-UEXT-full\Microchip\TCPIP Stack\DHCPs.c
                  bAccept   0x000c29       data     static F:\PIC-web\c18\PIC-WEB-5-42-UEXT-full\Microchip\TCPIP Stack\DHCPs.c
             bCloseSocket   0x000c02       data     static F:\PIC-web\c18\PIC-WEB-5-42-UEXT-full\Microchip\TCPIP Stack\TCP.c
        bCurrentLinkState   0x000c79       data     static F:\PIC-web\c18\PIC-WEB-5-42-UEXT-full\Microchip\TCPIP Stack\StackTsk.c
       bDHCPServerEnabled   0x0009e9       data     extern F:\PIC-web\c18\PIC-WEB-5-42-UEXT-full\Microchip\TCPIP Stack\DHCPs.c
             bInitialized   0x000b2b       data     static F:\PIC-web\c18\PIC-WEB-5-42-UEXT-full\Microchip\TCPIP Stack\Telnet.c
           bLastLinkState   0x000b24       data     static F:\PIC-web\c18\PIC-WEB-5-42-UEXT-full\Microchip\TCPIP Stack\StackTsk.c
                    bQuit   0x000caa       data     static F:\PIC-web\c18\PIC-WEB-5-42-UEXT-full\TCPIP\Demo App\UARTConfig.c
                   bRenew   0x000c2a       data     static F:\PIC-web\c18\PIC-WEB-5-42-UEXT-full\Microchip\TCPIP Stack\DHCPs.c
                   bRenew   0x0004e7       data     static F:\PIC-web\c18\PIC-WEB-5-42-UEXT-full\Microchip\TCPIP Stack\DHCPs.c
                bRenewing   0x0003ff       data     static F:\PIC-web\c18\PIC-WEB-5-42-UEXT-full\Microchip\TCPIP Stack\DHCP.c
              bRetransmit   0x000c01       data     static F:\PIC-web\c18\PIC-WEB-5-42-UEXT-full\Microchip\TCPIP Stack\TCP.c
       bSegmentAcceptable   0x000c3e       data     static F:\PIC-web\c18\PIC-WEB-5-42-UEXT-full\Microchip\TCPIP Stack\TCP.c
          bSocketWasReset   0x000c58       data     static F:\PIC-web\c18\PIC-WEB-5-42-UEXT-full\Microchip\TCPIP Stack\BerkeleyAPI.c
             bTextCompare   0x0003a6       data     static F:\PIC-web\c18\PIC-WEB-5-42-UEXT-full\Microchip\TCPIP Stack\TCP.c
             bTextCompare   0x000394       data     static F:\PIC-web\c18\PIC-WEB-5-42-UEXT-full\Microchip\TCPIP Stack\TCP.c
             bTextCompare   0x00039f       data     static F:\PIC-web\c18\PIC-WEB-5-42-UEXT-full\Microchip\TCPIP Stack\TCP.c
                  backlog   0x000754       data     static F:\PIC-web\c18\PIC-WEB-5-42-UEXT-full\Microchip\TCPIP Stack\BerkeleyAPI.c
                      bfr   0x000c22       data     static F:\PIC-web\c18\PIC-WEB-5-42-UEXT-full\TCPIP\Demo App\BerkeleyTCPServerDemo.c
                     bits   0x0006da       data     static F:\PIC-web\c18\PIC-WEB-5-42-UEXT-full\Microchip\TCPIP Stack\Helpers.c
                 blockLen   0x000c04       data     static F:\PIC-web\c18\PIC-WEB-5-42-UEXT-full\TCPIP\Demo App\UARTConfig.c
                 blockPtr   0x000c1a       data     static F:\PIC-web\c18\PIC-WEB-5-42-UEXT-full\Microchip\TCPIP Stack\Hashes.c
                 blockPtr   0x000c1a       data     static F:\PIC-web\c18\PIC-WEB-5-42-UEXT-full\Microchip\TCPIP Stack\Hashes.c
          bsdClientSocket   0x00098a       data     static F:\PIC-web\c18\PIC-WEB-5-42-UEXT-full\TCPIP\Demo App\BerkeleyTCPClientDemo.c
          bsdServerSocket   0x000b08       data     static F:\PIC-web\c18\PIC-WEB-5-42-UEXT-full\TCPIP\Demo App\BerkeleyTCPServerDemo.c
             bsdUdpClient   0x000967       data     static F:\PIC-web\c18\PIC-WEB-5-42-UEXT-full\TCPIP\Demo App\BerkeleyUDPClientDemo.c
                      buf   0x00077e       data     static F:\PIC-web\c18\PIC-WEB-5-42-UEXT-full\Microchip\TCPIP Stack\BerkeleyAPI.c
                      buf   0x000777       data     static F:\PIC-web\c18\PIC-WEB-5-42-UEXT-full\Microchip\TCPIP Stack\BerkeleyAPI.c
                      buf   0x000761       data     static F:\PIC-web\c18\PIC-WEB-5-42-UEXT-full\Microchip\TCPIP Stack\BerkeleyAPI.c
                      buf   0x000768       data     static F:\PIC-web\c18\PIC-WEB-5-42-UEXT-full\Microchip\TCPIP Stack\BerkeleyAPI.c
                      buf   0x000c33       data     static F:\PIC-web\c18\PIC-WEB-5-42-UEXT-full\Microchip\TCPIP Stack\HTTP2.c
                      buf   0x000c33       data     static F:\PIC-web\c18\PIC-WEB-5-42-UEXT-full\Microchip\TCPIP Stack\HTTP2.c
                   buffer   0x0009ac       data     static F:\PIC-web\c18\PIC-WEB-5-42-UEXT-full\Microchip\TCPIP Stack\UART.c
                   buffer   0x0006ce       data     static F:\PIC-web\c18\PIC-WEB-5-42-UEXT-full\Microchip\TCPIP Stack\Helpers.c
                   buffer   0x000c49       data     static F:\PIC-web\c18\PIC-WEB-5-42-UEXT-full\Microchip\TCPIP Stack\TCP.c
                   buffer   0x000cd1       data     static F:\PIC-web\c18\PIC-WEB-5-42-UEXT-full\Microchip\TCPIP Stack\HTTP2.c
                   buffer   0x000894       data     static F:\PIC-web\c18\PIC-WEB-5-42-UEXT-full\Microchip\TCPIP Stack\SPIFlash.c
                   buffer   0x00037c       data     static F:\PIC-web\c18\PIC-WEB-5-42-UEXT-full\Microchip\TCPIP Stack\TCP.c
                   buffer   0x000c11       data     static F:\PIC-web\c18\PIC-WEB-5-42-UEXT-full\Microchip\TCPIP Stack\TCP.c
                 bus_mode   0x0007fe       data     static F:\PIC-web\c18\PIC-WEB-5-42-UEXT-full\TCPIP\Demo App\Olimex_Demo_Files\Custom_SPI_Low.c
                     byte   0x0008a9       data     static F:\PIC-web\c18\PIC-WEB-5-42-UEXT-full\Microchip\TCPIP Stack\SPIFlash.c
                     byte   0x000362       data     static F:\PIC-web\c18\PIC-WEB-5-42-UEXT-full\Microchip\TCPIP Stack\TCP.c
                     byte   0x000379       data     static F:\PIC-web\c18\PIC-WEB-5-42-UEXT-full\Microchip\TCPIP Stack\TCP.c
                        c   0x000c08       data     static F:\PIC-web\c18\PIC-WEB-5-42-UEXT-full\Microchip\TCPIP Stack\Hashes.c
                        c   0x000c00       data     static F:\PIC-web\c18\PIC-WEB-5-42-UEXT-full\Microchip\TCPIP Stack\UART.c
                        c   0x000c03       data     static F:\PIC-web\c18\PIC-WEB-5-42-UEXT-full\Microchip\TCPIP Stack\SMTP.c
                        c   0x000c02       data     static F:\PIC-web\c18\PIC-WEB-5-42-UEXT-full\Microchip\TCPIP Stack\SMTP.c
                        c   0x000f3f       data     static F:\PIC-web\c18\PIC-WEB-5-42-UEXT-full\Microchip\TCPIP Stack\SMTP.c
                        c   0x0000d4       data     static F:\PIC-web\c18\PIC-WEB-5-42-UEXT-full\Microchip\TCPIP Stack\MPFS2.c
                        c   0x000c5d       data     static F:\PIC-web\c18\PIC-WEB-5-42-UEXT-full\Microchip\TCPIP Stack\MPFS2.c
                        c   0x000c17       data     static F:\PIC-web\c18\PIC-WEB-5-42-UEXT-full\Microchip\TCPIP Stack\MPFS2.c
                        c   0x000c01       data     static F:\PIC-web\c18\PIC-WEB-5-42-UEXT-full\TCPIP\Demo App\UARTConfig.c
                        c   0x000ccc       data     static F:\PIC-web\c18\PIC-WEB-5-42-UEXT-full\Microchip\TCPIP Stack\HTTP2.c
                        c   0x000c31       data     static F:\PIC-web\c18\PIC-WEB-5-42-UEXT-full\Microchip\TCPIP Stack\HTTP2.c
                        c   0x000c04       data     static F:\PIC-web\c18\PIC-WEB-5-42-UEXT-full\Microchip\TCPIP Stack\HTTP2.c
                        c   0x000c3f       data     static F:\PIC-web\c18\PIC-WEB-5-42-UEXT-full\Microchip\TCPIP Stack\HTTP2.c
                        c   0x0006e1       data     static F:\PIC-web\c18\PIC-WEB-5-42-UEXT-full\Microchip\TCPIP Stack\Helpers.c
                       c2   0x000c00       data     static F:\PIC-web\c18\PIC-WEB-5-42-UEXT-full\Microchip\TCPIP Stack\Helpers.c
                       cA   0x000c00       data     static F:\PIC-web\c18\PIC-WEB-5-42-UEXT-full\Microchip\TCPIP Stack\Helpers.c
                     cArg   0x00090a       data     static F:\PIC-web\c18\PIC-WEB-5-42-UEXT-full\Microchip\TCPIP Stack\HTTP2.c
                     cArg   0x00090e       data     static F:\PIC-web\c18\PIC-WEB-5-42-UEXT-full\Microchip\TCPIP Stack\HTTP2.c
                       cB   0x000c01       data     static F:\PIC-web\c18\PIC-WEB-5-42-UEXT-full\Microchip\TCPIP Stack\Helpers.c
                    cData   0x0002e6       data     static F:\PIC-web\c18\PIC-WEB-5-42-UEXT-full\Microchip\TCPIP Stack\UDP.c
                    cData   0x000908       data     static F:\PIC-web\c18\PIC-WEB-5-42-UEXT-full\Microchip\TCPIP Stack\HTTP2.c
                    cData   0x00090c       data     static F:\PIC-web\c18\PIC-WEB-5-42-UEXT-full\Microchip\TCPIP Stack\HTTP2.c
                    cData   0x000906       data     static F:\PIC-web\c18\PIC-WEB-5-42-UEXT-full\Microchip\TCPIP Stack\HTTP2.c
                    cData   0x000911       data     static F:\PIC-web\c18\PIC-WEB-5-42-UEXT-full\Microchip\TCPIP Stack\HTTP2.c
                    cData   0x000915       data     static F:\PIC-web\c18\PIC-WEB-5-42-UEXT-full\Microchip\TCPIP Stack\HTTP2.c
                    cData   0x0002d9       data     static F:\PIC-web\c18\PIC-WEB-5-42-UEXT-full\Microchip\TCPIP Stack\UDP.c
                    cData   0x0002d5       data     static F:\PIC-web\c18\PIC-WEB-5-42-UEXT-full\Microchip\TCPIP Stack\UDP.c
                    cData   0x0000e5       data     static F:\PIC-web\c18\PIC-WEB-5-42-UEXT-full\Microchip\TCPIP Stack\MPFS2.c
                    cData   0x0000d7       data     static F:\PIC-web\c18\PIC-WEB-5-42-UEXT-full\Microchip\TCPIP Stack\MPFS2.c
                    cData   0x00091a       data     static F:\PIC-web\c18\PIC-WEB-5-42-UEXT-full\Microchip\TCPIP Stack\HTTP2.c
                   cDelim   0x000919       data     static F:\PIC-web\c18\PIC-WEB-5-42-UEXT-full\Microchip\TCPIP Stack\HTTP2.c
                cDestData   0x0006af       data     static F:\PIC-web\c18\PIC-WEB-5-42-UEXT-full\Microchip\TCPIP Stack\Helpers.c
                cDestData   0x0006b7       data     static F:\PIC-web\c18\PIC-WEB-5-42-UEXT-full\Microchip\TCPIP Stack\Helpers.c
                    cFile   0x0000cd       data     static F:\PIC-web\c18\PIC-WEB-5-42-UEXT-full\Microchip\TCPIP Stack\MPFS2.c
                    cFile   0x000e00       data     static F:\PIC-web\c18\PIC-WEB-5-42-UEXT-full\TCPIP\Demo App\CustomHTTPApp.c
                    cFile   0x0000cb       data     static F:\PIC-web\c18\PIC-WEB-5-42-UEXT-full\Microchip\TCPIP Stack\MPFS2.c
                    cFile   0x00091e       data     static F:\PIC-web\c18\PIC-WEB-5-42-UEXT-full\Microchip\TCPIP Stack\HTTP2.c
                    cFind   0x0003a1       data     static F:\PIC-web\c18\PIC-WEB-5-42-UEXT-full\Microchip\TCPIP Stack\TCP.c
               cFindArray   0x00038c       data     static F:\PIC-web\c18\PIC-WEB-5-42-UEXT-full\Microchip\TCPIP Stack\TCP.c
               cFindArray   0x000396       data     static F:\PIC-web\c18\PIC-WEB-5-42-UEXT-full\Microchip\TCPIP Stack\TCP.c
          cFindArrayStart   0x000c0a       data     static F:\PIC-web\c18\PIC-WEB-5-42-UEXT-full\Microchip\TCPIP Stack\TCP.c
          cFindArrayStart   0x000c43       data     static F:\PIC-web\c18\PIC-WEB-5-42-UEXT-full\Microchip\TCPIP Stack\TCP.c
               cFrameType   0x000c77       data     static F:\PIC-web\c18\PIC-WEB-5-42-UEXT-full\Microchip\TCPIP Stack\StackTsk.c
             cIPFrameType   0x000c78       data     static F:\PIC-web\c18\PIC-WEB-5-42-UEXT-full\Microchip\TCPIP Stack\StackTsk.c
                    cName   0x0000f4       data     static F:\PIC-web\c18\PIC-WEB-5-42-UEXT-full\Microchip\TCPIP Stack\MPFS2.c
                    cName   0x000c04       data     static F:\PIC-web\c18\PIC-WEB-5-42-UEXT-full\TCPIP\Demo App\CustomHTTPApp.c
                    cPass   0x000e04       data     static F:\PIC-web\c18\PIC-WEB-5-42-UEXT-full\TCPIP\Demo App\CustomHTTPApp.c
              cSourceData   0x0006ab       data     static F:\PIC-web\c18\PIC-WEB-5-42-UEXT-full\Microchip\TCPIP Stack\Helpers.c
              cSourceData   0x0006b3       data     static F:\PIC-web\c18\PIC-WEB-5-42-UEXT-full\Microchip\TCPIP Stack\Helpers.c
                    cUser   0x000e02       data     static F:\PIC-web\c18\PIC-WEB-5-42-UEXT-full\TCPIP\Demo App\CustomHTTPApp.c
               callbackID   0x000900       data     static F:\PIC-web\c18\PIC-WEB-5-42-UEXT-full\TCPIP\Demo App\HTTPPrint.h
                  charLen   0x000c3e       data     static F:\PIC-web\c18\PIC-WEB-5-42-UEXT-full\Microchip\TCPIP Stack\Helpers.c
                  charLen   0x000c39       data     static F:\PIC-web\c18\PIC-WEB-5-42-UEXT-full\Microchip\TCPIP Stack\Helpers.c
                checksum1   0x000c20       data     static F:\PIC-web\c18\PIC-WEB-5-42-UEXT-full\Microchip\TCPIP Stack\TCP.c
                checksum2   0x000c22       data     static F:\PIC-web\c18\PIC-WEB-5-42-UEXT-full\Microchip\TCPIP Stack\TCP.c
                checksums   0x000c15       data     static F:\PIC-web\c18\PIC-WEB-5-42-UEXT-full\Microchip\TCPIP Stack\UDP.c
             clientSockID   0x000c37       data     static F:\PIC-web\c18\PIC-WEB-5-42-UEXT-full\Microchip\TCPIP Stack\BerkeleyAPI.c
                     conn   0x000cee       data     static F:\PIC-web\c18\PIC-WEB-5-42-UEXT-full\Microchip\TCPIP Stack\HTTP2.c
                    count   0x0006d0       data     static F:\PIC-web\c18\PIC-WEB-5-42-UEXT-full\Microchip\TCPIP Stack\Helpers.c
                    count   0x0006df       data     static F:\PIC-web\c18\PIC-WEB-5-42-UEXT-full\Microchip\TCPIP Stack\Helpers.c
                    count   0x000c01       data     static F:\PIC-web\c18\PIC-WEB-5-42-UEXT-full\Microchip\TCPIP Stack\UART.c
                  curHTTP   0x000400       data     extern F:\PIC-web\c18\PIC-WEB-5-42-UEXT-full\Microchip\TCPIP Stack\HTTP2.c
                curHTTPID   0x000483       data     extern F:\PIC-web\c18\PIC-WEB-5-42-UEXT-full\Microchip\TCPIP Stack\HTTP2.c
                curr_byte   0x0002f9       data     static E:\3.46\pic18-lt\cxx-framework\src\traditional\startup\c018i.c
               curr_entry   0x0002fb       data     static E:\3.46\pic18-lt\cxx-framework\src\traditional\startup\c018i.c
             currentOctet   0x000c3a       data     static F:\PIC-web\c18\PIC-WEB-5-42-UEXT-full\Microchip\TCPIP Stack\Helpers.c
             currentOctet   0x000c3f       data     static F:\PIC-web\c18\PIC-WEB-5-42-UEXT-full\Microchip\TCPIP Stack\Helpers.c
              currentTick   0x000c8a       data     static F:\PIC-web\c18\PIC-WEB-5-42-UEXT-full\TCPIP\Demo App\UARTConfig.c
            current_timer   0x000c2f       data     static F:\PIC-web\c18\PIC-WEB-5-42-UEXT-full\Microchip\TCPIP Stack\DHCPs.c
                        d   0x000c0c       data     static F:\PIC-web\c18\PIC-WEB-5-42-UEXT-full\Microchip\TCPIP Stack\Hashes.c
                     data   0x0005b0       data     static F:\PIC-web\c18\PIC-WEB-5-42-UEXT-full\Microchip\TCPIP Stack\Hashes.c
                     data   0x0005bf       data     static F:\PIC-web\c18\PIC-WEB-5-42-UEXT-full\Microchip\TCPIP Stack\Hashes.c
                     data   0x0006ff       data     static F:\PIC-web\c18\PIC-WEB-5-42-UEXT-full\TCPIP\Demo App\Olimex_Demo_Files\Custom_UART_Low.c
                     data   0x0005c5       data     static F:\PIC-web\c18\PIC-WEB-5-42-UEXT-full\Microchip\TCPIP Stack\Hashes.c
                     data   0x0005ca       data     static F:\PIC-web\c18\PIC-WEB-5-42-UEXT-full\Microchip\TCPIP Stack\Hashes.c
                     data   0x000372       data     static F:\PIC-web\c18\PIC-WEB-5-42-UEXT-full\Microchip\TCPIP Stack\TCP.c
                     data   0x00036f       data     static F:\PIC-web\c18\PIC-WEB-5-42-UEXT-full\Microchip\TCPIP Stack\TCP.c
                     data   0x000369       data     static F:\PIC-web\c18\PIC-WEB-5-42-UEXT-full\Microchip\TCPIP Stack\TCP.c
                     data   0x000364       data     static F:\PIC-web\c18\PIC-WEB-5-42-UEXT-full\Microchip\TCPIP Stack\TCP.c
                     data   0x000c04       data     static F:\PIC-web\c18\PIC-WEB-5-42-UEXT-full\Microchip\TCPIP Stack\HTTP2.c
                     data   0x0009ab       data     static F:\PIC-web\c18\PIC-WEB-5-42-UEXT-full\Microchip\TCPIP Stack\UART.c
                     data   0x000c01       data     static F:\PIC-web\c18\PIC-WEB-5-42-UEXT-full\Microchip\TCPIP Stack\UART.c
                     data   0x0009af       data     static F:\PIC-web\c18\PIC-WEB-5-42-UEXT-full\Microchip\TCPIP Stack\UART.c
                     data   0x0009b1       data     static F:\PIC-web\c18\PIC-WEB-5-42-UEXT-full\Microchip\TCPIP Stack\UART.c
                     data   0x0005b6       data     static F:\PIC-web\c18\PIC-WEB-5-42-UEXT-full\Microchip\TCPIP Stack\Hashes.c
                     data   0x000c05       data     static F:\PIC-web\c18\PIC-WEB-5-42-UEXT-full\Microchip\TCPIP Stack\HTTP2.c
                dataCount   0x000c71       data     static F:\PIC-web\c18\PIC-WEB-5-42-UEXT-full\Microchip\TCPIP Stack\StackTsk.c
                  dataLen   0x0008bd       data     static F:\PIC-web\c18\PIC-WEB-5-42-UEXT-full\Microchip\TCPIP Stack\ETH97J60.c
                 data_out   0x000b29       data     static F:\PIC-web\c18\PIC-WEB-5-42-UEXT-full\TCPIP\Demo App\Olimex_Demo_Files\Custom_I2C_Low.c
                 data_out   0x0007f7       data     static F:\PIC-web\c18\PIC-WEB-5-42-UEXT-full\TCPIP\Demo App\Olimex_Demo_Files\Custom_SPI_Low.c
                 data_ptr   0x0002fd       data     static E:\3.46\pic18-lt\cxx-framework\src\traditional\startup\c018i.c
                 destAddr   0x0008cb       data     static F:\PIC-web\c18\PIC-WEB-5-42-UEXT-full\Microchip\TCPIP Stack\ETH97J60.c
              destIPValue   0x000ca6       data     static F:\PIC-web\c18\PIC-WEB-5-42-UEXT-full\TCPIP\Demo App\UARTConfig.c
                 destSize   0x0006e4       data     static F:\PIC-web\c18\PIC-WEB-5-42-UEXT-full\Microchip\TCPIP Stack\Helpers.c
                  destStr   0x0006e2       data     static F:\PIC-web\c18\PIC-WEB-5-42-UEXT-full\Microchip\TCPIP Stack\Helpers.c
               dhcp_timer   0x0009ec       data     static F:\PIC-web\c18\PIC-WEB-5-42-UEXT-full\Microchip\TCPIP Stack\DHCPs.c
                   digits   0x000c00       data     static F:\PIC-web\c18\PIC-WEB-5-42-UEXT-full\TCPIP\Demo App\CustomHTTPApp.c
                    dummy   0x000c0e       data     static F:\PIC-web\c18\PIC-WEB-5-42-UEXT-full\Microchip\TCPIP Stack\UART2TCPBridge.c
                       dw   0x000c34       data     static F:\PIC-web\c18\PIC-WEB-5-42-UEXT-full\Microchip\TCPIP Stack\Tick.c
                       dw   0x000c82       data     static F:\PIC-web\c18\PIC-WEB-5-42-UEXT-full\Microchip\TCPIP Stack\Tick.c
                       dw   0x000cab       data     static F:\PIC-web\c18\PIC-WEB-5-42-UEXT-full\Microchip\TCPIP Stack\Tick.c
                       dw   0x000c25       data     static F:\PIC-web\c18\PIC-WEB-5-42-UEXT-full\Microchip\TCPIP Stack\DHCPs.c
                       dw   0x000c10       data     static F:\PIC-web\c18\PIC-WEB-5-42-UEXT-full\Microchip\TCPIP Stack\TCPPerformanceTest.c
                       dw   0x000c0c       data     static F:\PIC-web\c18\PIC-WEB-5-42-UEXT-full\Microchip\TCPIP Stack\TCPPerformanceTest.c
                       dw   0x000c37       data     static F:\PIC-web\c18\PIC-WEB-5-42-UEXT-full\Microchip\TCPIP Stack\DHCPs.c
              dwBytesRead   0x00093d       data     static F:\PIC-web\c18\PIC-WEB-5-42-UEXT-full\Microchip\TCPIP Stack\TCPPerformanceTest.c
              dwBytesSent   0x000925       data     static F:\PIC-web\c18\PIC-WEB-5-42-UEXT-full\Microchip\TCPIP Stack\TCPPerformanceTest.c
          dwInternalTicks   0x000b0c       data     static F:\PIC-web\c18\PIC-WEB-5-42-UEXT-full\Microchip\TCPIP Stack\Tick.c
           dwLFSRRandSeed   0x000b10       data     static F:\PIC-web\c18\PIC-WEB-5-42-UEXT-full\Microchip\TCPIP Stack\Helpers.c
                 dwLastIP   0x0009e4       data     static F:\PIC-web\c18\PIC-WEB-5-42-UEXT-full\TCPIP\Demo App\MainDemo.c
         dwLastUpdateTick   0x000f5b       data     static F:\PIC-web\c18\PIC-WEB-5-42-UEXT-full\TCPIP\Demo App\BerkeleyUDPClientDemo.c
         dwLastUpdateTick   0x0009d8       data     static F:\PIC-web\c18\PIC-WEB-5-42-UEXT-full\Microchip\TCPIP Stack\SNTP.c
                 dwOffset   0x0000df       data     static F:\PIC-web\c18\PIC-WEB-5-42-UEXT-full\Microchip\TCPIP Stack\MPFS2.c
                dwOldSeed   0x000c1f       data     static F:\PIC-web\c18\PIC-WEB-5-42-UEXT-full\Microchip\TCPIP Stack\Helpers.c
             dwRemoteHost   0x000346       data     static F:\PIC-web\c18\PIC-WEB-5-42-UEXT-full\Microchip\TCPIP Stack\TCP.c
               dwRemoteIP   0x000956       data     static F:\PIC-web\c18\PIC-WEB-5-42-UEXT-full\Microchip\TCPIP Stack\ICMP.c
            dwSNTPSeconds   0x000f57       data     static F:\PIC-web\c18\PIC-WEB-5-42-UEXT-full\TCPIP\Demo App\BerkeleyUDPClientDemo.c
            dwSNTPSeconds   0x0009d4       data     static F:\PIC-web\c18\PIC-WEB-5-42-UEXT-full\Microchip\TCPIP Stack\SNTP.c
                   dwSeed   0x00069e       data     static F:\PIC-web\c18\PIC-WEB-5-42-UEXT-full\Microchip\TCPIP Stack\Helpers.c
               dwServerIP   0x00095f       data     static F:\PIC-web\c18\PIC-WEB-5-42-UEXT-full\TCPIP\Demo App\BerkeleyUDPClientDemo.c
                   dwTemp   0x000c25       data     static F:\PIC-web\c18\PIC-WEB-5-42-UEXT-full\Microchip\TCPIP Stack\TCP.c
                   dwTick   0x000c04       data     static F:\PIC-web\c18\PIC-WEB-5-42-UEXT-full\Microchip\TCPIP Stack\SNTP.c
                   dwTick   0x000c04       data     static F:\PIC-web\c18\PIC-WEB-5-42-UEXT-full\TCPIP\Demo App\BerkeleyUDPClientDemo.c
              dwTickDelta   0x000c00       data     static F:\PIC-web\c18\PIC-WEB-5-42-UEXT-full\TCPIP\Demo App\BerkeleyUDPClientDemo.c
              dwTickDelta   0x000c00       data     static F:\PIC-web\c18\PIC-WEB-5-42-UEXT-full\Microchip\TCPIP Stack\SNTP.c
              dwTickValue   0x0009c6       data     static F:\PIC-web\c18\PIC-WEB-5-42-UEXT-full\Microchip\TCPIP Stack\Tick.c
                   dwTime   0x0000fc       data     static F:\PIC-web\c18\PIC-WEB-5-42-UEXT-full\Microchip\TCPIP Stack\Telnet.c
              dwTimeStart   0x000939       data     static F:\PIC-web\c18\PIC-WEB-5-42-UEXT-full\Microchip\TCPIP Stack\TCPPerformanceTest.c
              dwTimeStart   0x000921       data     static F:\PIC-web\c18\PIC-WEB-5-42-UEXT-full\Microchip\TCPIP Stack\TCPPerformanceTest.c
                  dwTimer   0x000963       data     static F:\PIC-web\c18\PIC-WEB-5-42-UEXT-full\TCPIP\Demo App\BerkeleyUDPClientDemo.c
                  dwTimer   0x0001fc       data     static F:\PIC-web\c18\PIC-WEB-5-42-UEXT-full\Microchip\TCPIP Stack\SNTP.c
              dwTotalTime   0x000c07       data     static F:\PIC-web\c18\PIC-WEB-5-42-UEXT-full\Microchip\TCPIP Stack\Helpers.c
                  dwVLine   0x000929       data     static F:\PIC-web\c18\PIC-WEB-5-42-UEXT-full\Microchip\TCPIP Stack\TCPPerformanceTest.c
                    dwVal   0x000c34       data     static F:\PIC-web\c18\PIC-WEB-5-42-UEXT-full\Microchip\TCPIP Stack\Helpers.c
                    dwVal   0x000c00       data     static F:\PIC-web\c18\PIC-WEB-5-42-UEXT-full\Microchip\TCPIP Stack\ICMP.c
                    dwVal   0x000c39       data     static F:\PIC-web\c18\PIC-WEB-5-42-UEXT-full\Microchip\TCPIP Stack\Helpers.c
                      end   0x000c04       data     static F:\PIC-web\c18\PIC-WEB-5-42-UEXT-full\Microchip\TCPIP Stack\Helpers.c
                   endPtr   0x000c2d       data     static F:\PIC-web\c18\PIC-WEB-5-42-UEXT-full\Microchip\TCPIP Stack\Hashes.c
                    errno   0x000b1b       data     extern E:\3.46\pic18-lt\cxx-framework\src\traditional\stdclib\errno.c
                      ext   0x000ccf       data     static F:\PIC-web\c18\PIC-WEB-5-42-UEXT-full\Microchip\TCPIP Stack\HTTP2.c
                        f   0x000c10       data     static F:\PIC-web\c18\PIC-WEB-5-42-UEXT-full\Microchip\TCPIP Stack\Hashes.c
                 fatCache   0x0000b1       data     static F:\PIC-web\c18\PIC-WEB-5-42-UEXT-full\Microchip\TCPIP Stack\MPFS2.c
               fatCacheID   0x0000c7       data     static F:\PIC-web\c18\PIC-WEB-5-42-UEXT-full\Microchip\TCPIP Stack\MPFS2.c
                    fatID   0x0000ea       data     static F:\PIC-web\c18\PIC-WEB-5-42-UEXT-full\Microchip\TCPIP Stack\MPFS2.c
                 filename   0x000c69       data     static F:\PIC-web\c18\PIC-WEB-5-42-UEXT-full\TCPIP\Demo App\CustomHTTPApp.c
                 filename   0x000c02       data     static F:\PIC-web\c18\PIC-WEB-5-42-UEXT-full\TCPIP\Demo App\CustomHTTPApp.c
                    final   0x0000e9       data     static F:\PIC-web\c18\PIC-WEB-5-42-UEXT-full\Microchip\TCPIP Stack\MPFS2.c
                flag_init   0x0009eb       data     static F:\PIC-web\c18\PIC-WEB-5-42-UEXT-full\Microchip\TCPIP Stack\DHCPs.c
                    flags   0x00077b       data     static F:\PIC-web\c18\PIC-WEB-5-42-UEXT-full\Microchip\TCPIP Stack\BerkeleyAPI.c
                    flags   0x00076c       data     static F:\PIC-web\c18\PIC-WEB-5-42-UEXT-full\Microchip\TCPIP Stack\BerkeleyAPI.c
                    flags   0x000782       data     static F:\PIC-web\c18\PIC-WEB-5-42-UEXT-full\Microchip\TCPIP Stack\BerkeleyAPI.c
                    flags   0x000765       data     static F:\PIC-web\c18\PIC-WEB-5-42-UEXT-full\Microchip\TCPIP Stack\BerkeleyAPI.c
                    flags   0x0008b3       data     static F:\PIC-web\c18\PIC-WEB-5-42-UEXT-full\Microchip\TCPIP Stack\ETH97J60.c
                       fp   0x000c44       data     static F:\PIC-web\c18\PIC-WEB-5-42-UEXT-full\Microchip\TCPIP Stack\HTTP2.c
                     from   0x000784       data     static F:\PIC-web\c18\PIC-WEB-5-42-UEXT-full\Microchip\TCPIP Stack\BerkeleyAPI.c
                  fromlen   0x000786       data     static F:\PIC-web\c18\PIC-WEB-5-42-UEXT-full\Microchip\TCPIP Stack\BerkeleyAPI.c
          gAutoPortNumber   0x000b27       data     static F:\PIC-web\c18\PIC-WEB-5-42-UEXT-full\Microchip\TCPIP Stack\BerkeleyAPI.c
                        h   0x000c00       data     static F:\PIC-web\c18\PIC-WEB-5-42-UEXT-full\Microchip\TCPIP Stack\UDP.c
                        h   0x000988       data     static F:\PIC-web\c18\PIC-WEB-5-42-UEXT-full\Microchip\TCPIP Stack\IP.c
                        h   0x000c55       data     static F:\PIC-web\c18\PIC-WEB-5-42-UEXT-full\Microchip\TCPIP Stack\UDP.c
                        h   0x0002f0       data     static F:\PIC-web\c18\PIC-WEB-5-42-UEXT-full\Microchip\TCPIP Stack\UDP.c
                        h   0x0003b5       data     static F:\PIC-web\c18\PIC-WEB-5-42-UEXT-full\Microchip\TCPIP Stack\TCP.c
                        h   0x0003af       data     static F:\PIC-web\c18\PIC-WEB-5-42-UEXT-full\Microchip\TCPIP Stack\TCP.c
                       h0   0x000c1a       data     static F:\PIC-web\c18\PIC-WEB-5-42-UEXT-full\Microchip\TCPIP Stack\Hashes.c
                       h0   0x0005cc       data     static F:\PIC-web\c18\PIC-WEB-5-42-UEXT-full\Microchip\TCPIP Stack\Hashes.c
                       h1   0x0005ce       data     static F:\PIC-web\c18\PIC-WEB-5-42-UEXT-full\Microchip\TCPIP Stack\Hashes.c
                       h1   0x000c1e       data     static F:\PIC-web\c18\PIC-WEB-5-42-UEXT-full\Microchip\TCPIP Stack\Hashes.c
                       h2   0x0005d0       data     static F:\PIC-web\c18\PIC-WEB-5-42-UEXT-full\Microchip\TCPIP Stack\Hashes.c
                       h2   0x000c22       data     static F:\PIC-web\c18\PIC-WEB-5-42-UEXT-full\Microchip\TCPIP Stack\Hashes.c
                       h3   0x0005d2       data     static F:\PIC-web\c18\PIC-WEB-5-42-UEXT-full\Microchip\TCPIP Stack\Hashes.c
                       h3   0x000c26       data     static F:\PIC-web\c18\PIC-WEB-5-42-UEXT-full\Microchip\TCPIP Stack\Hashes.c
              hCurrentTCP   0x000b21       data     static F:\PIC-web\c18\PIC-WEB-5-42-UEXT-full\Microchip\TCPIP Stack\TCP.c
                   hFatID   0x0000d0       data     static F:\PIC-web\c18\PIC-WEB-5-42-UEXT-full\Microchip\TCPIP Stack\MPFS2.c
                    hHTTP   0x000904       data     static F:\PIC-web\c18\PIC-WEB-5-42-UEXT-full\Microchip\TCPIP Stack\HTTP2.c
                 hLastTCB   0x000b22       data     static F:\PIC-web\c18\PIC-WEB-5-42-UEXT-full\Microchip\TCPIP Stack\TCP.c
                    hMPFS   0x0000f1       data     static F:\PIC-web\c18\PIC-WEB-5-42-UEXT-full\Microchip\TCPIP Stack\MPFS2.c
                    hMPFS   0x0000f0       data     static F:\PIC-web\c18\PIC-WEB-5-42-UEXT-full\Microchip\TCPIP Stack\MPFS2.c
                    hMPFS   0x0000ef       data     static F:\PIC-web\c18\PIC-WEB-5-42-UEXT-full\Microchip\TCPIP Stack\MPFS2.c
                    hMPFS   0x0000ee       data     static F:\PIC-web\c18\PIC-WEB-5-42-UEXT-full\Microchip\TCPIP Stack\MPFS2.c
                    hMPFS   0x0000ed       data     static F:\PIC-web\c18\PIC-WEB-5-42-UEXT-full\Microchip\TCPIP Stack\MPFS2.c
                    hMPFS   0x0000ec       data     static F:\PIC-web\c18\PIC-WEB-5-42-UEXT-full\Microchip\TCPIP Stack\MPFS2.c
                    hMPFS   0x0000e4       data     static F:\PIC-web\c18\PIC-WEB-5-42-UEXT-full\Microchip\TCPIP Stack\MPFS2.c
                    hMPFS   0x000c00       data     static F:\PIC-web\c18\PIC-WEB-5-42-UEXT-full\Microchip\TCPIP Stack\MPFS2.c
                    hMPFS   0x000c45       data     static F:\PIC-web\c18\PIC-WEB-5-42-UEXT-full\Microchip\TCPIP Stack\MPFS2.c
                    hMPFS   0x0000de       data     static F:\PIC-web\c18\PIC-WEB-5-42-UEXT-full\Microchip\TCPIP Stack\MPFS2.c
                    hMPFS   0x000c45       data     static F:\PIC-web\c18\PIC-WEB-5-42-UEXT-full\Microchip\TCPIP Stack\MPFS2.c
                    hMPFS   0x0000d2       data     static F:\PIC-web\c18\PIC-WEB-5-42-UEXT-full\Microchip\TCPIP Stack\MPFS2.c
                    hMPFS   0x0000d3       data     static F:\PIC-web\c18\PIC-WEB-5-42-UEXT-full\Microchip\TCPIP Stack\MPFS2.c
                    hMPFS   0x0000d6       data     static F:\PIC-web\c18\PIC-WEB-5-42-UEXT-full\Microchip\TCPIP Stack\MPFS2.c
                    hMPFS   0x0000db       data     static F:\PIC-web\c18\PIC-WEB-5-42-UEXT-full\Microchip\TCPIP Stack\MPFS2.c
                    hMPFS   0x0000f9       data     static F:\PIC-web\c18\PIC-WEB-5-42-UEXT-full\Microchip\TCPIP Stack\MPFS2.c
                    hMPFS   0x0000f8       data     static F:\PIC-web\c18\PIC-WEB-5-42-UEXT-full\Microchip\TCPIP Stack\MPFS2.c
                    hMPFS   0x0000f3       data     static F:\PIC-web\c18\PIC-WEB-5-42-UEXT-full\Microchip\TCPIP Stack\MPFS2.c
                    hMPFS   0x0000f2       data     static F:\PIC-web\c18\PIC-WEB-5-42-UEXT-full\Microchip\TCPIP Stack\MPFS2.c
                     hTCP   0x000360       data     static F:\PIC-web\c18\PIC-WEB-5-42-UEXT-full\Microchip\TCPIP Stack\TCP.c
                     hTCP   0x000361       data     static F:\PIC-web\c18\PIC-WEB-5-42-UEXT-full\Microchip\TCPIP Stack\TCP.c
                     hTCP   0x000380       data     static F:\PIC-web\c18\PIC-WEB-5-42-UEXT-full\Microchip\TCPIP Stack\TCP.c
                     hTCP   0x000395       data     static F:\PIC-web\c18\PIC-WEB-5-42-UEXT-full\Microchip\TCPIP Stack\TCP.c
                     hTCP   0x000371       data     static F:\PIC-web\c18\PIC-WEB-5-42-UEXT-full\Microchip\TCPIP Stack\TCP.c
                     hTCP   0x000381       data     static F:\PIC-web\c18\PIC-WEB-5-42-UEXT-full\Microchip\TCPIP Stack\TCP.c
                     hTCP   0x000c3d       data     static F:\PIC-web\c18\PIC-WEB-5-42-UEXT-full\Microchip\TCPIP Stack\BerkeleyAPI.c
                     hTCP   0x00036e       data     static F:\PIC-web\c18\PIC-WEB-5-42-UEXT-full\Microchip\TCPIP Stack\TCP.c
                     hTCP   0x0003a0       data     static F:\PIC-web\c18\PIC-WEB-5-42-UEXT-full\Microchip\TCPIP Stack\TCP.c
                     hTCP   0x000c25       data     static F:\PIC-web\c18\PIC-WEB-5-42-UEXT-full\Microchip\TCPIP Stack\TCP.c
                     hTCP   0x000388       data     static F:\PIC-web\c18\PIC-WEB-5-42-UEXT-full\Microchip\TCPIP Stack\TCP.c
                     hTCP   0x000c00       data     static F:\PIC-web\c18\PIC-WEB-5-42-UEXT-full\Microchip\TCPIP Stack\TCP.c
                     hTCP   0x000368       data     static F:\PIC-web\c18\PIC-WEB-5-42-UEXT-full\Microchip\TCPIP Stack\TCP.c
                     hTCP   0x00038b       data     static F:\PIC-web\c18\PIC-WEB-5-42-UEXT-full\Microchip\TCPIP Stack\TCP.c
                     hTCP   0x000363       data     static F:\PIC-web\c18\PIC-WEB-5-42-UEXT-full\Microchip\TCPIP Stack\TCP.c
                     hTCP   0x000350       data     static F:\PIC-web\c18\PIC-WEB-5-42-UEXT-full\Microchip\TCPIP Stack\TCP.c
                     hTCP   0x0003b9       data     static F:\PIC-web\c18\PIC-WEB-5-42-UEXT-full\Microchip\TCPIP Stack\TCP.c
                     hTCP   0x00037b       data     static F:\PIC-web\c18\PIC-WEB-5-42-UEXT-full\Microchip\TCPIP Stack\TCP.c
                     hTCP   0x00034f       data     static F:\PIC-web\c18\PIC-WEB-5-42-UEXT-full\Microchip\TCPIP Stack\TCP.c
                     hTCP   0x00034e       data     static F:\PIC-web\c18\PIC-WEB-5-42-UEXT-full\Microchip\TCPIP Stack\TCP.c
                     hTCP   0x000345       data     static F:\PIC-web\c18\PIC-WEB-5-42-UEXT-full\Microchip\TCPIP Stack\TCP.c
                     hTCP   0x00035f       data     static F:\PIC-web\c18\PIC-WEB-5-42-UEXT-full\Microchip\TCPIP Stack\TCP.c
                     hTCP   0x000c3b       data     static F:\PIC-web\c18\PIC-WEB-5-42-UEXT-full\Microchip\TCPIP Stack\TCP.c
                     hTCP   0x000375       data     static F:\PIC-web\c18\PIC-WEB-5-42-UEXT-full\Microchip\TCPIP Stack\TCP.c
                     hTCP   0x000376       data     static F:\PIC-web\c18\PIC-WEB-5-42-UEXT-full\Microchip\TCPIP Stack\TCP.c
                     hTCP   0x000351       data     static F:\PIC-web\c18\PIC-WEB-5-42-UEXT-full\Microchip\TCPIP Stack\TCP.c
                     hTCP   0x000352       data     static F:\PIC-web\c18\PIC-WEB-5-42-UEXT-full\Microchip\TCPIP Stack\TCP.c
                     hTCP   0x000377       data     static F:\PIC-web\c18\PIC-WEB-5-42-UEXT-full\Microchip\TCPIP Stack\TCP.c
                     hTCP   0x000378       data     static F:\PIC-web\c18\PIC-WEB-5-42-UEXT-full\Microchip\TCPIP Stack\TCP.c
           hTelnetSockets   0x0000fa       data     static F:\PIC-web\c18\PIC-WEB-5-42-UEXT-full\Microchip\TCPIP Stack\Telnet.c
                   handle   0x000c02       data     static F:\PIC-web\c18\PIC-WEB-5-42-UEXT-full\TCPIP\Demo App\UARTConfig.c
                     hash   0x000c27       data     static F:\PIC-web\c18\PIC-WEB-5-42-UEXT-full\Microchip\TCPIP Stack\TCP.c
                hashCache   0x000c05       data     static F:\PIC-web\c18\PIC-WEB-5-42-UEXT-full\Microchip\TCPIP Stack\MPFS2.c
                hashCache   0x000c4a       data     static F:\PIC-web\c18\PIC-WEB-5-42-UEXT-full\Microchip\TCPIP Stack\MPFS2.c
                   header   0x000c02       data     static F:\PIC-web\c18\PIC-WEB-5-42-UEXT-full\Microchip\TCPIP Stack\IP.c
                   header   0x0003b3       data     static F:\PIC-web\c18\PIC-WEB-5-42-UEXT-full\Microchip\TCPIP Stack\TCP.c
                   header   0x000c00       data     static F:\PIC-web\c18\PIC-WEB-5-42-UEXT-full\Microchip\TCPIP Stack\ETH97J60.c
                   header   0x000caa       data     static F:\PIC-web\c18\PIC-WEB-5-42-UEXT-full\Microchip\TCPIP Stack\IP.c
                   header   0x000c84       data     static F:\PIC-web\c18\PIC-WEB-5-42-UEXT-full\Microchip\TCPIP Stack\TCP.c
                      hex   0x000c40       data     static F:\PIC-web\c18\PIC-WEB-5-42-UEXT-full\Microchip\TCPIP Stack\HTTP2.c
                httpStubs   0x00047f       data     extern F:\PIC-web\c18\PIC-WEB-5-42-UEXT-full\Microchip\TCPIP Stack\HTTP2.c
                        i   0x000c00       data     static F:\PIC-web\c18\PIC-WEB-5-42-UEXT-full\TCPIP\Demo App\GenericTCPClient.c
                        i   0x000cab       data     static F:\PIC-web\c18\PIC-WEB-5-42-UEXT-full\Microchip\TCPIP Stack\MPFS2.c
                        i   0x000caa       data     static F:\PIC-web\c18\PIC-WEB-5-42-UEXT-full\Microchip\TCPIP Stack\ETH97J60.c
                        i   0x000c2a       data     static F:\PIC-web\c18\PIC-WEB-5-42-UEXT-full\Microchip\TCPIP Stack\Hashes.c
                        i   0x000c00       data     static F:\PIC-web\c18\PIC-WEB-5-42-UEXT-full\TCPIP\Demo App\GenericTCPServer.c
                        i   0x000c2f       data     static F:\PIC-web\c18\PIC-WEB-5-42-UEXT-full\Microchip\TCPIP Stack\DHCPs.c
                        i   0x000652       data     static F:\PIC-web\c18\PIC-WEB-5-42-UEXT-full\Microchip\TCPIP Stack\UART2TCPBridge.c
                        i   0x000c43       data     static F:\PIC-web\c18\PIC-WEB-5-42-UEXT-full\Microchip\TCPIP Stack\DHCPs.c
                        i   0x000c00       data     static F:\PIC-web\c18\PIC-WEB-5-42-UEXT-full\Microchip\TCPIP Stack\UART.c
                        i   0x000c69       data     static F:\PIC-web\c18\PIC-WEB-5-42-UEXT-full\Microchip\TCPIP Stack\Telnet.c
                        i   0x000c03       data     static F:\PIC-web\c18\PIC-WEB-5-42-UEXT-full\Microchip\TCPIP Stack\Announce.c
                        i   0x000c45       data     static F:\PIC-web\c18\PIC-WEB-5-42-UEXT-full\TCPIP\Demo App\Olimex_Demo_Files\Custom_I2C.c
                        i   0x000c33       data     static F:\PIC-web\c18\PIC-WEB-5-42-UEXT-full\Microchip\TCPIP Stack\DHCPs.c
                        i   0x000c01       data     static F:\PIC-web\c18\PIC-WEB-5-42-UEXT-full\Microchip\TCPIP Stack\ETH97J60.c
                        i   0x000905       data     static F:\PIC-web\c18\PIC-WEB-5-42-UEXT-full\Microchip\TCPIP Stack\HTTP2.c
                        i   0x000c35       data     static F:\PIC-web\c18\PIC-WEB-5-42-UEXT-full\Microchip\TCPIP Stack\BerkeleyAPI.c
                        i   0x000c57       data     static F:\PIC-web\c18\PIC-WEB-5-42-UEXT-full\Microchip\TCPIP Stack\BerkeleyAPI.c
                        i   0x000c00       data     static F:\PIC-web\c18\PIC-WEB-5-42-UEXT-full\Microchip\TCPIP Stack\DHCP.c
                        i   0x000ccd       data     static F:\PIC-web\c18\PIC-WEB-5-42-UEXT-full\Microchip\TCPIP Stack\HTTP2.c
                        i   0x000c44       data     static F:\PIC-web\c18\PIC-WEB-5-42-UEXT-full\TCPIP\Demo App\Olimex_Demo_Files\Custom_UART.c
                        i   0x000c18       data     static F:\PIC-web\c18\PIC-WEB-5-42-UEXT-full\Microchip\TCPIP Stack\Hashes.c
                        i   0x000c4f       data     static F:\PIC-web\c18\PIC-WEB-5-42-UEXT-full\Microchip\TCPIP Stack\DNS.c
                        i   0x000c00       data     static F:\PIC-web\c18\PIC-WEB-5-42-UEXT-full\TCPIP\Demo App\Olimex_Demo_Files\Custom_UART.c
                        i   0x000c09       data     static F:\PIC-web\c18\PIC-WEB-5-42-UEXT-full\Microchip\TCPIP Stack\DHCP.c
                        i   0x000c00       data     static F:\PIC-web\c18\PIC-WEB-5-42-UEXT-full\TCPIP\Demo App\Olimex_Demo_Files\Custom_UART.c
                        i   0x000c00       data     static F:\PIC-web\c18\PIC-WEB-5-42-UEXT-full\Microchip\TCPIP Stack\MPFS2.c
                        i   0x000c03       data     static F:\PIC-web\c18\PIC-WEB-5-42-UEXT-full\Microchip\TCPIP Stack\MPFS2.c
                        i   0x000c50       data     static F:\PIC-web\c18\PIC-WEB-5-42-UEXT-full\Microchip\TCPIP Stack\DNS.c
                        i   0x000c48       data     static F:\PIC-web\c18\PIC-WEB-5-42-UEXT-full\Microchip\TCPIP Stack\MPFS2.c
                        i   0x000c06       data     static F:\PIC-web\c18\PIC-WEB-5-42-UEXT-full\Microchip\TCPIP Stack\TCP.c
                        i   0x000c23       data     static F:\PIC-web\c18\PIC-WEB-5-42-UEXT-full\Microchip\TCPIP Stack\Helpers.c
                        i   0x000c3d       data     static F:\PIC-web\c18\PIC-WEB-5-42-UEXT-full\Microchip\TCPIP Stack\Helpers.c
                        i   0x000c04       data     static F:\PIC-web\c18\PIC-WEB-5-42-UEXT-full\TCPIP\Demo App\MainDemo.c
                        i   0x000c35       data     static F:\PIC-web\c18\PIC-WEB-5-42-UEXT-full\Microchip\TCPIP Stack\DHCPs.c
                        i   0x000c59       data     static F:\PIC-web\c18\PIC-WEB-5-42-UEXT-full\Microchip\TCPIP Stack\Helpers.c
                        i   0x000c2f       data     static F:\PIC-web\c18\PIC-WEB-5-42-UEXT-full\Microchip\TCPIP Stack\Helpers.c
                        i   0x000c41       data     static F:\PIC-web\c18\PIC-WEB-5-42-UEXT-full\Microchip\TCPIP Stack\DHCPs.c
                        i   0x000c1c       data     static F:\PIC-web\c18\PIC-WEB-5-42-UEXT-full\Microchip\TCPIP Stack\ARP.c
                        i   0x000cbe       data     static F:\PIC-web\c18\PIC-WEB-5-42-UEXT-full\Microchip\TCPIP Stack\Helpers.c
                        i   0x000c22       data     static F:\PIC-web\c18\PIC-WEB-5-42-UEXT-full\TCPIP\Demo App\CustomHTTPApp.c
                        i   0x000c0c       data     static F:\PIC-web\c18\PIC-WEB-5-42-UEXT-full\Microchip\TCPIP Stack\Helpers.c
                        i   0x000c48       data     static F:\PIC-web\c18\PIC-WEB-5-42-UEXT-full\TCPIP\Demo App\Olimex_Demo_Files\Misc_Functions.c
                        i   0x000c45       data     static F:\PIC-web\c18\PIC-WEB-5-42-UEXT-full\Microchip\TCPIP Stack\DHCPs.c
                        i   0x000e73       data     static F:\PIC-web\c18\PIC-WEB-5-42-UEXT-full\TCPIP\Demo App\CustomHTTPApp.c
                        i   0x000c00       data     static F:\PIC-web\c18\PIC-WEB-5-42-UEXT-full\Microchip\TCPIP Stack\Helpers.c
                        i   0x000c34       data     static F:\PIC-web\c18\PIC-WEB-5-42-UEXT-full\Microchip\TCPIP Stack\DNS.c
                        i   0x000c2f       data     static F:\PIC-web\c18\PIC-WEB-5-42-UEXT-full\Microchip\TCPIP Stack\DHCPs.c
                        i   0x000ced       data     static F:\PIC-web\c18\PIC-WEB-5-42-UEXT-full\Microchip\TCPIP Stack\ETH97J60.c
                        i   0x000c00       data     static F:\PIC-web\c18\PIC-WEB-5-42-UEXT-full\Microchip\TCPIP Stack\DHCPs.c
                        i   0x000c00       data     static F:\PIC-web\c18\PIC-WEB-5-42-UEXT-full\TCPIP\Demo App\CustomHTTPApp.c
                        i   0x000c04       data     static F:\PIC-web\c18\PIC-WEB-5-42-UEXT-full\TCPIP\Demo App\CustomHTTPApp.c
                        i   0x000c81       data     static F:\PIC-web\c18\PIC-WEB-5-42-UEXT-full\TCPIP\Demo App\CustomHTTPApp.c
                        i   0x000c00       data     static F:\PIC-web\c18\PIC-WEB-5-42-UEXT-full\TCPIP\Demo App\CustomHTTPApp.c
                        i   0x000c14       data     static F:\PIC-web\c18\PIC-WEB-5-42-UEXT-full\Microchip\TCPIP Stack\TCP.c
                        i   0x000c00       data     static F:\PIC-web\c18\PIC-WEB-5-42-UEXT-full\Microchip\TCPIP Stack\Helpers.c
                        i   0x000c00       data     static F:\PIC-web\c18\PIC-WEB-5-42-UEXT-full\Microchip\TCPIP Stack\NBNS.c
                        i   0x000c2f       data     static F:\PIC-web\c18\PIC-WEB-5-42-UEXT-full\Microchip\TCPIP Stack\DHCPs.c
                        i   0x000c30       data     static F:\PIC-web\c18\PIC-WEB-5-42-UEXT-full\TCPIP\Demo App\BerkeleyUDPClientDemo.c
                        i   0x000c00       data     static F:\PIC-web\c18\PIC-WEB-5-42-UEXT-full\TCPIP\Demo App\Olimex_Demo_Files\Custom_UART.c
                        i   0x000c4f       data     static F:\PIC-web\c18\PIC-WEB-5-42-UEXT-full\Microchip\TCPIP Stack\DNS.c
                        i   0x000c41       data     static F:\PIC-web\c18\PIC-WEB-5-42-UEXT-full\Microchip\TCPIP Stack\DHCPs.c
                        i   0x000c21       data     static F:\PIC-web\c18\PIC-WEB-5-42-UEXT-full\Microchip\TCPIP Stack\NBNS.c
                        i   0x000c3e       data     static F:\PIC-web\c18\PIC-WEB-5-42-UEXT-full\TCPIP\Demo App\CustomHTTPApp.c
                        i   0x000c33       data     static F:\PIC-web\c18\PIC-WEB-5-42-UEXT-full\TCPIP\Demo App\BerkeleyTCPServerDemo.c
                        i   0x000c00       data     static F:\PIC-web\c18\PIC-WEB-5-42-UEXT-full\Microchip\TCPIP Stack\Announce.c
                        i   0x000c21       data     static F:\PIC-web\c18\PIC-WEB-5-42-UEXT-full\Microchip\TCPIP Stack\NBNS.c
                        i   0x000c35       data     static F:\PIC-web\c18\PIC-WEB-5-42-UEXT-full\TCPIP\Demo App\CustomHTTPApp.c
                        i   0x000c00       data     static F:\PIC-web\c18\PIC-WEB-5-42-UEXT-full\Microchip\TCPIP Stack\DHCP.c
                        i   0x000c0d       data     static F:\PIC-web\c18\PIC-WEB-5-42-UEXT-full\Microchip\TCPIP Stack\TCP.c
                        i   0x000c08       data     static F:\PIC-web\c18\PIC-WEB-5-42-UEXT-full\Microchip\TCPIP Stack\SMTP.c
                        i   0x000c35       data     static F:\PIC-web\c18\PIC-WEB-5-42-UEXT-full\TCPIP\Demo App\CustomHTTPApp.c
                        i   0x000c38       data     static F:\PIC-web\c18\PIC-WEB-5-42-UEXT-full\Microchip\TCPIP Stack\Helpers.c
                        i   0x000c2f       data     static F:\PIC-web\c18\PIC-WEB-5-42-UEXT-full\Microchip\TCPIP Stack\DHCPs.c
                        i   0x000c09       data     static F:\PIC-web\c18\PIC-WEB-5-42-UEXT-full\TCPIP\Demo App\BerkeleyTCPClientDemo.c
                        i   0x000c38       data     static F:\PIC-web\c18\PIC-WEB-5-42-UEXT-full\TCPIP\Demo App\CustomHTTPApp.c
                        i   0x000c02       data     static F:\PIC-web\c18\PIC-WEB-5-42-UEXT-full\Microchip\TCPIP Stack\AutoIP.c
                        i   0x000c45       data     static F:\PIC-web\c18\PIC-WEB-5-42-UEXT-full\Microchip\TCPIP Stack\TCP.c
                        i   0x000c01       data     static F:\PIC-web\c18\PIC-WEB-5-42-UEXT-full\Microchip\TCPIP Stack\DHCP.c
                        i   0x000c82       data     static F:\PIC-web\c18\PIC-WEB-5-42-UEXT-full\Microchip\TCPIP Stack\TCP.c
                        i   0x000c39       data     static F:\PIC-web\c18\PIC-WEB-5-42-UEXT-full\Microchip\TCPIP Stack\Helpers.c
                   inbyte   0x00088b       data     static F:\PIC-web\c18\PIC-WEB-5-42-UEXT-full\Microchip\TCPIP Stack\SPIFlash.c
                    index   0x0004ee       data     static F:\PIC-web\c18\PIC-WEB-5-42-UEXT-full\Microchip\TCPIP Stack\DHCPs.c
              indexOfPool   0x000c30       data     static F:\PIC-web\c18\PIC-WEB-5-42-UEXT-full\Microchip\TCPIP Stack\DHCPs.c
                       ip   0x000e6b       data     static F:\PIC-web\c18\PIC-WEB-5-42-UEXT-full\TCPIP\Demo App\CustomHTTPApp.c
                   ipAddr   0x000c31       data     static F:\PIC-web\c18\PIC-WEB-5-42-UEXT-full\Microchip\TCPIP Stack\DHCPs.c
                   ipAddr   0x000c37       data     static F:\PIC-web\c18\PIC-WEB-5-42-UEXT-full\Microchip\TCPIP Stack\DHCPs.c
          ipResolvedDNSIP   0x000c06       data     static F:\PIC-web\c18\PIC-WEB-5-42-UEXT-full\Microchip\TCPIP Stack\TCP.c
          ipResolvedDNSIP   0x000c01       data     static F:\PIC-web\c18\PIC-WEB-5-42-UEXT-full\Microchip\TCPIP Stack\UDP.c
                   ipaddr   0x0004ea       data     static F:\PIC-web\c18\PIC-WEB-5-42-UEXT-full\Microchip\TCPIP Stack\DHCPs.c
                 ipv4Addr   0x0004f9       data     static F:\PIC-web\c18\PIC-WEB-5-42-UEXT-full\Microchip\TCPIP Stack\DHCPs.c
                   isDone   0x000cce       data     static F:\PIC-web\c18\PIC-WEB-5-42-UEXT-full\Microchip\TCPIP Stack\HTTP2.c
                isFinding   0x000c48       data     static F:\PIC-web\c18\PIC-WEB-5-42-UEXT-full\Microchip\TCPIP Stack\TCP.c
                isFinding   0x000c10       data     static F:\PIC-web\c18\PIC-WEB-5-42-UEXT-full\Microchip\TCPIP Stack\TCP.c
             isMPFSLocked   0x0000b0       data     static F:\PIC-web\c18\PIC-WEB-5-42-UEXT-full\Microchip\TCPIP Stack\MPFS2.c
                        j   0x000c33       data     static F:\PIC-web\c18\PIC-WEB-5-42-UEXT-full\Microchip\TCPIP Stack\DHCPs.c
                        j   0x000c31       data     static F:\PIC-web\c18\PIC-WEB-5-42-UEXT-full\Microchip\TCPIP Stack\DHCPs.c
                        j   0x000c02       data     static F:\PIC-web\c18\PIC-WEB-5-42-UEXT-full\Microchip\TCPIP Stack\DHCP.c
                        j   0x000c46       data     static F:\PIC-web\c18\PIC-WEB-5-42-UEXT-full\Microchip\TCPIP Stack\TCP.c
                        j   0x000c19       data     static F:\PIC-web\c18\PIC-WEB-5-42-UEXT-full\Microchip\TCPIP Stack\Hashes.c
                        j   0x000c01       data     static F:\PIC-web\c18\PIC-WEB-5-42-UEXT-full\Microchip\TCPIP Stack\Helpers.c
                        j   0x000c0e       data     static F:\PIC-web\c18\PIC-WEB-5-42-UEXT-full\Microchip\TCPIP Stack\TCP.c
                        j   0x000c22       data     static F:\PIC-web\c18\PIC-WEB-5-42-UEXT-full\Microchip\TCPIP Stack\NBNS.c
                        j   0x000c22       data     static F:\PIC-web\c18\PIC-WEB-5-42-UEXT-full\Microchip\TCPIP Stack\NBNS.c
                        k   0x000c0f       data     static F:\PIC-web\c18\PIC-WEB-5-42-UEXT-full\Microchip\TCPIP Stack\TCP.c
                        k   0x000c47       data     static F:\PIC-web\c18\PIC-WEB-5-42-UEXT-full\Microchip\TCPIP Stack\TCP.c
                        k   0x000c23       data     static F:\PIC-web\c18\PIC-WEB-5-42-UEXT-full\Microchip\TCPIP Stack\NBNS.c
            lMissingBytes   0x000c2b       data     static F:\PIC-web\c18\PIC-WEB-5-42-UEXT-full\Microchip\TCPIP Stack\TCP.c
                    lPort   0x000c59       data     static F:\PIC-web\c18\PIC-WEB-5-42-UEXT-full\Microchip\TCPIP Stack\BerkeleyAPI.c
                  lResult   0x000c05       data     static F:\PIC-web\c18\PIC-WEB-5-42-UEXT-full\TCPIP\Demo App\UARTConfig.c
                lastBlock   0x00056e       data     extern F:\PIC-web\c18\PIC-WEB-5-42-UEXT-full\Microchip\TCPIP Stack\Hashes.c
              lastFailure   0x0008fc       data     static F:\PIC-web\c18\PIC-WEB-5-42-UEXT-full\TCPIP\Demo App\CustomHTTPApp.c
              lastSuccess   0x0008fb       data     static F:\PIC-web\c18\PIC-WEB-5-42-UEXT-full\TCPIP\Demo App\CustomHTTPApp.c
                 lastTick   0x000c86       data     static F:\PIC-web\c18\PIC-WEB-5-42-UEXT-full\TCPIP\Demo App\UARTConfig.c
                   lbDone   0x000c03       data     static F:\PIC-web\c18\PIC-WEB-5-42-UEXT-full\TCPIP\Demo App\UARTConfig.c
                   lbDone   0x000c04       data     static F:\PIC-web\c18\PIC-WEB-5-42-UEXT-full\Microchip\TCPIP Stack\DHCP.c
                      len   0x0003ab       data     static F:\PIC-web\c18\PIC-WEB-5-42-UEXT-full\Microchip\TCPIP Stack\TCP.c
                      len   0x0008c9       data     static F:\PIC-web\c18\PIC-WEB-5-42-UEXT-full\Microchip\TCPIP Stack\ETH97J60.c
                      len   0x000c06       data     static F:\PIC-web\c18\PIC-WEB-5-42-UEXT-full\Microchip\TCPIP Stack\Helpers.c
                      len   0x0008dd       data     static F:\PIC-web\c18\PIC-WEB-5-42-UEXT-full\Microchip\TCPIP Stack\ETH97J60.c
                      len   0x0002ee       data     static F:\PIC-web\c18\PIC-WEB-5-42-UEXT-full\Microchip\TCPIP Stack\UDP.c
                      len   0x000763       data     static F:\PIC-web\c18\PIC-WEB-5-42-UEXT-full\Microchip\TCPIP Stack\BerkeleyAPI.c
                      len   0x00037e       data     static F:\PIC-web\c18\PIC-WEB-5-42-UEXT-full\Microchip\TCPIP Stack\TCP.c
                      len   0x0005c1       data     static F:\PIC-web\c18\PIC-WEB-5-42-UEXT-full\Microchip\TCPIP Stack\Hashes.c
                      len   0x0008c7       data     static F:\PIC-web\c18\PIC-WEB-5-42-UEXT-full\Microchip\TCPIP Stack\ETH97J60.c
                      len   0x00036c       data     static F:\PIC-web\c18\PIC-WEB-5-42-UEXT-full\Microchip\TCPIP Stack\TCP.c
                      len   0x000366       data     static F:\PIC-web\c18\PIC-WEB-5-42-UEXT-full\Microchip\TCPIP Stack\TCP.c
                      len   0x0005c8       data     static F:\PIC-web\c18\PIC-WEB-5-42-UEXT-full\Microchip\TCPIP Stack\Hashes.c
                      len   0x0008d3       data     static F:\PIC-web\c18\PIC-WEB-5-42-UEXT-full\Microchip\TCPIP Stack\ETH97J60.c
                      len   0x0008d8       data     static F:\PIC-web\c18\PIC-WEB-5-42-UEXT-full\Microchip\TCPIP Stack\ETH97J60.c
                      len   0x000c00       data     static F:\PIC-web\c18\PIC-WEB-5-42-UEXT-full\TCPIP\Demo App\CustomHTTPApp.c
                      len   0x000c00       data     static F:\PIC-web\c18\PIC-WEB-5-42-UEXT-full\TCPIP\Demo App\CustomHTTPApp.c
                      len   0x0008cf       data     static F:\PIC-web\c18\PIC-WEB-5-42-UEXT-full\Microchip\TCPIP Stack\ETH97J60.c
                      len   0x000c31       data     static F:\PIC-web\c18\PIC-WEB-5-42-UEXT-full\Microchip\TCPIP Stack\HTTP2.c
                      len   0x0009ae       data     static F:\PIC-web\c18\PIC-WEB-5-42-UEXT-full\Microchip\TCPIP Stack\UART.c
                      len   0x0005b9       data     static F:\PIC-web\c18\PIC-WEB-5-42-UEXT-full\Microchip\TCPIP Stack\Hashes.c
                      len   0x000c31       data     static F:\PIC-web\c18\PIC-WEB-5-42-UEXT-full\Microchip\TCPIP Stack\HTTP2.c
                      len   0x0005b2       data     static F:\PIC-web\c18\PIC-WEB-5-42-UEXT-full\Microchip\TCPIP Stack\Hashes.c
                      len   0x000779       data     static F:\PIC-web\c18\PIC-WEB-5-42-UEXT-full\Microchip\TCPIP Stack\BerkeleyAPI.c
                      len   0x000c02       data     static F:\PIC-web\c18\PIC-WEB-5-42-UEXT-full\Microchip\TCPIP Stack\HTTP2.c
                      len   0x000780       data     static F:\PIC-web\c18\PIC-WEB-5-42-UEXT-full\Microchip\TCPIP Stack\BerkeleyAPI.c
                      len   0x00097f       data     static F:\PIC-web\c18\PIC-WEB-5-42-UEXT-full\Microchip\TCPIP Stack\IP.c
                      len   0x000984       data     static F:\PIC-web\c18\PIC-WEB-5-42-UEXT-full\Microchip\TCPIP Stack\IP.c
                      len   0x000954       data     static F:\PIC-web\c18\PIC-WEB-5-42-UEXT-full\Microchip\TCPIP Stack\ICMP.c
                      len   0x0003b7       data     static F:\PIC-web\c18\PIC-WEB-5-42-UEXT-full\Microchip\TCPIP Stack\TCP.c
                      len   0x00076a       data     static F:\PIC-web\c18\PIC-WEB-5-42-UEXT-full\Microchip\TCPIP Stack\BerkeleyAPI.c
                      len   0x000ca8       data     static F:\PIC-web\c18\PIC-WEB-5-42-UEXT-full\Microchip\TCPIP Stack\TCP.c
                     lenA   0x000c31       data     static F:\PIC-web\c18\PIC-WEB-5-42-UEXT-full\TCPIP\Demo App\CustomHTTPApp.c
                     lenA   0x000c41       data     static F:\PIC-web\c18\PIC-WEB-5-42-UEXT-full\Microchip\TCPIP Stack\HTTP2.c
                     lenA   0x000c31       data     static F:\PIC-web\c18\PIC-WEB-5-42-UEXT-full\Microchip\TCPIP Stack\HTTP2.c
                     lenA   0x000cc8       data     static F:\PIC-web\c18\PIC-WEB-5-42-UEXT-full\Microchip\TCPIP Stack\HTTP2.c
                     lenB   0x000c33       data     static F:\PIC-web\c18\PIC-WEB-5-42-UEXT-full\Microchip\TCPIP Stack\HTTP2.c
                     lenB   0x000cca       data     static F:\PIC-web\c18\PIC-WEB-5-42-UEXT-full\Microchip\TCPIP Stack\HTTP2.c
                     lenB   0x000c33       data     static F:\PIC-web\c18\PIC-WEB-5-42-UEXT-full\TCPIP\Demo App\CustomHTTPApp.c
                     lenB   0x000c43       data     static F:\PIC-web\c18\PIC-WEB-5-42-UEXT-full\Microchip\TCPIP Stack\HTTP2.c
                   length   0x0007fa       data     static F:\PIC-web\c18\PIC-WEB-5-42-UEXT-full\TCPIP\Demo App\Olimex_Demo_Files\Custom_SPI_Low.c
                   length   0x000896       data     static F:\PIC-web\c18\PIC-WEB-5-42-UEXT-full\Microchip\TCPIP Stack\SPIFlash.c
                   length   0x000c31       data     static F:\PIC-web\c18\PIC-WEB-5-42-UEXT-full\TCPIP\Demo App\BerkeleyTCPServerDemo.c
                    local   0x000c45       data     static F:\PIC-web\c18\PIC-WEB-5-42-UEXT-full\Microchip\TCPIP Stack\BerkeleyAPI.c
           localAckNumber   0x000c34       data     static F:\PIC-web\c18\PIC-WEB-5-42-UEXT-full\Microchip\TCPIP Stack\TCP.c
         localHeaderFlags   0x000c33       data     static F:\PIC-web\c18\PIC-WEB-5-42-UEXT-full\Microchip\TCPIP Stack\TCP.c
                  localIP   0x000979       data     static F:\PIC-web\c18\PIC-WEB-5-42-UEXT-full\Microchip\TCPIP Stack\IP.c
                  localIP   0x0002f4       data     static F:\PIC-web\c18\PIC-WEB-5-42-UEXT-full\Microchip\TCPIP Stack\UDP.c
                  localIP   0x0002ec       data     static F:\PIC-web\c18\PIC-WEB-5-42-UEXT-full\Microchip\TCPIP Stack\UDP.c
                  localIP   0x0003a9       data     static F:\PIC-web\c18\PIC-WEB-5-42-UEXT-full\Microchip\TCPIP Stack\TCP.c
                localPort   0x0002c7       data     static F:\PIC-web\c18\PIC-WEB-5-42-UEXT-full\Microchip\TCPIP Stack\UDP.c
                localPort   0x000c17       data     static F:\PIC-web\c18\PIC-WEB-5-42-UEXT-full\Microchip\TCPIP Stack\BerkeleyAPI.c
           localSeqNumber   0x000c38       data     static F:\PIC-web\c18\PIC-WEB-5-42-UEXT-full\Microchip\TCPIP Stack\TCP.c
               local_addr   0x000c57       data     static F:\PIC-web\c18\PIC-WEB-5-42-UEXT-full\Microchip\TCPIP Stack\BerkeleyAPI.c
                  lpStart   0x000c00       data     static F:\PIC-web\c18\PIC-WEB-5-42-UEXT-full\Microchip\TCPIP Stack\SMTP.c
                  lpStart   0x000c00       data     static F:\PIC-web\c18\PIC-WEB-5-42-UEXT-full\Microchip\TCPIP Stack\SMTP.c
                  macAddr   0x0004f3       data     static F:\PIC-web\c18\PIC-WEB-5-42-UEXT-full\Microchip\TCPIP Stack\DHCPs.c
                  macAddr   0x0004f7       data     static F:\PIC-web\c18\PIC-WEB-5-42-UEXT-full\Microchip\TCPIP Stack\DHCPs.c
                 macAddr1   0x0004ef       data     static F:\PIC-web\c18\PIC-WEB-5-42-UEXT-full\Microchip\TCPIP Stack\DHCPs.c
                 macAddr2   0x0004f1       data     static F:\PIC-web\c18\PIC-WEB-5-42-UEXT-full\Microchip\TCPIP Stack\DHCPs.c
                      md5   0x000e06       data     static F:\PIC-web\c18\PIC-WEB-5-42-UEXT-full\TCPIP\Demo App\CustomHTTPApp.c
              messageType   0x0003fe       data     static F:\PIC-web\c18\PIC-WEB-5-42-UEXT-full\Microchip\TCPIP Stack\DHCP.c
                 nStrings   0x0006e6       data     static F:\PIC-web\c18\PIC-WEB-5-42-UEXT-full\Microchip\TCPIP Stack\Helpers.c
                     name   0x000788       data     static F:\PIC-web\c18\PIC-WEB-5-42-UEXT-full\Microchip\TCPIP Stack\BerkeleyAPI.c
                     name   0x00075c       data     static F:\PIC-web\c18\PIC-WEB-5-42-UEXT-full\Microchip\TCPIP Stack\BerkeleyAPI.c
                     name   0x00074f       data     static F:\PIC-web\c18\PIC-WEB-5-42-UEXT-full\Microchip\TCPIP Stack\BerkeleyAPI.c
                 nameHash   0x000c01       data     static F:\PIC-web\c18\PIC-WEB-5-42-UEXT-full\Microchip\TCPIP Stack\MPFS2.c
                 nameHash   0x000c46       data     static F:\PIC-web\c18\PIC-WEB-5-42-UEXT-full\Microchip\TCPIP Stack\MPFS2.c
                  namelen   0x000751       data     static F:\PIC-web\c18\PIC-WEB-5-42-UEXT-full\Microchip\TCPIP Stack\BerkeleyAPI.c
                  namelen   0x00078a       data     static F:\PIC-web\c18\PIC-WEB-5-42-UEXT-full\Microchip\TCPIP Stack\BerkeleyAPI.c
                  namelen   0x00075e       data     static F:\PIC-web\c18\PIC-WEB-5-42-UEXT-full\Microchip\TCPIP Stack\BerkeleyAPI.c
             newAppConfig   0x000c00       data     static F:\PIC-web\c18\PIC-WEB-5-42-UEXT-full\TCPIP\Demo App\CustomHTTPApp.c
                      num   0x000e6f       data     static F:\PIC-web\c18\PIC-WEB-5-42-UEXT-full\TCPIP\Demo App\CustomHTTPApp.c
                      num   0x000e71       data     static F:\PIC-web\c18\PIC-WEB-5-42-UEXT-full\TCPIP\Demo App\CustomHTTPApp.c
                      num   0x000e67       data     static F:\PIC-web\c18\PIC-WEB-5-42-UEXT-full\TCPIP\Demo App\CustomHTTPApp.c
                      num   0x000e65       data     static F:\PIC-web\c18\PIC-WEB-5-42-UEXT-full\TCPIP\Demo App\CustomHTTPApp.c
                      num   0x000e63       data     static F:\PIC-web\c18\PIC-WEB-5-42-UEXT-full\TCPIP\Demo App\CustomHTTPApp.c
                 numBytes   0x000c00       data     static F:\PIC-web\c18\PIC-WEB-5-42-UEXT-full\Microchip\TCPIP Stack\HTTP2.c
                 numFiles   0x0000c9       data     static F:\PIC-web\c18\PIC-WEB-5-42-UEXT-full\Microchip\TCPIP Stack\MPFS2.c
                   offset   0x0008bf       data     static F:\PIC-web\c18\PIC-WEB-5-42-UEXT-full\Microchip\TCPIP Stack\ETH97J60.c
                   offset   0x0008c5       data     static F:\PIC-web\c18\PIC-WEB-5-42-UEXT-full\Microchip\TCPIP Stack\ETH97J60.c
                   oldPtr   0x000c00       data     static F:\PIC-web\c18\PIC-WEB-5-42-UEXT-full\Microchip\TCPIP Stack\HTTP2.c
                   oldPtr   0x000c00       data     static F:\PIC-web\c18\PIC-WEB-5-42-UEXT-full\Microchip\TCPIP Stack\HTTP2.c
                   oldVal   0x000caa       data     static F:\PIC-web\c18\PIC-WEB-5-42-UEXT-full\Microchip\TCPIP Stack\ETH97J60.c
                   oldVal   0x000caa       data     static F:\PIC-web\c18\PIC-WEB-5-42-UEXT-full\Microchip\TCPIP Stack\ETH97J60.c
                     once   0x000b23       data     static F:\PIC-web\c18\PIC-WEB-5-42-UEXT-full\Microchip\TCPIP Stack\StackTsk.c
                   op_req   0x0005ea       data     static F:\PIC-web\c18\PIC-WEB-5-42-UEXT-full\Microchip\TCPIP Stack\ARP.c
                  options   0x000c98       data     static F:\PIC-web\c18\PIC-WEB-5-42-UEXT-full\Microchip\TCPIP Stack\TCP.c
              optionsSize   0x000c24       data     static F:\PIC-web\c18\PIC-WEB-5-42-UEXT-full\Microchip\TCPIP Stack\TCP.c
                        p   0x000c5d       data     static F:\PIC-web\c18\PIC-WEB-5-42-UEXT-full\Microchip\TCPIP Stack\UDP.c
                        p   0x000c1b       data     static F:\PIC-web\c18\PIC-WEB-5-42-UEXT-full\Microchip\TCPIP Stack\UDP.c
                        p   0x000c5c       data     static F:\PIC-web\c18\PIC-WEB-5-42-UEXT-full\Microchip\TCPIP Stack\UDP.c
                        p   0x0005fd       data     static F:\PIC-web\c18\PIC-WEB-5-42-UEXT-full\Microchip\TCPIP Stack\ARP.c
              pListenSock   0x000c35       data     static F:\PIC-web\c18\PIC-WEB-5-42-UEXT-full\Microchip\TCPIP Stack\BerkeleyAPI.c
                    pRead   0x000c39       data     static F:\PIC-web\c18\PIC-WEB-5-42-UEXT-full\Microchip\TCPIP Stack\HTTP2.c
                   pWrite   0x000c3b       data     static F:\PIC-web\c18\PIC-WEB-5-42-UEXT-full\Microchip\TCPIP Stack\HTTP2.c
                   packet   0x000c55       data     static F:\PIC-web\c18\PIC-WEB-5-42-UEXT-full\Microchip\TCPIP Stack\ARP.c
                   packet   0x000c00       data     static F:\PIC-web\c18\PIC-WEB-5-42-UEXT-full\Microchip\TCPIP Stack\ARP.c
                   packet   0x0005eb       data     static F:\PIC-web\c18\PIC-WEB-5-42-UEXT-full\Microchip\TCPIP Stack\ARP.c
                   packet   0x000c00       data     static F:\PIC-web\c18\PIC-WEB-5-42-UEXT-full\Microchip\TCPIP Stack\ARP.c
                     page   0x000cab       data     static F:\PIC-web\c18\PIC-WEB-5-42-UEXT-full\Microchip\TCPIP Stack\SPIFlash.c
                     page   0x000cad       data     static F:\PIC-web\c18\PIC-WEB-5-42-UEXT-full\Microchip\TCPIP Stack\SPIFlash.c
                     page   0x000cab       data     static F:\PIC-web\c18\PIC-WEB-5-42-UEXT-full\Microchip\TCPIP Stack\SPIFlash.c
                  partPtr   0x000c2b       data     static F:\PIC-web\c18\PIC-WEB-5-42-UEXT-full\Microchip\TCPIP Stack\Hashes.c
             partialMatch   0x000c26       data     static F:\PIC-web\c18\PIC-WEB-5-42-UEXT-full\Microchip\TCPIP Stack\TCP.c
             partialMatch   0x000c1a       data     static F:\PIC-web\c18\PIC-WEB-5-42-UEXT-full\Microchip\TCPIP Stack\UDP.c
                      pkt   0x000c00       data     static F:\PIC-web\c18\PIC-WEB-5-42-UEXT-full\TCPIP\Demo App\BerkeleyUDPClientDemo.c
                      pkt   0x000c00       data     static F:\PIC-web\c18\PIC-WEB-5-42-UEXT-full\Microchip\TCPIP Stack\SNTP.c
                     prom   0x0002f6       data     static E:\3.46\pic18-lt\cxx-framework\src\traditional\startup\c018i.c
                 protocol   0x00074c       data     static F:\PIC-web\c18\PIC-WEB-5-42-UEXT-full\Microchip\TCPIP Stack\BerkeleyAPI.c
                 protocol   0x00097d       data     static F:\PIC-web\c18\PIC-WEB-5-42-UEXT-full\Microchip\TCPIP Stack\IP.c
                 protocol   0x000983       data     static F:\PIC-web\c18\PIC-WEB-5-42-UEXT-full\Microchip\TCPIP Stack\IP.c
                       ps   0x000c35       data     static F:\PIC-web\c18\PIC-WEB-5-42-UEXT-full\Microchip\TCPIP Stack\BerkeleyAPI.c
             pseudoHeader   0x000c9c       data     static F:\PIC-web\c18\PIC-WEB-5-42-UEXT-full\Microchip\TCPIP Stack\TCP.c
             pseudoHeader   0x000c14       data     static F:\PIC-web\c18\PIC-WEB-5-42-UEXT-full\Microchip\TCPIP Stack\TCP.c
             pseudoHeader   0x000c09       data     static F:\PIC-web\c18\PIC-WEB-5-42-UEXT-full\Microchip\TCPIP Stack\UDP.c
             pseudoHeader   0x000c61       data     static F:\PIC-web\c18\PIC-WEB-5-42-UEXT-full\Microchip\TCPIP Stack\UDP.c
                      ptr   0x000c00       data     static F:\PIC-web\c18\PIC-WEB-5-42-UEXT-full\TCPIP\Demo App\CustomHTTPApp.c
                      ptr   0x000c00       data     static F:\PIC-web\c18\PIC-WEB-5-42-UEXT-full\TCPIP\Demo App\CustomHTTPApp.c
                      ptr   0x000c33       data     static F:\PIC-web\c18\PIC-WEB-5-42-UEXT-full\TCPIP\Demo App\CustomHTTPApp.c
                      ptr   0x000c00       data     static F:\PIC-web\c18\PIC-WEB-5-42-UEXT-full\TCPIP\Demo App\CustomHTTPApp.c
                      ptr   0x000c15       data     static F:\PIC-web\c18\PIC-WEB-5-42-UEXT-full\Microchip\TCPIP Stack\MPFS2.c
                      ptr   0x000c5a       data     static F:\PIC-web\c18\PIC-WEB-5-42-UEXT-full\Microchip\TCPIP Stack\MPFS2.c
             ptrAppConfig   0x0007cf       data     static F:\PIC-web\c18\PIC-WEB-5-42-UEXT-full\TCPIP\Demo App\MainDemo.c
           ptrBaseAddress   0x000c1a       data     static F:\PIC-web\c18\PIC-WEB-5-42-UEXT-full\Microchip\TCPIP Stack\TCP.c
                   ptrBuf   0x000c5b       data     static F:\PIC-web\c18\PIC-WEB-5-42-UEXT-full\Microchip\TCPIP Stack\HTTP2.c
                  ptrData   0x000e5f       data     static F:\PIC-web\c18\PIC-WEB-5-42-UEXT-full\TCPIP\Demo App\CustomHTTPApp.c
                  ptrDest   0x0003bf       data     static F:\PIC-web\c18\PIC-WEB-5-42-UEXT-full\Microchip\TCPIP Stack\TCP.c
                  ptrHead   0x000c02       data     static F:\PIC-web\c18\PIC-WEB-5-42-UEXT-full\Microchip\TCPIP Stack\TCP.c
              ptrLocation   0x000c3f       data     static F:\PIC-web\c18\PIC-WEB-5-42-UEXT-full\Microchip\TCPIP Stack\TCP.c
              ptrLocation   0x000c06       data     static F:\PIC-web\c18\PIC-WEB-5-42-UEXT-full\Microchip\TCPIP Stack\TCP.c
                  ptrRead   0x000c00       data     static F:\PIC-web\c18\PIC-WEB-5-42-UEXT-full\Microchip\TCPIP Stack\TCP.c
                  ptrRead   0x000c39       data     static F:\PIC-web\c18\PIC-WEB-5-42-UEXT-full\Microchip\TCPIP Stack\TCP.c
                  ptrRead   0x000c00       data     static F:\PIC-web\c18\PIC-WEB-5-42-UEXT-full\Microchip\TCPIP Stack\TCP.c
                ptrSource   0x0003c2       data     static F:\PIC-web\c18\PIC-WEB-5-42-UEXT-full\Microchip\TCPIP Stack\TCP.c
                  ptrTemp   0x000c00       data     static F:\PIC-web\c18\PIC-WEB-5-42-UEXT-full\Microchip\TCPIP Stack\TCP.c
                       qw   0x000c10       data     static F:\PIC-web\c18\PIC-WEB-5-42-UEXT-full\Microchip\TCPIP Stack\TCPPerformanceTest.c
                       qw   0x000c14       data     static F:\PIC-web\c18\PIC-WEB-5-42-UEXT-full\Microchip\TCPIP Stack\TCPPerformanceTest.c
                        r   0x000c0c       data     static F:\PIC-web\c18\PIC-WEB-5-42-UEXT-full\TCPIP\Demo App\CustomHTTPApp.c
             randomResult   0x000c0b       data     static F:\PIC-web\c18\PIC-WEB-5-42-UEXT-full\Microchip\TCPIP Stack\Helpers.c
                    rdptr   0x0007f8       data     static F:\PIC-web\c18\PIC-WEB-5-42-UEXT-full\TCPIP\Demo App\Olimex_Demo_Files\Custom_SPI_Low.c
               recvBuffer   0x000c00       data     static F:\PIC-web\c18\PIC-WEB-5-42-UEXT-full\TCPIP\Demo App\BerkeleyTCPClientDemo.c
                      rem   0x000c02       data     static F:\PIC-web\c18\PIC-WEB-5-42-UEXT-full\TCPIP\Demo App\CustomHTTPApp.c
                 rem_addr   0x000c36       data     static F:\PIC-web\c18\PIC-WEB-5-42-UEXT-full\Microchip\TCPIP Stack\BerkeleyAPI.c
                   remote   0x0008b6       data     static F:\PIC-web\c18\PIC-WEB-5-42-UEXT-full\Microchip\TCPIP Stack\ETH97J60.c
                   remote   0x0008ba       data     static F:\PIC-web\c18\PIC-WEB-5-42-UEXT-full\Microchip\TCPIP Stack\ETH97J60.c
                   remote   0x0003a7       data     static F:\PIC-web\c18\PIC-WEB-5-42-UEXT-full\Microchip\TCPIP Stack\TCP.c
                   remote   0x000952       data     static F:\PIC-web\c18\PIC-WEB-5-42-UEXT-full\Microchip\TCPIP Stack\ICMP.c
                   remote   0x00097b       data     static F:\PIC-web\c18\PIC-WEB-5-42-UEXT-full\Microchip\TCPIP Stack\IP.c
                   remote   0x000981       data     static F:\PIC-web\c18\PIC-WEB-5-42-UEXT-full\Microchip\TCPIP Stack\IP.c
                   remote   0x0003b1       data     static F:\PIC-web\c18\PIC-WEB-5-42-UEXT-full\Microchip\TCPIP Stack\TCP.c
               remoteHost   0x0002c2       data     static F:\PIC-web\c18\PIC-WEB-5-42-UEXT-full\Microchip\TCPIP Stack\UDP.c
           remoteHostType   0x0002c6       data     static F:\PIC-web\c18\PIC-WEB-5-42-UEXT-full\Microchip\TCPIP Stack\UDP.c
                 remoteIP   0x000c11       data     static F:\PIC-web\c18\PIC-WEB-5-42-UEXT-full\Microchip\TCPIP Stack\BerkeleyAPI.c
               remoteInfo   0x000c39       data     static F:\PIC-web\c18\PIC-WEB-5-42-UEXT-full\Microchip\TCPIP Stack\BerkeleyAPI.c
               remoteNode   0x0002ea       data     static F:\PIC-web\c18\PIC-WEB-5-42-UEXT-full\Microchip\TCPIP Stack\UDP.c
               remoteNode   0x000e76       data     extern F:\PIC-web\c18\PIC-WEB-5-42-UEXT-full\Microchip\TCPIP Stack\StackTsk.c
               remoteNode   0x0002f2       data     static F:\PIC-web\c18\PIC-WEB-5-42-UEXT-full\Microchip\TCPIP Stack\UDP.c
               remotePort   0x0002c9       data     static F:\PIC-web\c18\PIC-WEB-5-42-UEXT-full\Microchip\TCPIP Stack\UDP.c
               remotePort   0x000c15       data     static F:\PIC-web\c18\PIC-WEB-5-42-UEXT-full\Microchip\TCPIP Stack\BerkeleyAPI.c
           remoteSockInfo   0x000c38       data     static F:\PIC-web\c18\PIC-WEB-5-42-UEXT-full\Microchip\TCPIP Stack\BerkeleyAPI.c
           remoteSockInfo   0x000c37       data     static F:\PIC-web\c18\PIC-WEB-5-42-UEXT-full\Microchip\TCPIP Stack\BerkeleyAPI.c
                 response   0x000c8e       data     static F:\PIC-web\c18\PIC-WEB-5-42-UEXT-full\TCPIP\Demo App\UARTConfig.c
                   result   0x000cad       data     static F:\PIC-web\c18\PIC-WEB-5-42-UEXT-full\Microchip\TCPIP Stack\SPIFlash.c
                   result   0x000c0c       data     static F:\PIC-web\c18\PIC-WEB-5-42-UEXT-full\Microchip\TCPIP Stack\SMTP.c
                   result   0x000c0c       data     static F:\PIC-web\c18\PIC-WEB-5-42-UEXT-full\Microchip\TCPIP Stack\SMTP.c
                   result   0x000c00       data     static F:\PIC-web\c18\PIC-WEB-5-42-UEXT-full\Microchip\TCPIP Stack\SMTP.c
                   result   0x000c00       data     static F:\PIC-web\c18\PIC-WEB-5-42-UEXT-full\Microchip\TCPIP Stack\SMTP.c
                   result   0x0005d6       data     static F:\PIC-web\c18\PIC-WEB-5-42-UEXT-full\Microchip\TCPIP Stack\Hashes.c
                      ret   0x000c0a       data     static F:\PIC-web\c18\PIC-WEB-5-42-UEXT-full\TCPIP\Demo App\PingDemo.c
                        s   0x000c37       data     static F:\PIC-web\c18\PIC-WEB-5-42-UEXT-full\Microchip\TCPIP Stack\BerkeleyAPI.c
                        s   0x000c00       data     static F:\PIC-web\c18\PIC-WEB-5-42-UEXT-full\Microchip\TCPIP Stack\BerkeleyAPI.c
                        s   0x000756       data     static F:\PIC-web\c18\PIC-WEB-5-42-UEXT-full\Microchip\TCPIP Stack\BerkeleyAPI.c
                        s   0x000753       data     static F:\PIC-web\c18\PIC-WEB-5-42-UEXT-full\Microchip\TCPIP Stack\BerkeleyAPI.c
                        s   0x00074e       data     static F:\PIC-web\c18\PIC-WEB-5-42-UEXT-full\Microchip\TCPIP Stack\BerkeleyAPI.c
                        s   0x000c00       data     static F:\PIC-web\c18\PIC-WEB-5-42-UEXT-full\Microchip\TCPIP Stack\UDP.c
                        s   0x00077d       data     static F:\PIC-web\c18\PIC-WEB-5-42-UEXT-full\Microchip\TCPIP Stack\BerkeleyAPI.c
                        s   0x00078c       data     static F:\PIC-web\c18\PIC-WEB-5-42-UEXT-full\Microchip\TCPIP Stack\BerkeleyAPI.c
                        s   0x00078d       data     static F:\PIC-web\c18\PIC-WEB-5-42-UEXT-full\Microchip\TCPIP Stack\BerkeleyAPI.c
                        s   0x000776       data     static F:\PIC-web\c18\PIC-WEB-5-42-UEXT-full\Microchip\TCPIP Stack\BerkeleyAPI.c
                        s   0x000c19       data     static F:\PIC-web\c18\PIC-WEB-5-42-UEXT-full\Microchip\TCPIP Stack\UDP.c
                        s   0x000767       data     static F:\PIC-web\c18\PIC-WEB-5-42-UEXT-full\Microchip\TCPIP Stack\BerkeleyAPI.c
                        s   0x000c08       data     static F:\PIC-web\c18\PIC-WEB-5-42-UEXT-full\Microchip\TCPIP Stack\UDP.c
                        s   0x0002e3       data     static F:\PIC-web\c18\PIC-WEB-5-42-UEXT-full\Microchip\TCPIP Stack\UDP.c
                        s   0x000760       data     static F:\PIC-web\c18\PIC-WEB-5-42-UEXT-full\Microchip\TCPIP Stack\BerkeleyAPI.c
                        s   0x0002d3       data     static F:\PIC-web\c18\PIC-WEB-5-42-UEXT-full\Microchip\TCPIP Stack\UDP.c
                        s   0x00075b       data     static F:\PIC-web\c18\PIC-WEB-5-42-UEXT-full\Microchip\TCPIP Stack\BerkeleyAPI.c
                        s   0x0002ce       data     static F:\PIC-web\c18\PIC-WEB-5-42-UEXT-full\Microchip\TCPIP Stack\UDP.c
                        s   0x000c5b       data     static F:\PIC-web\c18\PIC-WEB-5-42-UEXT-full\Microchip\TCPIP Stack\UDP.c
             searchString   0x0006dd       data     static F:\PIC-web\c18\PIC-WEB-5-42-UEXT-full\Microchip\TCPIP Stack\Helpers.c
                     seed   0x000872       data     static F:\PIC-web\c18\PIC-WEB-5-42-UEXT-full\Microchip\TCPIP Stack\AutoIP.c
              sendRequest   0x000500       data     static F:\PIC-web\c18\PIC-WEB-5-42-UEXT-full\TCPIP\Demo App\BerkeleyTCPClientDemo.c
                     size   0x000c37       data     static F:\PIC-web\c18\PIC-WEB-5-42-UEXT-full\Microchip\TCPIP Stack\BerkeleyAPI.c
                    smARP   0x000b35       data     static F:\PIC-web\c18\PIC-WEB-5-42-UEXT-full\Microchip\TCPIP Stack\ARP.c
             smDHCPServer   0x0009ea       data     static F:\PIC-web\c18\PIC-WEB-5-42-UEXT-full\Microchip\TCPIP Stack\DHCPs.c
                    smDNS   0x000b16       data     static F:\PIC-web\c18\PIC-WEB-5-42-UEXT-full\Microchip\TCPIP Stack\DNS.c
                   smNBNS   0x000b2e       data     static F:\PIC-web\c18\PIC-WEB-5-42-UEXT-full\Microchip\TCPIP Stack\NBNS.c
                  smStack   0x000e75       data     static F:\PIC-web\c18\PIC-WEB-5-42-UEXT-full\Microchip\TCPIP Stack\StackTsk.c
                smp_phase   0x0007ff       data     static F:\PIC-web\c18\PIC-WEB-5-42-UEXT-full\TCPIP\Demo App\Olimex_Demo_Files\Custom_SPI_Low.c
                sockCount   0x000c3b       data     static F:\PIC-web\c18\PIC-WEB-5-42-UEXT-full\Microchip\TCPIP Stack\BerkeleyAPI.c
                   socket   0x000c0d       data     static F:\PIC-web\c18\PIC-WEB-5-42-UEXT-full\Microchip\TCPIP Stack\BerkeleyAPI.c
                   socket   0x0002cd       data     static F:\PIC-web\c18\PIC-WEB-5-42-UEXT-full\Microchip\TCPIP Stack\UDP.c
                   socket   0x000c55       data     static F:\PIC-web\c18\PIC-WEB-5-42-UEXT-full\Microchip\TCPIP Stack\BerkeleyAPI.c
                   socket   0x000c35       data     static F:\PIC-web\c18\PIC-WEB-5-42-UEXT-full\Microchip\TCPIP Stack\BerkeleyAPI.c
                   socket   0x000c35       data     static F:\PIC-web\c18\PIC-WEB-5-42-UEXT-full\Microchip\TCPIP Stack\BerkeleyAPI.c
                   socket   0x000c02       data     static F:\PIC-web\c18\PIC-WEB-5-42-UEXT-full\Microchip\TCPIP Stack\BerkeleyAPI.c
                   socket   0x000c3a       data     static F:\PIC-web\c18\PIC-WEB-5-42-UEXT-full\Microchip\TCPIP Stack\BerkeleyAPI.c
                   socket   0x000c34       data     static F:\PIC-web\c18\PIC-WEB-5-42-UEXT-full\Microchip\TCPIP Stack\BerkeleyAPI.c
                   socket   0x000c55       data     static F:\PIC-web\c18\PIC-WEB-5-42-UEXT-full\Microchip\TCPIP Stack\BerkeleyAPI.c
                   socket   0x000c36       data     static F:\PIC-web\c18\PIC-WEB-5-42-UEXT-full\Microchip\TCPIP Stack\BerkeleyAPI.c
              socketcount   0x000c38       data     static F:\PIC-web\c18\PIC-WEB-5-42-UEXT-full\Microchip\TCPIP Stack\BerkeleyAPI.c
               sourceAddr   0x0008cd       data     static F:\PIC-web\c18\PIC-WEB-5-42-UEXT-full\Microchip\TCPIP Stack\ETH97J60.c
                       ss   0x000c00       data     static F:\PIC-web\c18\PIC-WEB-5-42-UEXT-full\Microchip\TCPIP Stack\UDP.c
                startTick   0x000772       data     static F:\PIC-web\c18\PIC-WEB-5-42-UEXT-full\Microchip\TCPIP Stack\BerkeleyAPI.c
                    state   0x000c00       data     static F:\PIC-web\c18\PIC-WEB-5-42-UEXT-full\TCPIP\Demo App\UARTConfig.c
                    state   0x000e69       data     static F:\PIC-web\c18\PIC-WEB-5-42-UEXT-full\TCPIP\Demo App\CustomHTTPApp.c
                   status   0x000c80       data     static F:\PIC-web\c18\PIC-WEB-5-42-UEXT-full\Microchip\TCPIP Stack\HTTP2.c
                   status   0x000c7d       data     static F:\PIC-web\c18\PIC-WEB-5-42-UEXT-full\Microchip\TCPIP Stack\HTTP2.c
                   status   0x000c80       data     static F:\PIC-web\c18\PIC-WEB-5-42-UEXT-full\Microchip\TCPIP Stack\HTTP2.c
                      str   0x000c02       data     static F:\PIC-web\c18\PIC-WEB-5-42-UEXT-full\Microchip\TCPIP Stack\Helpers.c
                      str   0x0006a2       data     static F:\PIC-web\c18\PIC-WEB-5-42-UEXT-full\Microchip\TCPIP Stack\Helpers.c
                      str   0x0006a6       data     static F:\PIC-web\c18\PIC-WEB-5-42-UEXT-full\Microchip\TCPIP Stack\Helpers.c
                      str   0x000f4e       data     static F:\PIC-web\c18\PIC-WEB-5-42-UEXT-full\Microchip\TCPIP Stack\SMTP.c
                      str   0x000f52       data     static F:\PIC-web\c18\PIC-WEB-5-42-UEXT-full\Microchip\TCPIP Stack\SMTP.c
                  strData   0x0002e0       data     static F:\PIC-web\c18\PIC-WEB-5-42-UEXT-full\Microchip\TCPIP Stack\UDP.c
                  strData   0x0002de       data     static F:\PIC-web\c18\PIC-WEB-5-42-UEXT-full\Microchip\TCPIP Stack\UDP.c
                      sum   0x000cc2       data     static F:\PIC-web\c18\PIC-WEB-5-42-UEXT-full\Microchip\TCPIP Stack\Helpers.c
                sync_mode   0x0007fd       data     static F:\PIC-web\c18\PIC-WEB-5-42-UEXT-full\TCPIP\Demo App\Olimex_Demo_Files\Custom_SPI_Low.c
                   szPort   0x000e61       data     static F:\PIC-web\c18\PIC-WEB-5-42-UEXT-full\TCPIP\Demo App\CustomHTTPApp.c
             szRemoteHost   0x00095c       data     static F:\PIC-web\c18\PIC-WEB-5-42-UEXT-full\Microchip\TCPIP Stack\ICMP.c
             szRemoteHost   0x00095a       data     static F:\PIC-web\c18\PIC-WEB-5-42-UEXT-full\Microchip\TCPIP Stack\ICMP.c
                        t   0x000c30       data     static F:\PIC-web\c18\PIC-WEB-5-42-UEXT-full\Microchip\TCPIP Stack\Helpers.c
                        t   0x0009e0       data     static F:\PIC-web\c18\PIC-WEB-5-42-UEXT-full\TCPIP\Demo App\MainDemo.c
                        t   0x000cbe       data     static F:\PIC-web\c18\PIC-WEB-5-42-UEXT-full\Microchip\TCPIP Stack\Helpers.c
                    tMode   0x0000e3       data     static F:\PIC-web\c18\PIC-WEB-5-42-UEXT-full\Microchip\TCPIP Stack\MPFS2.c
              tblptru_sav   0x000b18       data     static E:\3.46\pic18-lt\cxx-framework\src\traditional\stdclib\mcpyp2r.asm
              tblptru_sav   0x000b17       data     static E:\3.46\pic18-lt\cxx-framework\src\traditional\stdclib\mcmpp2r.asm
                     temp   0x000c45       data     static F:\PIC-web\c18\PIC-WEB-5-42-UEXT-full\Microchip\TCPIP Stack\MPFS2.c
                     temp   0x000c16       data     static F:\PIC-web\c18\PIC-WEB-5-42-UEXT-full\Microchip\TCPIP Stack\ETH97J60.c
                     temp   0x000c00       data     static F:\PIC-web\c18\PIC-WEB-5-42-UEXT-full\TCPIP\Demo App\MainDemo.c
                     temp   0x000c14       data     static F:\PIC-web\c18\PIC-WEB-5-42-UEXT-full\Microchip\TCPIP Stack\Hashes.c
                 tempData   0x000c06       data     static F:\PIC-web\c18\PIC-WEB-5-42-UEXT-full\TCPIP\Demo App\UARTConfig.c
              tempIPValue   0x000ca2       data     static F:\PIC-web\c18\PIC-WEB-5-42-UEXT-full\TCPIP\Demo App\UARTConfig.c
              tempLocalIP   0x000c73       data     static F:\PIC-web\c18\PIC-WEB-5-42-UEXT-full\Microchip\TCPIP Stack\StackTsk.c
             tempServerID   0x000c05       data     static F:\PIC-web\c18\PIC-WEB-5-42-UEXT-full\Microchip\TCPIP Stack\DHCP.c
              temperature   0x000c08       data     static F:\PIC-web\c18\PIC-WEB-5-42-UEXT-full\TCPIP\Demo App\CustomHTTPApp.c
                   theSum   0x0005d4       data     static F:\PIC-web\c18\PIC-WEB-5-42-UEXT-full\Microchip\TCPIP Stack\Hashes.c
                   theSum   0x0005c3       data     static F:\PIC-web\c18\PIC-WEB-5-42-UEXT-full\Microchip\TCPIP Stack\Hashes.c
                   theSum   0x0005bd       data     static F:\PIC-web\c18\PIC-WEB-5-42-UEXT-full\Microchip\TCPIP Stack\Hashes.c
                   theSum   0x0005bb       data     static F:\PIC-web\c18\PIC-WEB-5-42-UEXT-full\Microchip\TCPIP Stack\Hashes.c
                   theSum   0x0005b4       data     static F:\PIC-web\c18\PIC-WEB-5-42-UEXT-full\Microchip\TCPIP Stack\Hashes.c
                   theSum   0x0005ae       data     static F:\PIC-web\c18\PIC-WEB-5-42-UEXT-full\Microchip\TCPIP Stack\Hashes.c
                      tmp   0x000c0a       data     static F:\PIC-web\c18\PIC-WEB-5-42-UEXT-full\TCPIP\Demo App\CustomHTTPApp.c
                tmpIpAddr   0x000c41       data     static F:\PIC-web\c18\PIC-WEB-5-42-UEXT-full\Microchip\TCPIP Stack\DHCPs.c
              tmp_MacAddr   0x000c3b       data     static F:\PIC-web\c18\PIC-WEB-5-42-UEXT-full\Microchip\TCPIP Stack\DHCPs.c
                   tmp_ip   0x000c2b       data     static F:\PIC-web\c18\PIC-WEB-5-42-UEXT-full\Microchip\TCPIP Stack\DHCPs.c
                       to   0x00076e       data     static F:\PIC-web\c18\PIC-WEB-5-42-UEXT-full\Microchip\TCPIP Stack\BerkeleyAPI.c
                 toRotate   0x0006d2       data     extern F:\PIC-web\c18\PIC-WEB-5-42-UEXT-full\Microchip\TCPIP Stack\Helpers.c
                    tolen   0x000770       data     static F:\PIC-web\c18\PIC-WEB-5-42-UEXT-full\Microchip\TCPIP Stack\BerkeleyAPI.c
                     type   0x0008b8       data     static F:\PIC-web\c18\PIC-WEB-5-42-UEXT-full\Microchip\TCPIP Stack\ETH97J60.c
                     type   0x00074a       data     static F:\PIC-web\c18\PIC-WEB-5-42-UEXT-full\Microchip\TCPIP Stack\BerkeleyAPI.c
                     type   0x000c03       data     static F:\PIC-web\c18\PIC-WEB-5-42-UEXT-full\Microchip\TCPIP Stack\DHCP.c
                     type   0x0008bc       data     static F:\PIC-web\c18\PIC-WEB-5-42-UEXT-full\Microchip\TCPIP Stack\ETH97J60.c
                  udpaddr   0x000968       data     static F:\PIC-web\c18\PIC-WEB-5-42-UEXT-full\TCPIP\Demo App\BerkeleyUDPClientDemo.c
                       ul   0x0000dc       data     static F:\PIC-web\c18\PIC-WEB-5-42-UEXT-full\Microchip\TCPIP Stack\MPFS2.c
                        v   0x0006ca       data     static F:\PIC-web\c18\PIC-WEB-5-42-UEXT-full\Microchip\TCPIP Stack\Helpers.c
                        v   0x0006c8       data     static F:\PIC-web\c18\PIC-WEB-5-42-UEXT-full\Microchip\TCPIP Stack\Helpers.c
                        v   0x0002e4       data     static F:\PIC-web\c18\PIC-WEB-5-42-UEXT-full\Microchip\TCPIP Stack\UDP.c
                        v   0x0002d4       data     static F:\PIC-web\c18\PIC-WEB-5-42-UEXT-full\Microchip\TCPIP Stack\UDP.c
                        v   0x000c00       data     static F:\PIC-web\c18\PIC-WEB-5-42-UEXT-full\Microchip\TCPIP Stack\DHCP.c
                        v   0x000c04       data     static F:\PIC-web\c18\PIC-WEB-5-42-UEXT-full\Microchip\TCPIP Stack\BerkeleyAPI.c
         vARPAttemptCount   0x0007f0       data     static F:\PIC-web\c18\PIC-WEB-5-42-UEXT-full\Microchip\TCPIP Stack\DNS.c
            vBase64Buffer   0x000c0b       data     static F:\PIC-web\c18\PIC-WEB-5-42-UEXT-full\Microchip\TCPIP Stack\SMTP.c
                vBitCount   0x000c00       data     static F:\PIC-web\c18\PIC-WEB-5-42-UEXT-full\Microchip\TCPIP Stack\Helpers.c
                  vBuffer   0x000c03       data     static F:\PIC-web\c18\PIC-WEB-5-42-UEXT-full\TCPIP\Demo App\GenericTCPClient.c
                  vBuffer   0x000c00       data     static F:\PIC-web\c18\PIC-WEB-5-42-UEXT-full\Microchip\TCPIP Stack\TCPPerformanceTest.c
                  vBuffer   0x000c00       data     static F:\PIC-web\c18\PIC-WEB-5-42-UEXT-full\Microchip\TCPIP Stack\TCPPerformanceTest.c
                  vBuffer   0x000c18       data     static F:\PIC-web\c18\PIC-WEB-5-42-UEXT-full\Microchip\TCPIP Stack\TCP.c
                  vBuffer   0x000382       data     static F:\PIC-web\c18\PIC-WEB-5-42-UEXT-full\Microchip\TCPIP Stack\TCP.c
              vByteNumber   0x000c01       data     static F:\PIC-web\c18\PIC-WEB-5-42-UEXT-full\Microchip\TCPIP Stack\Helpers.c
          vBytesPerSecond   0x00092d       data     static F:\PIC-web\c18\PIC-WEB-5-42-UEXT-full\Microchip\TCPIP Stack\TCPPerformanceTest.c
         vDNSAttemptCount   0x0007f1       data     static F:\PIC-web\c18\PIC-WEB-5-42-UEXT-full\Microchip\TCPIP Stack\DNS.c
                vDestType   0x0003c1       data     static F:\PIC-web\c18\PIC-WEB-5-42-UEXT-full\Microchip\TCPIP Stack\TCP.c
                   vFlags   0x000c03       data     static F:\PIC-web\c18\PIC-WEB-5-42-UEXT-full\Microchip\TCPIP Stack\TCP.c
                   vFlags   0x0003be       data     static F:\PIC-web\c18\PIC-WEB-5-42-UEXT-full\Microchip\TCPIP Stack\TCP.c
               vInterface   0x00086d       data     static F:\PIC-web\c18\PIC-WEB-5-42-UEXT-full\Microchip\TCPIP Stack\AutoIP.c
               vInterface   0x0003f8       data     static F:\PIC-web\c18\PIC-WEB-5-42-UEXT-full\Microchip\TCPIP Stack\DHCP.c
               vInterface   0x00086e       data     static F:\PIC-web\c18\PIC-WEB-5-42-UEXT-full\Microchip\TCPIP Stack\AutoIP.c
               vInterface   0x0003f7       data     static F:\PIC-web\c18\PIC-WEB-5-42-UEXT-full\Microchip\TCPIP Stack\DHCP.c
               vInterface   0x0003f9       data     static F:\PIC-web\c18\PIC-WEB-5-42-UEXT-full\Microchip\TCPIP Stack\DHCP.c
               vInterface   0x00086c       data     static F:\PIC-web\c18\PIC-WEB-5-42-UEXT-full\Microchip\TCPIP Stack\AutoIP.c
               vInterface   0x00086f       data     static F:\PIC-web\c18\PIC-WEB-5-42-UEXT-full\Microchip\TCPIP Stack\AutoIP.c
               vInterface   0x000870       data     static F:\PIC-web\c18\PIC-WEB-5-42-UEXT-full\Microchip\TCPIP Stack\AutoIP.c
               vInterface   0x000871       data     static F:\PIC-web\c18\PIC-WEB-5-42-UEXT-full\Microchip\TCPIP Stack\AutoIP.c
               vInterface   0x0003fa       data     static F:\PIC-web\c18\PIC-WEB-5-42-UEXT-full\Microchip\TCPIP Stack\DHCP.c
               vInterface   0x000876       data     static F:\PIC-web\c18\PIC-WEB-5-42-UEXT-full\Microchip\TCPIP Stack\AutoIP.c
               vInterface   0x000877       data     static F:\PIC-web\c18\PIC-WEB-5-42-UEXT-full\Microchip\TCPIP Stack\AutoIP.c
               vInterface   0x0003fb       data     static F:\PIC-web\c18\PIC-WEB-5-42-UEXT-full\Microchip\TCPIP Stack\DHCP.c
               vInterface   0x0003fc       data     static F:\PIC-web\c18\PIC-WEB-5-42-UEXT-full\Microchip\TCPIP Stack\DHCP.c
               vInterface   0x0003fd       data     static F:\PIC-web\c18\PIC-WEB-5-42-UEXT-full\Microchip\TCPIP Stack\DHCP.c
               vInterface   0x00086b       data     static F:\PIC-web\c18\PIC-WEB-5-42-UEXT-full\Microchip\TCPIP Stack\AutoIP.c
                  vMedium   0x000c1c       data     static F:\PIC-web\c18\PIC-WEB-5-42-UEXT-full\Microchip\TCPIP Stack\TCP.c
      vNeedToSaveDefaults   0x000c00       data     static F:\PIC-web\c18\PIC-WEB-5-42-UEXT-full\TCPIP\Demo App\MainDemo.c
                  vOption   0x000c42       data     static F:\PIC-web\c18\PIC-WEB-5-42-UEXT-full\Microchip\TCPIP Stack\TCP.c
            vOptionsBytes   0x000c41       data     static F:\PIC-web\c18\PIC-WEB-5-42-UEXT-full\Microchip\TCPIP Stack\TCP.c
                  vOutput   0x000c02       data     static F:\PIC-web\c18\PIC-WEB-5-42-UEXT-full\Microchip\TCPIP Stack\Helpers.c
          vRemoteHostType   0x00034a       data     static F:\PIC-web\c18\PIC-WEB-5-42-UEXT-full\Microchip\TCPIP Stack\TCP.c
               vSendFlags   0x0003ae       data     static F:\PIC-web\c18\PIC-WEB-5-42-UEXT-full\Microchip\TCPIP Stack\TCP.c
           vSocketPurpose   0x00034d       data     static F:\PIC-web\c18\PIC-WEB-5-42-UEXT-full\Microchip\TCPIP Stack\TCP.c
        vSocketsAllocated   0x000c15       data     static F:\PIC-web\c18\PIC-WEB-5-42-UEXT-full\Microchip\TCPIP Stack\TCP.c
              vSourceType   0x0003c4       data     static F:\PIC-web\c18\PIC-WEB-5-42-UEXT-full\Microchip\TCPIP Stack\TCP.c
                vTCPFlags   0x0003ad       data     static F:\PIC-web\c18\PIC-WEB-5-42-UEXT-full\Microchip\TCPIP Stack\TCP.c
           vTelnetSession   0x000c6a       data     static F:\PIC-web\c18\PIC-WEB-5-42-UEXT-full\Microchip\TCPIP Stack\Telnet.c
            vTelnetStates   0x0000fb       data     static F:\PIC-web\c18\PIC-WEB-5-42-UEXT-full\Microchip\TCPIP Stack\Telnet.c
             vTickReading   0x0009c0       data     static F:\PIC-web\c18\PIC-WEB-5-42-UEXT-full\Microchip\TCPIP Stack\Tick.c
                    vTime   0x000c71       data     static F:\PIC-web\c18\PIC-WEB-5-42-UEXT-full\Microchip\TCPIP Stack\Telnet.c
              vUARTRXFIFO   0x000600       data     static F:\PIC-web\c18\PIC-WEB-5-42-UEXT-full\Microchip\TCPIP Stack\UART2TCPBridge.c
              vUARTTXFIFO   0x000641       data     static F:\PIC-web\c18\PIC-WEB-5-42-UEXT-full\Microchip\TCPIP Stack\UART2TCPBridge.c
                      val   0x0006d6       data     static F:\PIC-web\c18\PIC-WEB-5-42-UEXT-full\Microchip\TCPIP Stack\Helpers.c
                      val   0x0008da       data     static F:\PIC-web\c18\PIC-WEB-5-42-UEXT-full\Microchip\TCPIP Stack\ETH97J60.c
                      val   0x000cc0       data     static F:\PIC-web\c18\PIC-WEB-5-42-UEXT-full\Microchip\TCPIP Stack\Helpers.c
                      val   0x0008d6       data     static F:\PIC-web\c18\PIC-WEB-5-42-UEXT-full\Microchip\TCPIP Stack\ETH97J60.c
                      val   0x00089d       data     static F:\PIC-web\c18\PIC-WEB-5-42-UEXT-full\Microchip\TCPIP Stack\SPIFlash.c
                      val   0x00089c       data     static F:\PIC-web\c18\PIC-WEB-5-42-UEXT-full\Microchip\TCPIP Stack\SPIFlash.c
                      val   0x0008d5       data     static F:\PIC-web\c18\PIC-WEB-5-42-UEXT-full\Microchip\TCPIP Stack\ETH97J60.c
                      val   0x0008d1       data     static F:\PIC-web\c18\PIC-WEB-5-42-UEXT-full\Microchip\TCPIP Stack\ETH97J60.c
                        w   0x000c36       data     static F:\PIC-web\c18\PIC-WEB-5-42-UEXT-full\TCPIP\Demo App\CustomHTTPApp.c
                        w   0x000c35       data     static F:\PIC-web\c18\PIC-WEB-5-42-UEXT-full\Microchip\TCPIP Stack\DNS.c
                        w   0x000c01       data     static F:\PIC-web\c18\PIC-WEB-5-42-UEXT-full\TCPIP\Demo App\GenericTCPServer.c
                        w   0x000c02       data     static F:\PIC-web\c18\PIC-WEB-5-42-UEXT-full\Microchip\TCPIP Stack\BerkeleyAPI.c
                        w   0x000c01       data     static F:\PIC-web\c18\PIC-WEB-5-42-UEXT-full\TCPIP\Demo App\GenericTCPClient.c
                        w   0x000ceb       data     static F:\PIC-web\c18\PIC-WEB-5-42-UEXT-full\Microchip\TCPIP Stack\ETH97J60.c
                        w   0x000c01       data     static F:\PIC-web\c18\PIC-WEB-5-42-UEXT-full\Microchip\TCPIP Stack\Helpers.c
                        w   0x000c28       data     static F:\PIC-web\c18\PIC-WEB-5-42-UEXT-full\Microchip\TCPIP Stack\TCP.c
                        w   0x000c0a       data     static F:\PIC-web\c18\PIC-WEB-5-42-UEXT-full\Microchip\TCPIP Stack\TCPPerformanceTest.c
                        w   0x000c04       data     static F:\PIC-web\c18\PIC-WEB-5-42-UEXT-full\Microchip\TCPIP Stack\UART2TCPBridge.c
                        w   0x000c0c       data     static F:\PIC-web\c18\PIC-WEB-5-42-UEXT-full\Microchip\TCPIP Stack\TCPPerformanceTest.c
                        w   0x000c30       data     static F:\PIC-web\c18\PIC-WEB-5-42-UEXT-full\Microchip\TCPIP Stack\SNTP.c
                        w   0x000c09       data     static F:\PIC-web\c18\PIC-WEB-5-42-UEXT-full\Microchip\TCPIP Stack\SMTP.c
                        w   0x000c02       data     static F:\PIC-web\c18\PIC-WEB-5-42-UEXT-full\Microchip\TCPIP Stack\TCP.c
                        w   0x000c6b       data     static F:\PIC-web\c18\PIC-WEB-5-42-UEXT-full\Microchip\TCPIP Stack\Telnet.c
                        w   0x000c04       data     static F:\PIC-web\c18\PIC-WEB-5-42-UEXT-full\Microchip\TCPIP Stack\TCP.c
                       w2   0x000c6d       data     static F:\PIC-web\c18\PIC-WEB-5-42-UEXT-full\Microchip\TCPIP Stack\Telnet.c
                       w2   0x000c03       data     static F:\PIC-web\c18\PIC-WEB-5-42-UEXT-full\TCPIP\Demo App\GenericTCPServer.c
               wActualLen   0x000ce1       data     static F:\PIC-web\c18\PIC-WEB-5-42-UEXT-full\Microchip\TCPIP Stack\TCP.c
               wActualLen   0x000c2a       data     static F:\PIC-web\c18\PIC-WEB-5-42-UEXT-full\Microchip\TCPIP Stack\TCP.c
           wAddressLength   0x000f3d       data     static F:\PIC-web\c18\PIC-WEB-5-42-UEXT-full\Microchip\TCPIP Stack\SMTP.c
          wBytesAvailable   0x000c4d       data     static F:\PIC-web\c18\PIC-WEB-5-42-UEXT-full\Microchip\TCPIP Stack\UDP.c
             wBytesOutput   0x000c02       data     static F:\PIC-web\c18\PIC-WEB-5-42-UEXT-full\Microchip\TCPIP Stack\Helpers.c
          wBytesUntilWrap   0x000c04       data     static F:\PIC-web\c18\PIC-WEB-5-42-UEXT-full\Microchip\TCPIP Stack\TCP.c
          wBytesUntilWrap   0x000c3d       data     static F:\PIC-web\c18\PIC-WEB-5-42-UEXT-full\Microchip\TCPIP Stack\TCP.c
          wBytesUntilWrap   0x000c04       data     static F:\PIC-web\c18\PIC-WEB-5-42-UEXT-full\Microchip\TCPIP Stack\TCP.c
                wChecksum   0x000c6f       data     static F:\PIC-web\c18\PIC-WEB-5-42-UEXT-full\Microchip\TCPIP Stack\UDP.c
                   wCount   0x000c00       data     static F:\PIC-web\c18\PIC-WEB-5-42-UEXT-full\Microchip\TCPIP Stack\HTTP2.c
            wCurrentChunk   0x000c29       data     static F:\PIC-web\c18\PIC-WEB-5-42-UEXT-full\TCPIP\Demo App\GenericTCPServer.c
       wCurrentETHAddress   0x000c1d       data     static F:\PIC-web\c18\PIC-WEB-5-42-UEXT-full\Microchip\TCPIP Stack\TCP.c
                 wDataLen   0x0002d7       data     static F:\PIC-web\c18\PIC-WEB-5-42-UEXT-full\Microchip\TCPIP Stack\UDP.c
                 wDataLen   0x000c3b       data     static F:\PIC-web\c18\PIC-WEB-5-42-UEXT-full\Microchip\TCPIP Stack\TCP.c
                 wDataLen   0x0002dc       data     static F:\PIC-web\c18\PIC-WEB-5-42-UEXT-full\Microchip\TCPIP Stack\UDP.c
                 wDataLen   0x000c39       data     static F:\PIC-web\c18\PIC-WEB-5-42-UEXT-full\Microchip\TCPIP Stack\TCP.c
                 wDataLen   0x0002e8       data     static F:\PIC-web\c18\PIC-WEB-5-42-UEXT-full\Microchip\TCPIP Stack\UDP.c
                 wDataLen   0x000c02       data     static F:\PIC-web\c18\PIC-WEB-5-42-UEXT-full\Microchip\TCPIP Stack\TCP.c
                 wDataLen   0x000c00       data     static F:\PIC-web\c18\PIC-WEB-5-42-UEXT-full\Microchip\TCPIP Stack\TCP.c
                    wDest   0x0003c7       data     static F:\PIC-web\c18\PIC-WEB-5-42-UEXT-full\Microchip\TCPIP Stack\TCP.c
                 wDestLen   0x0006b9       data     static F:\PIC-web\c18\PIC-WEB-5-42-UEXT-full\Microchip\TCPIP Stack\Helpers.c
                 wDestLen   0x0006b1       data     static F:\PIC-web\c18\PIC-WEB-5-42-UEXT-full\Microchip\TCPIP Stack\Helpers.c
                wDestType   0x0003c9       data     static F:\PIC-web\c18\PIC-WEB-5-42-UEXT-full\Microchip\TCPIP Stack\TCP.c
                wFIFOSize   0x000c02       data     static F:\PIC-web\c18\PIC-WEB-5-42-UEXT-full\Microchip\TCPIP Stack\TCP.c
                wFIFOSize   0x000c3b       data     static F:\PIC-web\c18\PIC-WEB-5-42-UEXT-full\Microchip\TCPIP Stack\TCP.c
               wFreeSpace   0x000c31       data     static F:\PIC-web\c18\PIC-WEB-5-42-UEXT-full\Microchip\TCPIP Stack\TCP.c
             wFreeTXSpace   0x000c2c       data     static F:\PIC-web\c18\PIC-WEB-5-42-UEXT-full\Microchip\TCPIP Stack\TCP.c
             wFreeTXSpace   0x000ce3       data     static F:\PIC-web\c18\PIC-WEB-5-42-UEXT-full\Microchip\TCPIP Stack\TCP.c
             wFreeTXSpace   0x000c0f       data     static F:\PIC-web\c18\PIC-WEB-5-42-UEXT-full\Microchip\TCPIP Stack\TCP.c
                  wGetLen   0x000c0e       data     static F:\PIC-web\c18\PIC-WEB-5-42-UEXT-full\Microchip\TCPIP Stack\TCPPerformanceTest.c
               wGetOffset   0x0002bf       data     static F:\PIC-web\c18\PIC-WEB-5-42-UEXT-full\Microchip\TCPIP Stack\UDP.c
           wGetReadyCount   0x000c39       data     static F:\PIC-web\c18\PIC-WEB-5-42-UEXT-full\Microchip\TCPIP Stack\TCP.c
           wGetReadyCount   0x000c5d       data     static F:\PIC-web\c18\PIC-WEB-5-42-UEXT-full\Microchip\TCPIP Stack\TCP.c
      wICMPSequenceNumber   0x000941       data     static F:\PIC-web\c18\PIC-WEB-5-42-UEXT-full\Microchip\TCPIP Stack\ICMP.c
               wLastValue   0x000c05       data     static F:\PIC-web\c18\PIC-WEB-5-42-UEXT-full\Microchip\TCPIP Stack\Helpers.c
                     wLen   0x0000d9       data     static F:\PIC-web\c18\PIC-WEB-5-42-UEXT-full\Microchip\TCPIP Stack\MPFS2.c
                     wLen   0x000384       data     static F:\PIC-web\c18\PIC-WEB-5-42-UEXT-full\Microchip\TCPIP Stack\TCP.c
                     wLen   0x0000e7       data     static F:\PIC-web\c18\PIC-WEB-5-42-UEXT-full\Microchip\TCPIP Stack\MPFS2.c
                     wLen   0x0000f6       data     static F:\PIC-web\c18\PIC-WEB-5-42-UEXT-full\Microchip\TCPIP Stack\MPFS2.c
                     wLen   0x00038e       data     static F:\PIC-web\c18\PIC-WEB-5-42-UEXT-full\Microchip\TCPIP Stack\TCP.c
                     wLen   0x000399       data     static F:\PIC-web\c18\PIC-WEB-5-42-UEXT-full\Microchip\TCPIP Stack\TCP.c
                     wLen   0x000f50       data     static F:\PIC-web\c18\PIC-WEB-5-42-UEXT-full\Microchip\TCPIP Stack\SMTP.c
                     wLen   0x000c3d       data     static F:\PIC-web\c18\PIC-WEB-5-42-UEXT-full\Microchip\TCPIP Stack\HTTP2.c
                     wLen   0x000f55       data     static F:\PIC-web\c18\PIC-WEB-5-42-UEXT-full\Microchip\TCPIP Stack\SMTP.c
                     wLen   0x00089f       data     static F:\PIC-web\c18\PIC-WEB-5-42-UEXT-full\Microchip\TCPIP Stack\SPIFlash.c
                     wLen   0x000c02       data     static F:\PIC-web\c18\PIC-WEB-5-42-UEXT-full\Microchip\TCPIP Stack\HTTP2.c
                     wLen   0x000913       data     static F:\PIC-web\c18\PIC-WEB-5-42-UEXT-full\Microchip\TCPIP Stack\HTTP2.c
                     wLen   0x00091c       data     static F:\PIC-web\c18\PIC-WEB-5-42-UEXT-full\Microchip\TCPIP Stack\HTTP2.c
                     wLen   0x000917       data     static F:\PIC-web\c18\PIC-WEB-5-42-UEXT-full\Microchip\TCPIP Stack\HTTP2.c
                wLenStart   0x000c41       data     static F:\PIC-web\c18\PIC-WEB-5-42-UEXT-full\Microchip\TCPIP Stack\TCP.c
                wLenStart   0x000c08       data     static F:\PIC-web\c18\PIC-WEB-5-42-UEXT-full\Microchip\TCPIP Stack\TCP.c
                  wLength   0x0003c5       data     static F:\PIC-web\c18\PIC-WEB-5-42-UEXT-full\Microchip\TCPIP Stack\TCP.c
                  wLength   0x0003cd       data     static F:\PIC-web\c18\PIC-WEB-5-42-UEXT-full\Microchip\TCPIP Stack\TCP.c
                     wMSS   0x000c43       data     static F:\PIC-web\c18\PIC-WEB-5-42-UEXT-full\Microchip\TCPIP Stack\TCP.c
                  wMaxGet   0x000c02       data     static F:\PIC-web\c18\PIC-WEB-5-42-UEXT-full\Microchip\TCPIP Stack\UART2TCPBridge.c
                  wMaxGet   0x000c25       data     static F:\PIC-web\c18\PIC-WEB-5-42-UEXT-full\TCPIP\Demo App\GenericTCPServer.c
                  wMaxPut   0x000c00       data     static F:\PIC-web\c18\PIC-WEB-5-42-UEXT-full\Microchip\TCPIP Stack\UART2TCPBridge.c
                  wMaxPut   0x000c27       data     static F:\PIC-web\c18\PIC-WEB-5-42-UEXT-full\TCPIP\Demo App\GenericTCPServer.c
               wMinRXSize   0x0003ba       data     static F:\PIC-web\c18\PIC-WEB-5-42-UEXT-full\Microchip\TCPIP Stack\TCP.c
               wMinTXSize   0x0003bc       data     static F:\PIC-web\c18\PIC-WEB-5-42-UEXT-full\Microchip\TCPIP Stack\TCP.c
            wMissingBytes   0x000c2f       data     static F:\PIC-web\c18\PIC-WEB-5-42-UEXT-full\Microchip\TCPIP Stack\TCP.c
               wNewWindow   0x000c3f       data     static F:\PIC-web\c18\PIC-WEB-5-42-UEXT-full\Microchip\TCPIP Stack\TCP.c
                  wOffset   0x0002d1       data     static F:\PIC-web\c18\PIC-WEB-5-42-UEXT-full\Microchip\TCPIP Stack\UDP.c
                  wOffset   0x0002cf       data     static F:\PIC-web\c18\PIC-WEB-5-42-UEXT-full\Microchip\TCPIP Stack\UDP.c
wOriginalAppConfigChecksum   0x0007c1       data     static F:\PIC-web\c18\PIC-WEB-5-42-UEXT-full\TCPIP\Demo App\MainDemo.c
               wOutputLen   0x000c06       data     static F:\PIC-web\c18\PIC-WEB-5-42-UEXT-full\Microchip\TCPIP Stack\Helpers.c
                    wPort   0x00034b       data     static F:\PIC-web\c18\PIC-WEB-5-42-UEXT-full\Microchip\TCPIP Stack\TCP.c
                     wPos   0x000c7e       data     static F:\PIC-web\c18\PIC-WEB-5-42-UEXT-full\Microchip\TCPIP Stack\HTTP2.c
               wPutOffset   0x0002bd       data     static F:\PIC-web\c18\PIC-WEB-5-42-UEXT-full\Microchip\TCPIP Stack\UDP.c
          wQueueInsertPos   0x000c29       data     static F:\PIC-web\c18\PIC-WEB-5-42-UEXT-full\Microchip\TCPIP Stack\TCP.c
                  wRXSize   0x000c18       data     static F:\PIC-web\c18\PIC-WEB-5-42-UEXT-full\Microchip\TCPIP Stack\TCP.c
             wReadPtrSave   0x000c6d       data     static F:\PIC-web\c18\PIC-WEB-5-42-UEXT-full\Microchip\TCPIP Stack\UDP.c
              wRemotePort   0x000c43       data     static F:\PIC-web\c18\PIC-WEB-5-42-UEXT-full\Microchip\TCPIP Stack\BerkeleyAPI.c
                wRightLen   0x000c2e       data     static F:\PIC-web\c18\PIC-WEB-5-42-UEXT-full\Microchip\TCPIP Stack\TCP.c
                wRightLen   0x000ce5       data     static F:\PIC-web\c18\PIC-WEB-5-42-UEXT-full\Microchip\TCPIP Stack\TCP.c
               wSearchLen   0x000392       data     static F:\PIC-web\c18\PIC-WEB-5-42-UEXT-full\Microchip\TCPIP Stack\TCP.c
               wSearchLen   0x00039d       data     static F:\PIC-web\c18\PIC-WEB-5-42-UEXT-full\Microchip\TCPIP Stack\TCP.c
               wSearchLen   0x0003a4       data     static F:\PIC-web\c18\PIC-WEB-5-42-UEXT-full\Microchip\TCPIP Stack\TCP.c
           wSegmentLength   0x000c3c       data     static F:\PIC-web\c18\PIC-WEB-5-42-UEXT-full\Microchip\TCPIP Stack\TCP.c
                  wSource   0x0003ca       data     static F:\PIC-web\c18\PIC-WEB-5-42-UEXT-full\Microchip\TCPIP Stack\TCP.c
               wSourceLen   0x0006b5       data     static F:\PIC-web\c18\PIC-WEB-5-42-UEXT-full\Microchip\TCPIP Stack\Helpers.c
               wSourceLen   0x000c00       data     static F:\PIC-web\c18\PIC-WEB-5-42-UEXT-full\Microchip\TCPIP Stack\BerkeleyAPI.c
               wSourceLen   0x0006ad       data     static F:\PIC-web\c18\PIC-WEB-5-42-UEXT-full\Microchip\TCPIP Stack\Helpers.c
                   wStart   0x000386       data     static F:\PIC-web\c18\PIC-WEB-5-42-UEXT-full\Microchip\TCPIP Stack\TCP.c
                   wStart   0x000389       data     static F:\PIC-web\c18\PIC-WEB-5-42-UEXT-full\Microchip\TCPIP Stack\TCP.c
                   wStart   0x000390       data     static F:\PIC-web\c18\PIC-WEB-5-42-UEXT-full\Microchip\TCPIP Stack\TCP.c
                   wStart   0x00039b       data     static F:\PIC-web\c18\PIC-WEB-5-42-UEXT-full\Microchip\TCPIP Stack\TCP.c
                   wStart   0x0003a2       data     static F:\PIC-web\c18\PIC-WEB-5-42-UEXT-full\Microchip\TCPIP Stack\TCP.c
            wTXAllocation   0x000c04       data     static F:\PIC-web\c18\PIC-WEB-5-42-UEXT-full\Microchip\TCPIP Stack\TCP.c
                  wTXSize   0x000c16       data     static F:\PIC-web\c18\PIC-WEB-5-42-UEXT-full\Microchip\TCPIP Stack\TCP.c
              wTXWatchdog   0x0008b4       data     static F:\PIC-web\c18\PIC-WEB-5-42-UEXT-full\Microchip\TCPIP Stack\ETH97J60.c
                    wTemp   0x000c29       data     static F:\PIC-web\c18\PIC-WEB-5-42-UEXT-full\Microchip\TCPIP Stack\TCP.c
                    wTemp   0x000c55       data     static F:\PIC-web\c18\PIC-WEB-5-42-UEXT-full\Microchip\TCPIP Stack\UDP.c
                    wTemp   0x000c52       data     static F:\PIC-web\c18\PIC-WEB-5-42-UEXT-full\Microchip\TCPIP Stack\UDP.c
                    wTime   0x000c03       data     static F:\PIC-web\c18\PIC-WEB-5-42-UEXT-full\Microchip\TCPIP Stack\Helpers.c
               wUDPLength   0x000c5f       data     static F:\PIC-web\c18\PIC-WEB-5-42-UEXT-full\Microchip\TCPIP Stack\UDP.c
                     wVal   0x000c82       data     static F:\PIC-web\c18\PIC-WEB-5-42-UEXT-full\Microchip\TCPIP Stack\TCP.c
                    wrptr   0x0007fb       data     static F:\PIC-web\c18\PIC-WEB-5-42-UEXT-full\TCPIP\Demo App\Olimex_Demo_Files\Custom_SPI_Low.c
                   wvPROD   0x000c0c       data     static F:\PIC-web\c18\PIC-WEB-5-42-UEXT-full\Microchip\TCPIP Stack\Reboot.c
                   wvTemp   0x000ca8       data     static F:\PIC-web\c18\PIC-WEB-5-42-UEXT-full\TCPIP\Demo App\UARTConfig.c
                        z   0x000c10       data     static F:\PIC-web\c18\PIC-WEB-5-42-UEXT-full\TCPIP\Demo App\CustomHTTPApp.c



                              Symbols - Sorted by Address
                     Name    Address   Location    Storage File                     
                ---------  ---------  ---------  --------- ---------                
                   _entry   0x000000    program     extern E:\3.46\pic18-lt\cxx-framework\src\traditional\startup\c018i.c
       ___return_lbl00000   0x000004    program     static                          
               HighVector   0x000008    program     extern F:\PIC-web\c18\PIC-WEB-5-42-UEXT-full\TCPIP\Demo App\MainDemo.c
       ___return_lbl00004   0x00000c    program     static                          
                LowVector   0x000018    program     extern F:\PIC-web\c18\PIC-WEB-5-42-UEXT-full\TCPIP\Demo App\MainDemo.c
       ___return_lbl00003   0x00001c    program     static                          
              SyncTCBStub   0x000194    program     static F:\PIC-web\c18\PIC-WEB-5-42-UEXT-full\Microchip\TCPIP Stack\TCP.c
                  SyncTCB   0x0001e4    program     static F:\PIC-web\c18\PIC-WEB-5-42-UEXT-full\Microchip\TCPIP Stack\TCP.c
                  TCPInit   0x000260    program     extern F:\PIC-web\c18\PIC-WEB-5-42-UEXT-full\Microchip\TCPIP Stack\TCP.c
                  TCPOpen   0x0003da    program     extern F:\PIC-web\c18\PIC-WEB-5-42-UEXT-full\Microchip\TCPIP Stack\TCP.c
              TCPWasReset   0x00050a    program     extern F:\PIC-web\c18\PIC-WEB-5-42-UEXT-full\Microchip\TCPIP Stack\TCP.c
           TCPIsConnected   0x000528    program     extern F:\PIC-web\c18\PIC-WEB-5-42-UEXT-full\Microchip\TCPIP Stack\TCP.c
            TCPDisconnect   0x000546    program     extern F:\PIC-web\c18\PIC-WEB-5-42-UEXT-full\Microchip\TCPIP Stack\TCP.c
                 TCPClose   0x0005e4    program     extern F:\PIC-web\c18\PIC-WEB-5-42-UEXT-full\Microchip\TCPIP Stack\TCP.c
         TCPGetRemoteInfo   0x000602    program     extern F:\PIC-web\c18\PIC-WEB-5-42-UEXT-full\Microchip\TCPIP Stack\TCP.c
                 TCPFlush   0x000642    program     extern F:\PIC-web\c18\PIC-WEB-5-42-UEXT-full\Microchip\TCPIP Stack\TCP.c
            TCPIsPutReady   0x00066a    program     extern F:\PIC-web\c18\PIC-WEB-5-42-UEXT-full\Microchip\TCPIP Stack\TCP.c
                   TCPPut   0x0006e6    program     extern F:\PIC-web\c18\PIC-WEB-5-42-UEXT-full\Microchip\TCPIP Stack\TCP.c
              TCPPutArray   0x00078c    program     extern F:\PIC-web\c18\PIC-WEB-5-42-UEXT-full\Microchip\TCPIP Stack\TCP.c
           TCPPutROMArray   0x00088c    program     extern F:\PIC-web\c18\PIC-WEB-5-42-UEXT-full\Microchip\TCPIP Stack\TCP.c
             TCPPutString   0x000992    program     extern F:\PIC-web\c18\PIC-WEB-5-42-UEXT-full\Microchip\TCPIP Stack\TCP.c
          TCPPutROMString   0x0009c8    program     extern F:\PIC-web\c18\PIC-WEB-5-42-UEXT-full\Microchip\TCPIP Stack\TCP.c
         TCPGetTxFIFOFull   0x000a1a    program     extern F:\PIC-web\c18\PIC-WEB-5-42-UEXT-full\Microchip\TCPIP Stack\TCP.c
               TCPDiscard   0x000a64    program     extern F:\PIC-web\c18\PIC-WEB-5-42-UEXT-full\Microchip\TCPIP Stack\TCP.c
            TCPIsGetReady   0x000a82    program     extern F:\PIC-web\c18\PIC-WEB-5-42-UEXT-full\Microchip\TCPIP Stack\TCP.c
                   TCPGet   0x000ad6    program     extern F:\PIC-web\c18\PIC-WEB-5-42-UEXT-full\Microchip\TCPIP Stack\TCP.c
              TCPGetArray   0x000b50    program     extern F:\PIC-web\c18\PIC-WEB-5-42-UEXT-full\Microchip\TCPIP Stack\TCP.c
         TCPGetRxFIFOFree   0x000c54    program     extern F:\PIC-web\c18\PIC-WEB-5-42-UEXT-full\Microchip\TCPIP Stack\TCP.c
             TCPPeekArray   0x000c96    program     extern F:\PIC-web\c18\PIC-WEB-5-42-UEXT-full\Microchip\TCPIP Stack\TCP.c
                  TCPPeek   0x000db2    program     extern F:\PIC-web\c18\PIC-WEB-5-42-UEXT-full\Microchip\TCPIP Stack\TCP.c
           TCPFindArrayEx   0x000dd8    program     extern F:\PIC-web\c18\PIC-WEB-5-42-UEXT-full\Microchip\TCPIP Stack\TCP.c
        TCPFindROMArrayEx   0x001036    program     extern F:\PIC-web\c18\PIC-WEB-5-42-UEXT-full\Microchip\TCPIP Stack\TCP.c
                TCPFindEx   0x001294    program     extern F:\PIC-web\c18\PIC-WEB-5-42-UEXT-full\Microchip\TCPIP Stack\TCP.c
                  TCPTick   0x0012c2    program     extern F:\PIC-web\c18\PIC-WEB-5-42-UEXT-full\Microchip\TCPIP Stack\TCP.c
               TCPProcess   0x001750    program     extern F:\PIC-web\c18\PIC-WEB-5-42-UEXT-full\Microchip\TCPIP Stack\TCP.c
                  SendTCP   0x00187a    program     static F:\PIC-web\c18\PIC-WEB-5-42-UEXT-full\Microchip\TCPIP Stack\TCP.c
       FindMatchingSocket   0x001d12    program     static F:\PIC-web\c18\PIC-WEB-5-42-UEXT-full\Microchip\TCPIP Stack\TCP.c
            SwapTCPHeader   0x001f88    program     static F:\PIC-web\c18\PIC-WEB-5-42-UEXT-full\Microchip\TCPIP Stack\TCP.c
              CloseSocket   0x00200a    program     static F:\PIC-web\c18\PIC-WEB-5-42-UEXT-full\Microchip\TCPIP Stack\TCP.c
      GetMaxSegSizeOption   0x002088    program     static F:\PIC-web\c18\PIC-WEB-5-42-UEXT-full\Microchip\TCPIP Stack\TCP.c
             HandleTCPSeg   0x002148    program     static F:\PIC-web\c18\PIC-WEB-5-42-UEXT-full\Microchip\TCPIP Stack\TCP.c
             __tmplbl_154   0x002b2c    program     static                          
        TCPAdjustFIFOSize   0x002b2e    program     extern F:\PIC-web\c18\PIC-WEB-5-42-UEXT-full\Microchip\TCPIP Stack\TCP.c
               TCPRAMCopy   0x002cea    program     static F:\PIC-web\c18\PIC-WEB-5-42-UEXT-full\Microchip\TCPIP Stack\TCP.c
            TCPRAMCopyROM   0x002d9c    program     static F:\PIC-web\c18\PIC-WEB-5-42-UEXT-full\Microchip\TCPIP Stack\TCP.c
                   __pa_0   0x002e52    program     static F:\PIC-web\c18\PIC-WEB-5-42-UEXT-full\Microchip\TCPIP Stack\TCP.c
                   __pa_1   0x002e6e    program     static F:\PIC-web\c18\PIC-WEB-5-42-UEXT-full\Microchip\TCPIP Stack\TCP.c
                   __pa_2   0x002e7c    program     static F:\PIC-web\c18\PIC-WEB-5-42-UEXT-full\Microchip\TCPIP Stack\TCP.c
                   __pa_3   0x002f06    program     static F:\PIC-web\c18\PIC-WEB-5-42-UEXT-full\Microchip\TCPIP Stack\TCP.c
                   __pa_4   0x002f1c    program     static F:\PIC-web\c18\PIC-WEB-5-42-UEXT-full\Microchip\TCPIP Stack\TCP.c
                   __pa_5   0x002f48    program     static F:\PIC-web\c18\PIC-WEB-5-42-UEXT-full\Microchip\TCPIP Stack\TCP.c
                   __pa_6   0x002f5a    program     static F:\PIC-web\c18\PIC-WEB-5-42-UEXT-full\Microchip\TCPIP Stack\TCP.c
                   __pa_7   0x002f68    program     static F:\PIC-web\c18\PIC-WEB-5-42-UEXT-full\Microchip\TCPIP Stack\TCP.c
                   __pa_8   0x002f70    program     static F:\PIC-web\c18\PIC-WEB-5-42-UEXT-full\Microchip\TCPIP Stack\TCP.c
                   __pa_9   0x002f80    program     static F:\PIC-web\c18\PIC-WEB-5-42-UEXT-full\Microchip\TCPIP Stack\TCP.c
                  __pa_10   0x002f88    program     static F:\PIC-web\c18\PIC-WEB-5-42-UEXT-full\Microchip\TCPIP Stack\TCP.c
                  __pa_11   0x002f8e    program     static F:\PIC-web\c18\PIC-WEB-5-42-UEXT-full\Microchip\TCPIP Stack\TCP.c
                  __pa_12   0x002faa    program     static F:\PIC-web\c18\PIC-WEB-5-42-UEXT-full\Microchip\TCPIP Stack\TCP.c
             __tmplbl_153   0x002faa    program     static                          
             __tmplbl_164   0x002faa    program     static                          
                  __pa_13   0x002fd4    program     static F:\PIC-web\c18\PIC-WEB-5-42-UEXT-full\Microchip\TCPIP Stack\TCP.c
                  __pa_14   0x002fe4    program     static F:\PIC-web\c18\PIC-WEB-5-42-UEXT-full\Microchip\TCPIP Stack\TCP.c
             __tmplbl_100   0x00300e    program     static                          
             __tmplbl_102   0x00300e    program     static                          
             __tmplbl_103   0x00300e    program     static                          
             __tmplbl_104   0x00300e    program     static                          
              __tmplbl_96   0x00300e    program     static                          
             __tmplbl_105   0x00300e    program     static                          
              __tmplbl_97   0x00300e    program     static                          
             __tmplbl_108   0x00300e    program     static                          
                  __pa_15   0x00300e    program     static F:\PIC-web\c18\PIC-WEB-5-42-UEXT-full\Microchip\TCPIP Stack\TCP.c
                  __pa_16   0x003018    program     static F:\PIC-web\c18\PIC-WEB-5-42-UEXT-full\Microchip\TCPIP Stack\TCP.c
                  __pa_17   0x003042    program     static F:\PIC-web\c18\PIC-WEB-5-42-UEXT-full\Microchip\TCPIP Stack\TCP.c
                  __pa_18   0x003048    program     static F:\PIC-web\c18\PIC-WEB-5-42-UEXT-full\Microchip\TCPIP Stack\TCP.c
                  __pa_19   0x003070    program     static F:\PIC-web\c18\PIC-WEB-5-42-UEXT-full\Microchip\TCPIP Stack\TCP.c
                  __pa_20   0x003088    program     static F:\PIC-web\c18\PIC-WEB-5-42-UEXT-full\Microchip\TCPIP Stack\TCP.c
                  __pa_21   0x0030ae    program     static F:\PIC-web\c18\PIC-WEB-5-42-UEXT-full\Microchip\TCPIP Stack\TCP.c
                  __pa_22   0x0030bc    program     static F:\PIC-web\c18\PIC-WEB-5-42-UEXT-full\Microchip\TCPIP Stack\TCP.c
                  __pa_23   0x0030ca    program     static F:\PIC-web\c18\PIC-WEB-5-42-UEXT-full\Microchip\TCPIP Stack\TCP.c
                  __pa_24   0x0030d4    program     static F:\PIC-web\c18\PIC-WEB-5-42-UEXT-full\Microchip\TCPIP Stack\TCP.c
                  __pa_25   0x0030e8    program     static F:\PIC-web\c18\PIC-WEB-5-42-UEXT-full\Microchip\TCPIP Stack\TCP.c
                  __pa_26   0x0030f8    program     static F:\PIC-web\c18\PIC-WEB-5-42-UEXT-full\Microchip\TCPIP Stack\TCP.c
                  __pa_27   0x003102    program     static F:\PIC-web\c18\PIC-WEB-5-42-UEXT-full\Microchip\TCPIP Stack\TCP.c
                  __pa_28   0x003114    program     static F:\PIC-web\c18\PIC-WEB-5-42-UEXT-full\Microchip\TCPIP Stack\TCP.c
             __tmplbl_112   0x00312e    program     static                          
             __tmplbl_110   0x00312e    program     static                          
                  __pa_29   0x00312e    program     static F:\PIC-web\c18\PIC-WEB-5-42-UEXT-full\Microchip\TCPIP Stack\TCP.c
                  __pa_30   0x003144    program     static F:\PIC-web\c18\PIC-WEB-5-42-UEXT-full\Microchip\TCPIP Stack\TCP.c
                  __pa_31   0x003162    program     static F:\PIC-web\c18\PIC-WEB-5-42-UEXT-full\Microchip\TCPIP Stack\TCP.c
                  __pa_32   0x003182    program     static F:\PIC-web\c18\PIC-WEB-5-42-UEXT-full\Microchip\TCPIP Stack\TCP.c
                  __pa_33   0x00318e    program     static F:\PIC-web\c18\PIC-WEB-5-42-UEXT-full\Microchip\TCPIP Stack\TCP.c
                  __pa_34   0x0031aa    program     static F:\PIC-web\c18\PIC-WEB-5-42-UEXT-full\Microchip\TCPIP Stack\TCP.c
                  __pa_35   0x0031c8    program     static F:\PIC-web\c18\PIC-WEB-5-42-UEXT-full\Microchip\TCPIP Stack\TCP.c
                  __pa_36   0x0031dc    program     static F:\PIC-web\c18\PIC-WEB-5-42-UEXT-full\Microchip\TCPIP Stack\TCP.c
                  __pa_37   0x0031e2    program     static F:\PIC-web\c18\PIC-WEB-5-42-UEXT-full\Microchip\TCPIP Stack\TCP.c
                  __pa_38   0x003200    program     static F:\PIC-web\c18\PIC-WEB-5-42-UEXT-full\Microchip\TCPIP Stack\TCP.c
                  __pa_39   0x003208    program     static F:\PIC-web\c18\PIC-WEB-5-42-UEXT-full\Microchip\TCPIP Stack\TCP.c
                  __pa_40   0x003216    program     static F:\PIC-web\c18\PIC-WEB-5-42-UEXT-full\Microchip\TCPIP Stack\TCP.c
                  __pa_41   0x00321c    program     static F:\PIC-web\c18\PIC-WEB-5-42-UEXT-full\Microchip\TCPIP Stack\TCP.c
                  __pa_42   0x003232    program     static F:\PIC-web\c18\PIC-WEB-5-42-UEXT-full\Microchip\TCPIP Stack\TCP.c
                  __pa_43   0x003240    program     static F:\PIC-web\c18\PIC-WEB-5-42-UEXT-full\Microchip\TCPIP Stack\TCP.c
                  __pa_44   0x003258    program     static F:\PIC-web\c18\PIC-WEB-5-42-UEXT-full\Microchip\TCPIP Stack\TCP.c
                  __pa_45   0x003272    program     static F:\PIC-web\c18\PIC-WEB-5-42-UEXT-full\Microchip\TCPIP Stack\TCP.c
             __tmplbl_151   0x00328c    program     static                          
             __tmplbl_156   0x00328c    program     static                          
                  __pa_46   0x00328c    program     static F:\PIC-web\c18\PIC-WEB-5-42-UEXT-full\Microchip\TCPIP Stack\TCP.c
                  __pa_47   0x00329a    program     static F:\PIC-web\c18\PIC-WEB-5-42-UEXT-full\Microchip\TCPIP Stack\TCP.c
                  __pa_48   0x0032aa    program     static F:\PIC-web\c18\PIC-WEB-5-42-UEXT-full\Microchip\TCPIP Stack\TCP.c
                  __pa_49   0x0032b4    program     static F:\PIC-web\c18\PIC-WEB-5-42-UEXT-full\Microchip\TCPIP Stack\TCP.c
                  __pa_50   0x0032be    program     static F:\PIC-web\c18\PIC-WEB-5-42-UEXT-full\Microchip\TCPIP Stack\TCP.c
                  __pa_51   0x0032ca    program     static F:\PIC-web\c18\PIC-WEB-5-42-UEXT-full\Microchip\TCPIP Stack\TCP.c
                  __pa_52   0x0032e2    program     static F:\PIC-web\c18\PIC-WEB-5-42-UEXT-full\Microchip\TCPIP Stack\TCP.c
                  __pa_53   0x0032ee    program     static F:\PIC-web\c18\PIC-WEB-5-42-UEXT-full\Microchip\TCPIP Stack\TCP.c
                  __pa_54   0x003304    program     static F:\PIC-web\c18\PIC-WEB-5-42-UEXT-full\Microchip\TCPIP Stack\TCP.c
                  __pa_55   0x00331a    program     static F:\PIC-web\c18\PIC-WEB-5-42-UEXT-full\Microchip\TCPIP Stack\TCP.c
                  __pa_56   0x003328    program     static F:\PIC-web\c18\PIC-WEB-5-42-UEXT-full\Microchip\TCPIP Stack\TCP.c
                  __pa_57   0x003330    program     static F:\PIC-web\c18\PIC-WEB-5-42-UEXT-full\Microchip\TCPIP Stack\TCP.c
                  __pa_58   0x00333c    program     static F:\PIC-web\c18\PIC-WEB-5-42-UEXT-full\Microchip\TCPIP Stack\TCP.c
                  __pa_59   0x00334a    program     static F:\PIC-web\c18\PIC-WEB-5-42-UEXT-full\Microchip\TCPIP Stack\TCP.c
                  __pa_60   0x003354    program     static F:\PIC-web\c18\PIC-WEB-5-42-UEXT-full\Microchip\TCPIP Stack\TCP.c
                  __pa_61   0x003368    program     static F:\PIC-web\c18\PIC-WEB-5-42-UEXT-full\Microchip\TCPIP Stack\TCP.c
                  __pa_62   0x00337c    program     static F:\PIC-web\c18\PIC-WEB-5-42-UEXT-full\Microchip\TCPIP Stack\TCP.c
                  __pa_63   0x003384    program     static F:\PIC-web\c18\PIC-WEB-5-42-UEXT-full\Microchip\TCPIP Stack\TCP.c
                  __pa_64   0x003396    program     static F:\PIC-web\c18\PIC-WEB-5-42-UEXT-full\Microchip\TCPIP Stack\TCP.c
                  __pa_65   0x0033a4    program     static F:\PIC-web\c18\PIC-WEB-5-42-UEXT-full\Microchip\TCPIP Stack\TCP.c
                  __pa_66   0x0033b6    program     static F:\PIC-web\c18\PIC-WEB-5-42-UEXT-full\Microchip\TCPIP Stack\TCP.c
                  __pa_67   0x0033c8    program     static F:\PIC-web\c18\PIC-WEB-5-42-UEXT-full\Microchip\TCPIP Stack\TCP.c
                  __pa_68   0x0033da    program     static F:\PIC-web\c18\PIC-WEB-5-42-UEXT-full\Microchip\TCPIP Stack\TCP.c
                  __pa_69   0x0033ec    program     static F:\PIC-web\c18\PIC-WEB-5-42-UEXT-full\Microchip\TCPIP Stack\TCP.c
                  __pa_70   0x0033fe    program     static F:\PIC-web\c18\PIC-WEB-5-42-UEXT-full\Microchip\TCPIP Stack\TCP.c
                  __pa_71   0x003410    program     static F:\PIC-web\c18\PIC-WEB-5-42-UEXT-full\Microchip\TCPIP Stack\TCP.c
                  __pa_72   0x003422    program     static F:\PIC-web\c18\PIC-WEB-5-42-UEXT-full\Microchip\TCPIP Stack\TCP.c
                  __pa_73   0x003432    program     static F:\PIC-web\c18\PIC-WEB-5-42-UEXT-full\Microchip\TCPIP Stack\TCP.c
                  __pa_74   0x00343a    program     static F:\PIC-web\c18\PIC-WEB-5-42-UEXT-full\Microchip\TCPIP Stack\TCP.c
                  __pa_75   0x00344c    program     static F:\PIC-web\c18\PIC-WEB-5-42-UEXT-full\Microchip\TCPIP Stack\TCP.c
                  __pa_76   0x003458    program     static F:\PIC-web\c18\PIC-WEB-5-42-UEXT-full\Microchip\TCPIP Stack\TCP.c
                  __pa_77   0x003464    program     static F:\PIC-web\c18\PIC-WEB-5-42-UEXT-full\Microchip\TCPIP Stack\TCP.c
                  __pa_78   0x003470    program     static F:\PIC-web\c18\PIC-WEB-5-42-UEXT-full\Microchip\TCPIP Stack\TCP.c
                  __pa_79   0x00347a    program     static F:\PIC-web\c18\PIC-WEB-5-42-UEXT-full\Microchip\TCPIP Stack\TCP.c
                  __pa_80   0x003484    program     static F:\PIC-web\c18\PIC-WEB-5-42-UEXT-full\Microchip\TCPIP Stack\TCP.c
                  __pa_81   0x00348e    program     static F:\PIC-web\c18\PIC-WEB-5-42-UEXT-full\Microchip\TCPIP Stack\TCP.c
                  __pa_82   0x00349e    program     static F:\PIC-web\c18\PIC-WEB-5-42-UEXT-full\Microchip\TCPIP Stack\TCP.c
                  __pa_83   0x0034ae    program     static F:\PIC-web\c18\PIC-WEB-5-42-UEXT-full\Microchip\TCPIP Stack\TCP.c
                  __pa_84   0x0034ba    program     static F:\PIC-web\c18\PIC-WEB-5-42-UEXT-full\Microchip\TCPIP Stack\TCP.c
                  __pa_85   0x0034ca    program     static F:\PIC-web\c18\PIC-WEB-5-42-UEXT-full\Microchip\TCPIP Stack\TCP.c
                  __pa_86   0x0034d8    program     static F:\PIC-web\c18\PIC-WEB-5-42-UEXT-full\Microchip\TCPIP Stack\TCP.c
                  __pa_87   0x0034e6    program     static F:\PIC-web\c18\PIC-WEB-5-42-UEXT-full\Microchip\TCPIP Stack\TCP.c
                  __pa_88   0x0034f4    program     static F:\PIC-web\c18\PIC-WEB-5-42-UEXT-full\Microchip\TCPIP Stack\TCP.c
                  __pa_89   0x003502    program     static F:\PIC-web\c18\PIC-WEB-5-42-UEXT-full\Microchip\TCPIP Stack\TCP.c
                  __pa_90   0x003510    program     static F:\PIC-web\c18\PIC-WEB-5-42-UEXT-full\Microchip\TCPIP Stack\TCP.c
                  __pa_91   0x00351e    program     static F:\PIC-web\c18\PIC-WEB-5-42-UEXT-full\Microchip\TCPIP Stack\TCP.c
                  __pa_92   0x00352c    program     static F:\PIC-web\c18\PIC-WEB-5-42-UEXT-full\Microchip\TCPIP Stack\TCP.c
                  __pa_93   0x00353a    program     static F:\PIC-web\c18\PIC-WEB-5-42-UEXT-full\Microchip\TCPIP Stack\TCP.c
                  __pa_94   0x003548    program     static F:\PIC-web\c18\PIC-WEB-5-42-UEXT-full\Microchip\TCPIP Stack\TCP.c
                  __pa_95   0x003556    program     static F:\PIC-web\c18\PIC-WEB-5-42-UEXT-full\Microchip\TCPIP Stack\TCP.c
                  __pa_96   0x003564    program     static F:\PIC-web\c18\PIC-WEB-5-42-UEXT-full\Microchip\TCPIP Stack\TCP.c
                  __pa_97   0x00356a    program     static F:\PIC-web\c18\PIC-WEB-5-42-UEXT-full\Microchip\TCPIP Stack\TCP.c
                  __pa_98   0x003574    program     static F:\PIC-web\c18\PIC-WEB-5-42-UEXT-full\Microchip\TCPIP Stack\TCP.c
                  __pa_99   0x00357c    program     static F:\PIC-web\c18\PIC-WEB-5-42-UEXT-full\Microchip\TCPIP Stack\TCP.c
                 __pa_100   0x003584    program     static F:\PIC-web\c18\PIC-WEB-5-42-UEXT-full\Microchip\TCPIP Stack\TCP.c
                 __pa_101   0x00358c    program     static F:\PIC-web\c18\PIC-WEB-5-42-UEXT-full\Microchip\TCPIP Stack\TCP.c
                 __pa_102   0x003594    program     static F:\PIC-web\c18\PIC-WEB-5-42-UEXT-full\Microchip\TCPIP Stack\TCP.c
                 __pa_103   0x00359e    program     static F:\PIC-web\c18\PIC-WEB-5-42-UEXT-full\Microchip\TCPIP Stack\TCP.c
                 __pa_104   0x0035a8    program     static F:\PIC-web\c18\PIC-WEB-5-42-UEXT-full\Microchip\TCPIP Stack\TCP.c
                 __pa_105   0x0035ae    program     static F:\PIC-web\c18\PIC-WEB-5-42-UEXT-full\Microchip\TCPIP Stack\TCP.c
                 __pa_106   0x0035b8    program     static F:\PIC-web\c18\PIC-WEB-5-42-UEXT-full\Microchip\TCPIP Stack\TCP.c
                 __pa_107   0x0035be    program     static F:\PIC-web\c18\PIC-WEB-5-42-UEXT-full\Microchip\TCPIP Stack\TCP.c
                 __pa_108   0x0035c8    program     static F:\PIC-web\c18\PIC-WEB-5-42-UEXT-full\Microchip\TCPIP Stack\TCP.c
                 __pa_109   0x0035d2    program     static F:\PIC-web\c18\PIC-WEB-5-42-UEXT-full\Microchip\TCPIP Stack\TCP.c
                 __pa_110   0x0035dc    program     static F:\PIC-web\c18\PIC-WEB-5-42-UEXT-full\Microchip\TCPIP Stack\TCP.c
                 __pa_111   0x0035e8    program     static F:\PIC-web\c18\PIC-WEB-5-42-UEXT-full\Microchip\TCPIP Stack\TCP.c
                 __pa_112   0x0035f4    program     static F:\PIC-web\c18\PIC-WEB-5-42-UEXT-full\Microchip\TCPIP Stack\TCP.c
                 __pa_113   0x0035fc    program     static F:\PIC-web\c18\PIC-WEB-5-42-UEXT-full\Microchip\TCPIP Stack\TCP.c
                 __pa_114   0x003612    program     static F:\PIC-web\c18\PIC-WEB-5-42-UEXT-full\Microchip\TCPIP Stack\TCP.c
                 __pa_115   0x003630    program     static F:\PIC-web\c18\PIC-WEB-5-42-UEXT-full\Microchip\TCPIP Stack\TCP.c
                 __pa_116   0x00363a    program     static F:\PIC-web\c18\PIC-WEB-5-42-UEXT-full\Microchip\TCPIP Stack\TCP.c
                 __pa_117   0x003644    program     static F:\PIC-web\c18\PIC-WEB-5-42-UEXT-full\Microchip\TCPIP Stack\TCP.c
                 __pa_118   0x003650    program     static F:\PIC-web\c18\PIC-WEB-5-42-UEXT-full\Microchip\TCPIP Stack\TCP.c
                 __pa_119   0x00365e    program     static F:\PIC-web\c18\PIC-WEB-5-42-UEXT-full\Microchip\TCPIP Stack\TCP.c
                 __pa_120   0x00366a    program     static F:\PIC-web\c18\PIC-WEB-5-42-UEXT-full\Microchip\TCPIP Stack\TCP.c
                 __pa_121   0x003674    program     static F:\PIC-web\c18\PIC-WEB-5-42-UEXT-full\Microchip\TCPIP Stack\TCP.c
                 __pa_122   0x00367e    program     static F:\PIC-web\c18\PIC-WEB-5-42-UEXT-full\Microchip\TCPIP Stack\TCP.c
                 __pa_123   0x003692    program     static F:\PIC-web\c18\PIC-WEB-5-42-UEXT-full\Microchip\TCPIP Stack\TCP.c
                 __pa_124   0x003698    program     static F:\PIC-web\c18\PIC-WEB-5-42-UEXT-full\Microchip\TCPIP Stack\TCP.c
                 __pa_125   0x0036a8    program     static F:\PIC-web\c18\PIC-WEB-5-42-UEXT-full\Microchip\TCPIP Stack\TCP.c
                 __pa_126   0x0036ba    program     static F:\PIC-web\c18\PIC-WEB-5-42-UEXT-full\Microchip\TCPIP Stack\TCP.c
                 __pa_127   0x0036cc    program     static F:\PIC-web\c18\PIC-WEB-5-42-UEXT-full\Microchip\TCPIP Stack\TCP.c
                 __pa_128   0x0036dc    program     static F:\PIC-web\c18\PIC-WEB-5-42-UEXT-full\Microchip\TCPIP Stack\TCP.c
                 __pa_129   0x0036e6    program     static F:\PIC-web\c18\PIC-WEB-5-42-UEXT-full\Microchip\TCPIP Stack\TCP.c
                 __pa_130   0x0036f2    program     static F:\PIC-web\c18\PIC-WEB-5-42-UEXT-full\Microchip\TCPIP Stack\TCP.c
                 __pa_131   0x0036f8    program     static F:\PIC-web\c18\PIC-WEB-5-42-UEXT-full\Microchip\TCPIP Stack\TCP.c
                 __pa_132   0x003704    program     static F:\PIC-web\c18\PIC-WEB-5-42-UEXT-full\Microchip\TCPIP Stack\TCP.c
                 __pa_133   0x003710    program     static F:\PIC-web\c18\PIC-WEB-5-42-UEXT-full\Microchip\TCPIP Stack\TCP.c
                 __pa_134   0x00371e    program     static F:\PIC-web\c18\PIC-WEB-5-42-UEXT-full\Microchip\TCPIP Stack\TCP.c
                 __pa_135   0x00372c    program     static F:\PIC-web\c18\PIC-WEB-5-42-UEXT-full\Microchip\TCPIP Stack\TCP.c
                 __pa_136   0x003738    program     static F:\PIC-web\c18\PIC-WEB-5-42-UEXT-full\Microchip\TCPIP Stack\TCP.c
                 __pa_137   0x003746    program     static F:\PIC-web\c18\PIC-WEB-5-42-UEXT-full\Microchip\TCPIP Stack\TCP.c
                 __pa_138   0x003750    program     static F:\PIC-web\c18\PIC-WEB-5-42-UEXT-full\Microchip\TCPIP Stack\TCP.c
                 __pa_139   0x003758    program     static F:\PIC-web\c18\PIC-WEB-5-42-UEXT-full\Microchip\TCPIP Stack\TCP.c
                 __pa_140   0x003762    program     static F:\PIC-web\c18\PIC-WEB-5-42-UEXT-full\Microchip\TCPIP Stack\TCP.c
                 __pa_141   0x00376c    program     static F:\PIC-web\c18\PIC-WEB-5-42-UEXT-full\Microchip\TCPIP Stack\TCP.c
                 __pa_142   0x003776    program     static F:\PIC-web\c18\PIC-WEB-5-42-UEXT-full\Microchip\TCPIP Stack\TCP.c
                 __pa_143   0x003780    program     static F:\PIC-web\c18\PIC-WEB-5-42-UEXT-full\Microchip\TCPIP Stack\TCP.c
                 __pa_144   0x003788    program     static F:\PIC-web\c18\PIC-WEB-5-42-UEXT-full\Microchip\TCPIP Stack\TCP.c
                 __pa_145   0x003796    program     static F:\PIC-web\c18\PIC-WEB-5-42-UEXT-full\Microchip\TCPIP Stack\TCP.c
                 __pa_146   0x0037a8    program     static F:\PIC-web\c18\PIC-WEB-5-42-UEXT-full\Microchip\TCPIP Stack\TCP.c
                HTTPPrint   0x0037b2    program     extern F:\PIC-web\c18\PIC-WEB-5-42-UEXT-full\TCPIP\Demo App\HTTPPrint.h
               HTTPPrint_   0x003c76    program     extern F:\PIC-web\c18\PIC-WEB-5-42-UEXT-full\TCPIP\Demo App\HTTPPrint.h
                 HTTPInit   0x003c80    program     extern F:\PIC-web\c18\PIC-WEB-5-42-UEXT-full\Microchip\TCPIP Stack\HTTP2.c
               HTTPServer   0x003cee    program     extern F:\PIC-web\c18\PIC-WEB-5-42-UEXT-full\Microchip\TCPIP Stack\HTTP2.c
             HTTPLoadConn   0x003d66    program     static F:\PIC-web\c18\PIC-WEB-5-42-UEXT-full\Microchip\TCPIP Stack\HTTP2.c
              HTTPProcess   0x003dda    program     static F:\PIC-web\c18\PIC-WEB-5-42-UEXT-full\Microchip\TCPIP Stack\HTTP2.c
             __tmplbl_162   0x003dda    program     static                          
             __tmplbl_138   0x00463c    program     static                          
             __tmplbl_137   0x00466a    program     static                          
             __tmplbl_136   0x0046b0    program     static                          
             __tmplbl_146   0x0046ca    program     static                          
             __tmplbl_147   0x0046ca    program     static                          
             __tmplbl_148   0x0046ca    program     static                          
             HTTPSendFile   0x0046d6    program     static F:\PIC-web\c18\PIC-WEB-5-42-UEXT-full\Microchip\TCPIP Stack\HTTP2.c
    HTTPHeaderParseLookup   0x00485c    program     static F:\PIC-web\c18\PIC-WEB-5-42-UEXT-full\Microchip\TCPIP Stack\HTTP2.c
HTTPHeaderParseAuthorization   0x004878    program     static F:\PIC-web\c18\PIC-WEB-5-42-UEXT-full\Microchip\TCPIP Stack\HTTP2.c
    HTTPHeaderParseCookie   0x00496a    program     static F:\PIC-web\c18\PIC-WEB-5-42-UEXT-full\Microchip\TCPIP Stack\HTTP2.c
HTTPHeaderParseContentLength   0x004a08    program     static F:\PIC-web\c18\PIC-WEB-5-42-UEXT-full\Microchip\TCPIP Stack\HTTP2.c
            HTTPURLDecode   0x004a7c    program     extern F:\PIC-web\c18\PIC-WEB-5-42-UEXT-full\Microchip\TCPIP Stack\HTTP2.c
               HTTPGetArg   0x004b44    program     extern F:\PIC-web\c18\PIC-WEB-5-42-UEXT-full\Microchip\TCPIP Stack\HTTP2.c
            HTTPGetROMArg   0x004b96    program     extern F:\PIC-web\c18\PIC-WEB-5-42-UEXT-full\Microchip\TCPIP Stack\HTTP2.c
         HTTPReadPostName   0x004bf6    program     extern F:\PIC-web\c18\PIC-WEB-5-42-UEXT-full\Microchip\TCPIP Stack\HTTP2.c
        HTTPReadPostValue   0x004c36    program     extern F:\PIC-web\c18\PIC-WEB-5-42-UEXT-full\Microchip\TCPIP Stack\HTTP2.c
               HTTPReadTo   0x004c9a    program     static F:\PIC-web\c18\PIC-WEB-5-42-UEXT-full\Microchip\TCPIP Stack\HTTP2.c
           HTTPMPFSUpload   0x004da6    program     static F:\PIC-web\c18\PIC-WEB-5-42-UEXT-full\Microchip\TCPIP Stack\HTTP2.c
              HTTPIncFile   0x004f64    program     extern F:\PIC-web\c18\PIC-WEB-5-42-UEXT-full\Microchip\TCPIP Stack\HTTP2.c
                   __pa_0   0x00506c    program     static F:\PIC-web\c18\PIC-WEB-5-42-UEXT-full\Microchip\TCPIP Stack\HTTP2.c
                   __pa_1   0x005070    program     static F:\PIC-web\c18\PIC-WEB-5-42-UEXT-full\Microchip\TCPIP Stack\HTTP2.c
                   __pa_2   0x005076    program     static F:\PIC-web\c18\PIC-WEB-5-42-UEXT-full\Microchip\TCPIP Stack\HTTP2.c
                   __pa_3   0x0050ac    program     static F:\PIC-web\c18\PIC-WEB-5-42-UEXT-full\Microchip\TCPIP Stack\HTTP2.c
                   __pa_4   0x0050b6    program     static F:\PIC-web\c18\PIC-WEB-5-42-UEXT-full\Microchip\TCPIP Stack\HTTP2.c
                   __pa_5   0x0050bc    program     static F:\PIC-web\c18\PIC-WEB-5-42-UEXT-full\Microchip\TCPIP Stack\HTTP2.c
                   __pa_6   0x0050e4    program     static F:\PIC-web\c18\PIC-WEB-5-42-UEXT-full\Microchip\TCPIP Stack\HTTP2.c
                   __pa_7   0x0050ee    program     static F:\PIC-web\c18\PIC-WEB-5-42-UEXT-full\Microchip\TCPIP Stack\HTTP2.c
                   __pa_8   0x0050fa    program     static F:\PIC-web\c18\PIC-WEB-5-42-UEXT-full\Microchip\TCPIP Stack\HTTP2.c
                   __pa_9   0x00510a    program     static F:\PIC-web\c18\PIC-WEB-5-42-UEXT-full\Microchip\TCPIP Stack\HTTP2.c
                  __pa_10   0x005130    program     static F:\PIC-web\c18\PIC-WEB-5-42-UEXT-full\Microchip\TCPIP Stack\HTTP2.c
                  __pa_11   0x00513a    program     static F:\PIC-web\c18\PIC-WEB-5-42-UEXT-full\Microchip\TCPIP Stack\HTTP2.c
                  __pa_12   0x00514e    program     static F:\PIC-web\c18\PIC-WEB-5-42-UEXT-full\Microchip\TCPIP Stack\HTTP2.c
                  __pa_13   0x005152    program     static F:\PIC-web\c18\PIC-WEB-5-42-UEXT-full\Microchip\TCPIP Stack\HTTP2.c
                  __pa_14   0x005164    program     static F:\PIC-web\c18\PIC-WEB-5-42-UEXT-full\Microchip\TCPIP Stack\HTTP2.c
                  __pa_15   0x005174    program     static F:\PIC-web\c18\PIC-WEB-5-42-UEXT-full\Microchip\TCPIP Stack\HTTP2.c
                  __pa_16   0x00517c    program     static F:\PIC-web\c18\PIC-WEB-5-42-UEXT-full\Microchip\TCPIP Stack\HTTP2.c
                  __pa_17   0x00518e    program     static F:\PIC-web\c18\PIC-WEB-5-42-UEXT-full\Microchip\TCPIP Stack\HTTP2.c
                  __pa_18   0x005198    program     static F:\PIC-web\c18\PIC-WEB-5-42-UEXT-full\Microchip\TCPIP Stack\HTTP2.c
                  __pa_19   0x0051ac    program     static F:\PIC-web\c18\PIC-WEB-5-42-UEXT-full\Microchip\TCPIP Stack\HTTP2.c
                  __pa_20   0x0051ca    program     static F:\PIC-web\c18\PIC-WEB-5-42-UEXT-full\Microchip\TCPIP Stack\HTTP2.c
                  __pa_21   0x0051d4    program     static F:\PIC-web\c18\PIC-WEB-5-42-UEXT-full\Microchip\TCPIP Stack\HTTP2.c
                  __pa_22   0x0051e4    program     static F:\PIC-web\c18\PIC-WEB-5-42-UEXT-full\Microchip\TCPIP Stack\HTTP2.c
                  __pa_23   0x0051fa    program     static F:\PIC-web\c18\PIC-WEB-5-42-UEXT-full\Microchip\TCPIP Stack\HTTP2.c
                  __pa_24   0x005212    program     static F:\PIC-web\c18\PIC-WEB-5-42-UEXT-full\Microchip\TCPIP Stack\HTTP2.c
                  __pa_25   0x005220    program     static F:\PIC-web\c18\PIC-WEB-5-42-UEXT-full\Microchip\TCPIP Stack\HTTP2.c
                  __pa_26   0x00522c    program     static F:\PIC-web\c18\PIC-WEB-5-42-UEXT-full\Microchip\TCPIP Stack\HTTP2.c
                  __pa_27   0x005236    program     static F:\PIC-web\c18\PIC-WEB-5-42-UEXT-full\Microchip\TCPIP Stack\HTTP2.c
                  __pa_28   0x00524a    program     static F:\PIC-web\c18\PIC-WEB-5-42-UEXT-full\Microchip\TCPIP Stack\HTTP2.c
                  __pa_29   0x005258    program     static F:\PIC-web\c18\PIC-WEB-5-42-UEXT-full\Microchip\TCPIP Stack\HTTP2.c
                  __pa_30   0x005266    program     static F:\PIC-web\c18\PIC-WEB-5-42-UEXT-full\Microchip\TCPIP Stack\HTTP2.c
                  __pa_31   0x005270    program     static F:\PIC-web\c18\PIC-WEB-5-42-UEXT-full\Microchip\TCPIP Stack\HTTP2.c
                  __pa_32   0x005284    program     static F:\PIC-web\c18\PIC-WEB-5-42-UEXT-full\Microchip\TCPIP Stack\HTTP2.c
                  __pa_33   0x00528a    program     static F:\PIC-web\c18\PIC-WEB-5-42-UEXT-full\Microchip\TCPIP Stack\HTTP2.c
                  __pa_34   0x00529e    program     static F:\PIC-web\c18\PIC-WEB-5-42-UEXT-full\Microchip\TCPIP Stack\HTTP2.c
                  __pa_35   0x0052b2    program     static F:\PIC-web\c18\PIC-WEB-5-42-UEXT-full\Microchip\TCPIP Stack\HTTP2.c
                  __pa_36   0x0052c4    program     static F:\PIC-web\c18\PIC-WEB-5-42-UEXT-full\Microchip\TCPIP Stack\HTTP2.c
                  __pa_37   0x0052d8    program     static F:\PIC-web\c18\PIC-WEB-5-42-UEXT-full\Microchip\TCPIP Stack\HTTP2.c
                  __pa_38   0x0052e8    program     static F:\PIC-web\c18\PIC-WEB-5-42-UEXT-full\Microchip\TCPIP Stack\HTTP2.c
                  __pa_39   0x0052fa    program     static F:\PIC-web\c18\PIC-WEB-5-42-UEXT-full\Microchip\TCPIP Stack\HTTP2.c
                  __pa_40   0x005304    program     static F:\PIC-web\c18\PIC-WEB-5-42-UEXT-full\Microchip\TCPIP Stack\HTTP2.c
                  __pa_41   0x00530e    program     static F:\PIC-web\c18\PIC-WEB-5-42-UEXT-full\Microchip\TCPIP Stack\HTTP2.c
                  __pa_42   0x00531a    program     static F:\PIC-web\c18\PIC-WEB-5-42-UEXT-full\Microchip\TCPIP Stack\HTTP2.c
                  __pa_43   0x005324    program     static F:\PIC-web\c18\PIC-WEB-5-42-UEXT-full\Microchip\TCPIP Stack\HTTP2.c
                  __pa_44   0x00532e    program     static F:\PIC-web\c18\PIC-WEB-5-42-UEXT-full\Microchip\TCPIP Stack\HTTP2.c
                  __pa_45   0x00533a    program     static F:\PIC-web\c18\PIC-WEB-5-42-UEXT-full\Microchip\TCPIP Stack\HTTP2.c
                  __pa_46   0x005348    program     static F:\PIC-web\c18\PIC-WEB-5-42-UEXT-full\Microchip\TCPIP Stack\HTTP2.c
                  __pa_47   0x005356    program     static F:\PIC-web\c18\PIC-WEB-5-42-UEXT-full\Microchip\TCPIP Stack\HTTP2.c
                  __pa_48   0x005364    program     static F:\PIC-web\c18\PIC-WEB-5-42-UEXT-full\Microchip\TCPIP Stack\HTTP2.c
                  __pa_49   0x00536e    program     static F:\PIC-web\c18\PIC-WEB-5-42-UEXT-full\Microchip\TCPIP Stack\HTTP2.c
                  __pa_50   0x005378    program     static F:\PIC-web\c18\PIC-WEB-5-42-UEXT-full\Microchip\TCPIP Stack\HTTP2.c
                  __pa_51   0x005382    program     static F:\PIC-web\c18\PIC-WEB-5-42-UEXT-full\Microchip\TCPIP Stack\HTTP2.c
                  __pa_52   0x00538c    program     static F:\PIC-web\c18\PIC-WEB-5-42-UEXT-full\Microchip\TCPIP Stack\HTTP2.c
                  __pa_53   0x005396    program     static F:\PIC-web\c18\PIC-WEB-5-42-UEXT-full\Microchip\TCPIP Stack\HTTP2.c
                  __pa_54   0x0053a0    program     static F:\PIC-web\c18\PIC-WEB-5-42-UEXT-full\Microchip\TCPIP Stack\HTTP2.c
                  __pa_55   0x0053aa    program     static F:\PIC-web\c18\PIC-WEB-5-42-UEXT-full\Microchip\TCPIP Stack\HTTP2.c
                  __pa_56   0x0053b0    program     static F:\PIC-web\c18\PIC-WEB-5-42-UEXT-full\Microchip\TCPIP Stack\HTTP2.c
                  __pa_57   0x0053c8    program     static F:\PIC-web\c18\PIC-WEB-5-42-UEXT-full\Microchip\TCPIP Stack\HTTP2.c
                  __pa_58   0x0053d2    program     static F:\PIC-web\c18\PIC-WEB-5-42-UEXT-full\Microchip\TCPIP Stack\HTTP2.c
                  __pa_59   0x0053dc    program     static F:\PIC-web\c18\PIC-WEB-5-42-UEXT-full\Microchip\TCPIP Stack\HTTP2.c
                  __pa_60   0x0053ea    program     static F:\PIC-web\c18\PIC-WEB-5-42-UEXT-full\Microchip\TCPIP Stack\HTTP2.c
                  __pa_61   0x0053f8    program     static F:\PIC-web\c18\PIC-WEB-5-42-UEXT-full\Microchip\TCPIP Stack\HTTP2.c
                  __pa_62   0x00540c    program     static F:\PIC-web\c18\PIC-WEB-5-42-UEXT-full\Microchip\TCPIP Stack\HTTP2.c
                  __pa_63   0x005416    program     static F:\PIC-web\c18\PIC-WEB-5-42-UEXT-full\Microchip\TCPIP Stack\HTTP2.c
                  __pa_64   0x005424    program     static F:\PIC-web\c18\PIC-WEB-5-42-UEXT-full\Microchip\TCPIP Stack\HTTP2.c
                  __pa_65   0x005432    program     static F:\PIC-web\c18\PIC-WEB-5-42-UEXT-full\Microchip\TCPIP Stack\HTTP2.c
                  __pa_66   0x005444    program     static F:\PIC-web\c18\PIC-WEB-5-42-UEXT-full\Microchip\TCPIP Stack\HTTP2.c
                  __pa_67   0x00544e    program     static F:\PIC-web\c18\PIC-WEB-5-42-UEXT-full\Microchip\TCPIP Stack\HTTP2.c
                  __pa_68   0x005454    program     static F:\PIC-web\c18\PIC-WEB-5-42-UEXT-full\Microchip\TCPIP Stack\HTTP2.c
                  __pa_69   0x005464    program     static F:\PIC-web\c18\PIC-WEB-5-42-UEXT-full\Microchip\TCPIP Stack\HTTP2.c
                  __pa_70   0x005472    program     static F:\PIC-web\c18\PIC-WEB-5-42-UEXT-full\Microchip\TCPIP Stack\HTTP2.c
                  __pa_71   0x00547e    program     static F:\PIC-web\c18\PIC-WEB-5-42-UEXT-full\Microchip\TCPIP Stack\HTTP2.c
                  __pa_72   0x00548a    program     static F:\PIC-web\c18\PIC-WEB-5-42-UEXT-full\Microchip\TCPIP Stack\HTTP2.c
                  __pa_73   0x005498    program     static F:\PIC-web\c18\PIC-WEB-5-42-UEXT-full\Microchip\TCPIP Stack\HTTP2.c
                  __pa_74   0x0054a0    program     static F:\PIC-web\c18\PIC-WEB-5-42-UEXT-full\Microchip\TCPIP Stack\HTTP2.c
                  __pa_75   0x0054aa    program     static F:\PIC-web\c18\PIC-WEB-5-42-UEXT-full\Microchip\TCPIP Stack\HTTP2.c
                  __pa_76   0x0054b8    program     static F:\PIC-web\c18\PIC-WEB-5-42-UEXT-full\Microchip\TCPIP Stack\HTTP2.c
                  __pa_77   0x0054ce    program     static F:\PIC-web\c18\PIC-WEB-5-42-UEXT-full\Microchip\TCPIP Stack\HTTP2.c
                  __pa_78   0x0054d4    program     static F:\PIC-web\c18\PIC-WEB-5-42-UEXT-full\Microchip\TCPIP Stack\HTTP2.c
                  __pa_79   0x0054ea    program     static F:\PIC-web\c18\PIC-WEB-5-42-UEXT-full\Microchip\TCPIP Stack\HTTP2.c
                  __pa_80   0x005504    program     static F:\PIC-web\c18\PIC-WEB-5-42-UEXT-full\Microchip\TCPIP Stack\HTTP2.c
                  __pa_81   0x00550c    program     static F:\PIC-web\c18\PIC-WEB-5-42-UEXT-full\Microchip\TCPIP Stack\HTTP2.c
                  __pa_82   0x005524    program     static F:\PIC-web\c18\PIC-WEB-5-42-UEXT-full\Microchip\TCPIP Stack\HTTP2.c
                  __pa_83   0x00552a    program     static F:\PIC-web\c18\PIC-WEB-5-42-UEXT-full\Microchip\TCPIP Stack\HTTP2.c
                  __pa_84   0x005530    program     static F:\PIC-web\c18\PIC-WEB-5-42-UEXT-full\Microchip\TCPIP Stack\HTTP2.c
                  __pa_85   0x005540    program     static F:\PIC-web\c18\PIC-WEB-5-42-UEXT-full\Microchip\TCPIP Stack\HTTP2.c
                  __pa_86   0x005550    program     static F:\PIC-web\c18\PIC-WEB-5-42-UEXT-full\Microchip\TCPIP Stack\HTTP2.c
                  __pa_87   0x00555e    program     static F:\PIC-web\c18\PIC-WEB-5-42-UEXT-full\Microchip\TCPIP Stack\HTTP2.c
                  __pa_88   0x00556c    program     static F:\PIC-web\c18\PIC-WEB-5-42-UEXT-full\Microchip\TCPIP Stack\HTTP2.c
                  __pa_89   0x00557a    program     static F:\PIC-web\c18\PIC-WEB-5-42-UEXT-full\Microchip\TCPIP Stack\HTTP2.c
                  __pa_90   0x005582    program     static F:\PIC-web\c18\PIC-WEB-5-42-UEXT-full\Microchip\TCPIP Stack\HTTP2.c
                  __pa_91   0x00558a    program     static F:\PIC-web\c18\PIC-WEB-5-42-UEXT-full\Microchip\TCPIP Stack\HTTP2.c
                  __pa_92   0x005590    program     static F:\PIC-web\c18\PIC-WEB-5-42-UEXT-full\Microchip\TCPIP Stack\HTTP2.c
                  __pa_93   0x00559c    program     static F:\PIC-web\c18\PIC-WEB-5-42-UEXT-full\Microchip\TCPIP Stack\HTTP2.c
                  __pa_94   0x0055a2    program     static F:\PIC-web\c18\PIC-WEB-5-42-UEXT-full\Microchip\TCPIP Stack\HTTP2.c
                  __pa_95   0x0055aa    program     static F:\PIC-web\c18\PIC-WEB-5-42-UEXT-full\Microchip\TCPIP Stack\HTTP2.c
                  __pa_96   0x0055b2    program     static F:\PIC-web\c18\PIC-WEB-5-42-UEXT-full\Microchip\TCPIP Stack\HTTP2.c
                  __pa_97   0x0055c8    program     static F:\PIC-web\c18\PIC-WEB-5-42-UEXT-full\Microchip\TCPIP Stack\HTTP2.c
                  __pa_98   0x0055d0    program     static F:\PIC-web\c18\PIC-WEB-5-42-UEXT-full\Microchip\TCPIP Stack\HTTP2.c
                  __pa_99   0x0055d8    program     static F:\PIC-web\c18\PIC-WEB-5-42-UEXT-full\Microchip\TCPIP Stack\HTTP2.c
                 __pa_100   0x0055de    program     static F:\PIC-web\c18\PIC-WEB-5-42-UEXT-full\Microchip\TCPIP Stack\HTTP2.c
            HTTPNeedsAuth   0x0055e8    program     extern F:\PIC-web\c18\PIC-WEB-5-42-UEXT-full\TCPIP\Demo App\CustomHTTPApp.c
            HTTPCheckAuth   0x00561a    program     extern F:\PIC-web\c18\PIC-WEB-5-42-UEXT-full\TCPIP\Demo App\CustomHTTPApp.c
           HTTPExecuteGet   0x00565c    program     extern F:\PIC-web\c18\PIC-WEB-5-42-UEXT-full\TCPIP\Demo App\CustomHTTPApp.c
           ___if_lbl00007   0x0056ce    program     static                          
           ___if_lbl00008   0x0056ce    program     static                          
          ___for_lbl00011   0x00575a    program     static                          
          ___for_lbl00009   0x0057e0    program     static                          
          ___for_lbl00010   0x0057ea    program     static                          
           ___if_lbl00012   0x0057fe    program     static                          
           ___if_lbl00014   0x005874    program     static                          
           ___if_lbl00013   0x005874    program     static                          
          ___for_lbl00017   0x005900    program     static                          
          ___for_lbl00015   0x005948    program     static                          
          ___for_lbl00016   0x005952    program     static                          
           ___if_lbl00018   0x005952    program     static                          
           ___if_lbl00019   0x005a30    program     static                          
           ___if_lbl00020   0x005a74    program     static                          
           ___if_lbl00021   0x005ab8    program     static                          
           ___if_lbl00022   0x005abc    program     static                          
           ___if_lbl00023   0x005b56    program     static                          
           ___do_lbl00028   0x005b56    program     static                          
        ___while_lbl00026   0x005b5e    program     static                          
        ___while_lbl00027   0x005b80    program     static                          
           ___do_lbl00025   0x005b80    program     static                          
           ___do_lbl00024   0x005b80    program     static                          
           ___if_lbl00029   0x005bb4    program     static                          
           ___if_lbl00030   0x005be8    program     static                          
           ___if_lbl00031   0x005be8    program     static                          
               __tmplbl_3   0x005c4e    program     static                          
               __tmplbl_2   0x005c52    program     static                          
           ___if_lbl00032   0x005c56    program     static                          
               __tmplbl_5   0x005c90    program     static                          
               __tmplbl_4   0x005c94    program     static                          
           ___if_lbl00033   0x005c98    program     static                          
               __tmplbl_7   0x005cd2    program     static                          
               __tmplbl_6   0x005cd6    program     static                          
           ___if_lbl00034   0x005cda    program     static                          
               __tmplbl_9   0x005d14    program     static                          
               __tmplbl_8   0x005d18    program     static                          
           ___if_lbl00035   0x005d22    program     static                          
         ___else_lbl00048   0x005d24    program     static                          
         ___else_lbl00046   0x005d56    program     static                          
      ___case_49_lbl00037   0x005dcc    program     static                          
      ___case_50_lbl00038   0x005dd0    program     static                          
      ___case_51_lbl00039   0x005dd4    program     static                          
      ___case_52_lbl00040   0x005dd8    program     static                          
      ___case_53_lbl00041   0x005ddc    program     static                          
      ___case_54_lbl00042   0x005de0    program     static                          
      ___case_55_lbl00043   0x005de4    program     static                          
           ___if_lbl00044   0x005de8    program     static                          
           ___if_lbl00045   0x005de8    program     static                          
           ___if_lbl00047   0x005de8    program     static                          
   ___switchexit_lbl00036   0x005de8    program     static                          
       ___return_lbl00006   0x005dec    program     static                          
          HTTPExecutePost   0x005dee    program     extern F:\PIC-web\c18\PIC-WEB-5-42-UEXT-full\TCPIP\Demo App\CustomHTTPApp.c
           HTTPPostConfig   0x005e5a    program     static F:\PIC-web\c18\PIC-WEB-5-42-UEXT-full\TCPIP\Demo App\CustomHTTPApp.c
              HTTPPostMD5   0x0061ba    program     static F:\PIC-web\c18\PIC-WEB-5-42-UEXT-full\TCPIP\Demo App\CustomHTTPApp.c
            HTTPPostEmail   0x00634c    program     static F:\PIC-web\c18\PIC-WEB-5-42-UEXT-full\TCPIP\Demo App\CustomHTTPApp.c
      HTTPPrint_builddate   0x006804    program     extern F:\PIC-web\c18\PIC-WEB-5-42-UEXT-full\TCPIP\Demo App\CustomHTTPApp.c
        HTTPPrint_version   0x00685e    program     extern F:\PIC-web\c18\PIC-WEB-5-42-UEXT-full\TCPIP\Demo App\CustomHTTPApp.c
            HTTPPrint_btn   0x00686e    program     extern F:\PIC-web\c18\PIC-WEB-5-42-UEXT-full\TCPIP\Demo App\CustomHTTPApp.c
            HTTPPrint_led   0x0068ce    program     extern F:\PIC-web\c18\PIC-WEB-5-42-UEXT-full\TCPIP\Demo App\CustomHTTPApp.c
    HTTPPrint_ledSelected   0x006946    program     extern F:\PIC-web\c18\PIC-WEB-5-42-UEXT-full\TCPIP\Demo App\CustomHTTPApp.c
           HTTPPrint_temp   0x0069d8    program     extern F:\PIC-web\c18\PIC-WEB-5-42-UEXT-full\TCPIP\Demo App\CustomHTTPApp.c
            HTTPPrint_pot   0x006b14    program     extern F:\PIC-web\c18\PIC-WEB-5-42-UEXT-full\TCPIP\Demo App\CustomHTTPApp.c
    HTTPPrint_UART_Output   0x006b4a    program     extern F:\PIC-web\c18\PIC-WEB-5-42-UEXT-full\TCPIP\Demo App\CustomHTTPApp.c
         HTTPPrint_I2CRes   0x006bb4    program     extern F:\PIC-web\c18\PIC-WEB-5-42-UEXT-full\TCPIP\Demo App\CustomHTTPApp.c
         HTTPPrint_SPIRes   0x006bbe    program     extern F:\PIC-web\c18\PIC-WEB-5-42-UEXT-full\TCPIP\Demo App\CustomHTTPApp.c
        HTTPPrint_lcdtext   0x006bc8    program     extern F:\PIC-web\c18\PIC-WEB-5-42-UEXT-full\TCPIP\Demo App\CustomHTTPApp.c
       HTTPPrint_hellomsg   0x006bea    program     extern F:\PIC-web\c18\PIC-WEB-5-42-UEXT-full\TCPIP\Demo App\CustomHTTPApp.c
     HTTPPrint_cookiename   0x006c14    program     extern F:\PIC-web\c18\PIC-WEB-5-42-UEXT-full\TCPIP\Demo App\CustomHTTPApp.c
   HTTPPrint_uploadeImage   0x006c40    program     extern F:\PIC-web\c18\PIC-WEB-5-42-UEXT-full\TCPIP\Demo App\CustomHTTPApp.c
    HTTPPrint_uploadedmd5   0x006c42    program     extern F:\PIC-web\c18\PIC-WEB-5-42-UEXT-full\TCPIP\Demo App\CustomHTTPApp.c
              HTTPPrintIP   0x006ca8    program     extern F:\PIC-web\c18\PIC-WEB-5-42-UEXT-full\TCPIP\Demo App\CustomHTTPApp.c
HTTPPrint_config_hostname   0x006cf4    program     extern F:\PIC-web\c18\PIC-WEB-5-42-UEXT-full\TCPIP\Demo App\CustomHTTPApp.c
HTTPPrint_config_dhcpchecked   0x006cfe    program     extern F:\PIC-web\c18\PIC-WEB-5-42-UEXT-full\TCPIP\Demo App\CustomHTTPApp.c
      HTTPPrint_config_ip   0x006d14    program     extern F:\PIC-web\c18\PIC-WEB-5-42-UEXT-full\TCPIP\Demo App\CustomHTTPApp.c
      HTTPPrint_config_gw   0x006d28    program     extern F:\PIC-web\c18\PIC-WEB-5-42-UEXT-full\TCPIP\Demo App\CustomHTTPApp.c
  HTTPPrint_config_subnet   0x006d3c    program     extern F:\PIC-web\c18\PIC-WEB-5-42-UEXT-full\TCPIP\Demo App\CustomHTTPApp.c
    HTTPPrint_config_dns1   0x006d50    program     extern F:\PIC-web\c18\PIC-WEB-5-42-UEXT-full\TCPIP\Demo App\CustomHTTPApp.c
    HTTPPrint_config_dns2   0x006d64    program     extern F:\PIC-web\c18\PIC-WEB-5-42-UEXT-full\TCPIP\Demo App\CustomHTTPApp.c
     HTTPPrint_config_mac   0x006d78    program     extern F:\PIC-web\c18\PIC-WEB-5-42-UEXT-full\TCPIP\Demo App\CustomHTTPApp.c
      HTTPPrint_read_comm   0x006db2    program     extern F:\PIC-web\c18\PIC-WEB-5-42-UEXT-full\TCPIP\Demo App\CustomHTTPApp.c
     HTTPPrint_write_comm   0x006db4    program     extern F:\PIC-web\c18\PIC-WEB-5-42-UEXT-full\TCPIP\Demo App\CustomHTTPApp.c
         HTTPPrint_reboot   0x006db6    program     extern F:\PIC-web\c18\PIC-WEB-5-42-UEXT-full\TCPIP\Demo App\CustomHTTPApp.c
       ___return_lbl00271   0x006db8    program     static                          
     HTTPPrint_rebootaddr   0x006dba    program     extern F:\PIC-web\c18\PIC-WEB-5-42-UEXT-full\TCPIP\Demo App\CustomHTTPApp.c
      HTTPPrint_ddns_user   0x006dc4    program     extern F:\PIC-web\c18\PIC-WEB-5-42-UEXT-full\TCPIP\Demo App\CustomHTTPApp.c
      HTTPPrint_ddns_pass   0x006dc6    program     extern F:\PIC-web\c18\PIC-WEB-5-42-UEXT-full\TCPIP\Demo App\CustomHTTPApp.c
      HTTPPrint_ddns_host   0x006dc8    program     extern F:\PIC-web\c18\PIC-WEB-5-42-UEXT-full\TCPIP\Demo App\CustomHTTPApp.c
   HTTPPrint_ddns_service   0x006dca    program     extern F:\PIC-web\c18\PIC-WEB-5-42-UEXT-full\TCPIP\Demo App\CustomHTTPApp.c
    HTTPPrint_ddns_status   0x006dcc    program     extern F:\PIC-web\c18\PIC-WEB-5-42-UEXT-full\TCPIP\Demo App\CustomHTTPApp.c
HTTPPrint_ddns_status_msg   0x006ddc    program     extern F:\PIC-web\c18\PIC-WEB-5-42-UEXT-full\TCPIP\Demo App\CustomHTTPApp.c
       HTTPPrint_smtps_en   0x006e02    program     extern F:\PIC-web\c18\PIC-WEB-5-42-UEXT-full\TCPIP\Demo App\CustomHTTPApp.c
        HTTPPrint_snmp_en   0x006e08    program     extern F:\PIC-web\c18\PIC-WEB-5-42-UEXT-full\TCPIP\Demo App\CustomHTTPApp.c
      HTTPPrint_status_ok   0x006e0e    program     extern F:\PIC-web\c18\PIC-WEB-5-42-UEXT-full\TCPIP\Demo App\CustomHTTPApp.c
    HTTPPrint_status_fail   0x006e22    program     extern F:\PIC-web\c18\PIC-WEB-5-42-UEXT-full\TCPIP\Demo App\CustomHTTPApp.c
                   __pa_0   0x006e36    program     static F:\PIC-web\c18\PIC-WEB-5-42-UEXT-full\TCPIP\Demo App\CustomHTTPApp.c
                   __pa_1   0x006e50    program     static F:\PIC-web\c18\PIC-WEB-5-42-UEXT-full\TCPIP\Demo App\CustomHTTPApp.c
                   __pa_2   0x006e56    program     static F:\PIC-web\c18\PIC-WEB-5-42-UEXT-full\TCPIP\Demo App\CustomHTTPApp.c
                   __pa_3   0x006e60    program     static F:\PIC-web\c18\PIC-WEB-5-42-UEXT-full\TCPIP\Demo App\CustomHTTPApp.c
                   __pa_4   0x006e66    program     static F:\PIC-web\c18\PIC-WEB-5-42-UEXT-full\TCPIP\Demo App\CustomHTTPApp.c
                   __pa_5   0x006e6e    program     static F:\PIC-web\c18\PIC-WEB-5-42-UEXT-full\TCPIP\Demo App\CustomHTTPApp.c
                   __pa_6   0x006e82    program     static F:\PIC-web\c18\PIC-WEB-5-42-UEXT-full\TCPIP\Demo App\CustomHTTPApp.c
                   __pa_7   0x006e96    program     static F:\PIC-web\c18\PIC-WEB-5-42-UEXT-full\TCPIP\Demo App\CustomHTTPApp.c
                   __pa_8   0x006ea2    program     static F:\PIC-web\c18\PIC-WEB-5-42-UEXT-full\TCPIP\Demo App\CustomHTTPApp.c
                   __pa_9   0x006eaa    program     static F:\PIC-web\c18\PIC-WEB-5-42-UEXT-full\TCPIP\Demo App\CustomHTTPApp.c
                  __pa_10   0x006ec2    program     static F:\PIC-web\c18\PIC-WEB-5-42-UEXT-full\TCPIP\Demo App\CustomHTTPApp.c
                  __pa_11   0x006ece    program     static F:\PIC-web\c18\PIC-WEB-5-42-UEXT-full\TCPIP\Demo App\CustomHTTPApp.c
                  __pa_12   0x006ed6    program     static F:\PIC-web\c18\PIC-WEB-5-42-UEXT-full\TCPIP\Demo App\CustomHTTPApp.c
                  __pa_13   0x006efc    program     static F:\PIC-web\c18\PIC-WEB-5-42-UEXT-full\TCPIP\Demo App\CustomHTTPApp.c
                  __pa_14   0x006f06    program     static F:\PIC-web\c18\PIC-WEB-5-42-UEXT-full\TCPIP\Demo App\CustomHTTPApp.c
                  __pa_15   0x006f16    program     static F:\PIC-web\c18\PIC-WEB-5-42-UEXT-full\TCPIP\Demo App\CustomHTTPApp.c
                  __pa_16   0x006f26    program     static F:\PIC-web\c18\PIC-WEB-5-42-UEXT-full\TCPIP\Demo App\CustomHTTPApp.c
                  __pa_17   0x006f2e    program     static F:\PIC-web\c18\PIC-WEB-5-42-UEXT-full\TCPIP\Demo App\CustomHTTPApp.c
              __tmplbl_73   0x006f4a    program     static                          
              __tmplbl_72   0x006f4a    program     static                          
              __tmplbl_74   0x006f4a    program     static                          
                  __pa_18   0x006f4a    program     static F:\PIC-web\c18\PIC-WEB-5-42-UEXT-full\TCPIP\Demo App\CustomHTTPApp.c
              __tmplbl_75   0x006f4a    program     static                          
              __tmplbl_76   0x006f4a    program     static                          
                  __pa_19   0x006f52    program     static F:\PIC-web\c18\PIC-WEB-5-42-UEXT-full\TCPIP\Demo App\CustomHTTPApp.c
                  __pa_20   0x006f62    program     static F:\PIC-web\c18\PIC-WEB-5-42-UEXT-full\TCPIP\Demo App\CustomHTTPApp.c
                  __pa_21   0x006f70    program     static F:\PIC-web\c18\PIC-WEB-5-42-UEXT-full\TCPIP\Demo App\CustomHTTPApp.c
                  __pa_22   0x006f7e    program     static F:\PIC-web\c18\PIC-WEB-5-42-UEXT-full\TCPIP\Demo App\CustomHTTPApp.c
                  __pa_23   0x006f86    program     static F:\PIC-web\c18\PIC-WEB-5-42-UEXT-full\TCPIP\Demo App\CustomHTTPApp.c
                  __pa_24   0x006f8e    program     static F:\PIC-web\c18\PIC-WEB-5-42-UEXT-full\TCPIP\Demo App\CustomHTTPApp.c
                  __pa_25   0x006f96    program     static F:\PIC-web\c18\PIC-WEB-5-42-UEXT-full\TCPIP\Demo App\CustomHTTPApp.c
                  __pa_26   0x006f9e    program     static F:\PIC-web\c18\PIC-WEB-5-42-UEXT-full\TCPIP\Demo App\CustomHTTPApp.c
                  __pa_27   0x006fa4    program     static F:\PIC-web\c18\PIC-WEB-5-42-UEXT-full\TCPIP\Demo App\CustomHTTPApp.c
                  __pa_28   0x006fb6    program     static F:\PIC-web\c18\PIC-WEB-5-42-UEXT-full\TCPIP\Demo App\CustomHTTPApp.c
                  __pa_29   0x006fc2    program     static F:\PIC-web\c18\PIC-WEB-5-42-UEXT-full\TCPIP\Demo App\CustomHTTPApp.c
                  __pa_30   0x006fd2    program     static F:\PIC-web\c18\PIC-WEB-5-42-UEXT-full\TCPIP\Demo App\CustomHTTPApp.c
                  __pa_31   0x006fe2    program     static F:\PIC-web\c18\PIC-WEB-5-42-UEXT-full\TCPIP\Demo App\CustomHTTPApp.c
                  __pa_32   0x006ff2    program     static F:\PIC-web\c18\PIC-WEB-5-42-UEXT-full\TCPIP\Demo App\CustomHTTPApp.c
                  __pa_33   0x006ffa    program     static F:\PIC-web\c18\PIC-WEB-5-42-UEXT-full\TCPIP\Demo App\CustomHTTPApp.c
                  __pa_34   0x007008    program     static F:\PIC-web\c18\PIC-WEB-5-42-UEXT-full\TCPIP\Demo App\CustomHTTPApp.c
                  __pa_35   0x007012    program     static F:\PIC-web\c18\PIC-WEB-5-42-UEXT-full\TCPIP\Demo App\CustomHTTPApp.c
                  __pa_36   0x00701a    program     static F:\PIC-web\c18\PIC-WEB-5-42-UEXT-full\TCPIP\Demo App\CustomHTTPApp.c
                  __pa_37   0x007026    program     static F:\PIC-web\c18\PIC-WEB-5-42-UEXT-full\TCPIP\Demo App\CustomHTTPApp.c
                  __pa_38   0x00702e    program     static F:\PIC-web\c18\PIC-WEB-5-42-UEXT-full\TCPIP\Demo App\CustomHTTPApp.c
                  __pa_39   0x00703a    program     static F:\PIC-web\c18\PIC-WEB-5-42-UEXT-full\TCPIP\Demo App\CustomHTTPApp.c
                  __pa_40   0x00704c    program     static F:\PIC-web\c18\PIC-WEB-5-42-UEXT-full\TCPIP\Demo App\CustomHTTPApp.c
                  __pa_41   0x007060    program     static F:\PIC-web\c18\PIC-WEB-5-42-UEXT-full\TCPIP\Demo App\CustomHTTPApp.c
                  __pa_42   0x00706a    program     static F:\PIC-web\c18\PIC-WEB-5-42-UEXT-full\TCPIP\Demo App\CustomHTTPApp.c
                  __pa_43   0x007070    program     static F:\PIC-web\c18\PIC-WEB-5-42-UEXT-full\TCPIP\Demo App\CustomHTTPApp.c
                  __pa_44   0x007088    program     static F:\PIC-web\c18\PIC-WEB-5-42-UEXT-full\TCPIP\Demo App\CustomHTTPApp.c
                  __pa_45   0x00708e    program     static F:\PIC-web\c18\PIC-WEB-5-42-UEXT-full\TCPIP\Demo App\CustomHTTPApp.c
                  __pa_46   0x00709e    program     static F:\PIC-web\c18\PIC-WEB-5-42-UEXT-full\TCPIP\Demo App\CustomHTTPApp.c
                  __pa_47   0x0070aa    program     static F:\PIC-web\c18\PIC-WEB-5-42-UEXT-full\TCPIP\Demo App\CustomHTTPApp.c
                  __pa_48   0x0070b8    program     static F:\PIC-web\c18\PIC-WEB-5-42-UEXT-full\TCPIP\Demo App\CustomHTTPApp.c
                  __pa_49   0x0070c8    program     static F:\PIC-web\c18\PIC-WEB-5-42-UEXT-full\TCPIP\Demo App\CustomHTTPApp.c
                  __pa_50   0x0070d6    program     static F:\PIC-web\c18\PIC-WEB-5-42-UEXT-full\TCPIP\Demo App\CustomHTTPApp.c
                  __pa_51   0x0070dc    program     static F:\PIC-web\c18\PIC-WEB-5-42-UEXT-full\TCPIP\Demo App\CustomHTTPApp.c
                  __pa_52   0x0070e6    program     static F:\PIC-web\c18\PIC-WEB-5-42-UEXT-full\TCPIP\Demo App\CustomHTTPApp.c
                  __pa_53   0x0070f0    program     static F:\PIC-web\c18\PIC-WEB-5-42-UEXT-full\TCPIP\Demo App\CustomHTTPApp.c
                  __pa_54   0x0070f8    program     static F:\PIC-web\c18\PIC-WEB-5-42-UEXT-full\TCPIP\Demo App\CustomHTTPApp.c
                  __pa_55   0x0070fe    program     static F:\PIC-web\c18\PIC-WEB-5-42-UEXT-full\TCPIP\Demo App\CustomHTTPApp.c
                  __pa_56   0x00710a    program     static F:\PIC-web\c18\PIC-WEB-5-42-UEXT-full\TCPIP\Demo App\CustomHTTPApp.c
                  __pa_57   0x007114    program     static F:\PIC-web\c18\PIC-WEB-5-42-UEXT-full\TCPIP\Demo App\CustomHTTPApp.c
                  __pa_58   0x00711e    program     static F:\PIC-web\c18\PIC-WEB-5-42-UEXT-full\TCPIP\Demo App\CustomHTTPApp.c
                  __pa_59   0x007124    program     static F:\PIC-web\c18\PIC-WEB-5-42-UEXT-full\TCPIP\Demo App\CustomHTTPApp.c
           SMTPBeginUsage   0x00712a    program     extern F:\PIC-web\c18\PIC-WEB-5-42-UEXT-full\Microchip\TCPIP Stack\SMTP.c
             SMTPEndUsage   0x007160    program     extern F:\PIC-web\c18\PIC-WEB-5-42-UEXT-full\Microchip\TCPIP Stack\SMTP.c
                 SMTPTask   0x00719a    program     extern F:\PIC-web\c18\PIC-WEB-5-42-UEXT-full\Microchip\TCPIP Stack\SMTP.c
              __tmplbl_84   0x007c46    program     static                          
              __tmplbl_88   0x007c4a    program     static                          
              __tmplbl_91   0x007c4a    program     static                          
              __tmplbl_92   0x007c4a    program     static                          
             SMTPSendMail   0x007c4c    program     extern F:\PIC-web\c18\PIC-WEB-5-42-UEXT-full\Microchip\TCPIP Stack\SMTP.c
               SMTPIsBusy   0x007c52    program     extern F:\PIC-web\c18\PIC-WEB-5-42-UEXT-full\Microchip\TCPIP Stack\SMTP.c
           SMTPIsPutReady   0x007c5c    program     extern F:\PIC-web\c18\PIC-WEB-5-42-UEXT-full\Microchip\TCPIP Stack\SMTP.c
                  SMTPPut   0x007c72    program     extern F:\PIC-web\c18\PIC-WEB-5-42-UEXT-full\Microchip\TCPIP Stack\SMTP.c
             SMTPPutArray   0x007cd4    program     extern F:\PIC-web\c18\PIC-WEB-5-42-UEXT-full\Microchip\TCPIP Stack\SMTP.c
          SMTPPutROMArray   0x007d24    program     extern F:\PIC-web\c18\PIC-WEB-5-42-UEXT-full\Microchip\TCPIP Stack\SMTP.c
            SMTPPutString   0x007d76    program     extern F:\PIC-web\c18\PIC-WEB-5-42-UEXT-full\Microchip\TCPIP Stack\SMTP.c
         SMTPPutROMString   0x007dbe    program     extern F:\PIC-web\c18\PIC-WEB-5-42-UEXT-full\Microchip\TCPIP Stack\SMTP.c
                SMTPFlush   0x007e0e    program     extern F:\PIC-web\c18\PIC-WEB-5-42-UEXT-full\Microchip\TCPIP Stack\SMTP.c
              SMTPPutDone   0x007e12    program     extern F:\PIC-web\c18\PIC-WEB-5-42-UEXT-full\Microchip\TCPIP Stack\SMTP.c
         FindEmailAddress   0x007e18    program     static F:\PIC-web\c18\PIC-WEB-5-42-UEXT-full\Microchip\TCPIP Stack\SMTP.c
      FindROMEmailAddress   0x007eb0    program     static F:\PIC-web\c18\PIC-WEB-5-42-UEXT-full\Microchip\TCPIP Stack\SMTP.c
                   __pa_0   0x007f54    program     static F:\PIC-web\c18\PIC-WEB-5-42-UEXT-full\Microchip\TCPIP Stack\SMTP.c
                   __pa_1   0x007f80    program     static F:\PIC-web\c18\PIC-WEB-5-42-UEXT-full\Microchip\TCPIP Stack\SMTP.c
                   __pa_2   0x007fce    program     static F:\PIC-web\c18\PIC-WEB-5-42-UEXT-full\Microchip\TCPIP Stack\SMTP.c
                   __pa_3   0x007fe8    program     static F:\PIC-web\c18\PIC-WEB-5-42-UEXT-full\Microchip\TCPIP Stack\SMTP.c
                   __pa_4   0x008006    program     static F:\PIC-web\c18\PIC-WEB-5-42-UEXT-full\Microchip\TCPIP Stack\SMTP.c
                   __pa_5   0x008018    program     static F:\PIC-web\c18\PIC-WEB-5-42-UEXT-full\Microchip\TCPIP Stack\SMTP.c
                   __pa_6   0x008020    program     static F:\PIC-web\c18\PIC-WEB-5-42-UEXT-full\Microchip\TCPIP Stack\SMTP.c
                   __pa_7   0x00804a    program     static F:\PIC-web\c18\PIC-WEB-5-42-UEXT-full\Microchip\TCPIP Stack\SMTP.c
                   __pa_8   0x008062    program     static F:\PIC-web\c18\PIC-WEB-5-42-UEXT-full\Microchip\TCPIP Stack\SMTP.c
                   __pa_9   0x008068    program     static F:\PIC-web\c18\PIC-WEB-5-42-UEXT-full\Microchip\TCPIP Stack\SMTP.c
                  __pa_10   0x00806e    program     static F:\PIC-web\c18\PIC-WEB-5-42-UEXT-full\Microchip\TCPIP Stack\SMTP.c
                  __pa_11   0x00808e    program     static F:\PIC-web\c18\PIC-WEB-5-42-UEXT-full\Microchip\TCPIP Stack\SMTP.c
                  __pa_12   0x0080ac    program     static F:\PIC-web\c18\PIC-WEB-5-42-UEXT-full\Microchip\TCPIP Stack\SMTP.c
                  __pa_13   0x0080be    program     static F:\PIC-web\c18\PIC-WEB-5-42-UEXT-full\Microchip\TCPIP Stack\SMTP.c
                  __pa_14   0x0080ca    program     static F:\PIC-web\c18\PIC-WEB-5-42-UEXT-full\Microchip\TCPIP Stack\SMTP.c
                  __pa_15   0x0080e4    program     static F:\PIC-web\c18\PIC-WEB-5-42-UEXT-full\Microchip\TCPIP Stack\SMTP.c
                  __pa_16   0x0080fe    program     static F:\PIC-web\c18\PIC-WEB-5-42-UEXT-full\Microchip\TCPIP Stack\SMTP.c
                  __pa_17   0x008106    program     static F:\PIC-web\c18\PIC-WEB-5-42-UEXT-full\Microchip\TCPIP Stack\SMTP.c
                  __pa_18   0x00811c    program     static F:\PIC-web\c18\PIC-WEB-5-42-UEXT-full\Microchip\TCPIP Stack\SMTP.c
                  __pa_19   0x00812a    program     static F:\PIC-web\c18\PIC-WEB-5-42-UEXT-full\Microchip\TCPIP Stack\SMTP.c
                  __pa_20   0x008132    program     static F:\PIC-web\c18\PIC-WEB-5-42-UEXT-full\Microchip\TCPIP Stack\SMTP.c
                  __pa_21   0x008146    program     static F:\PIC-web\c18\PIC-WEB-5-42-UEXT-full\Microchip\TCPIP Stack\SMTP.c
                  __pa_22   0x00815a    program     static F:\PIC-web\c18\PIC-WEB-5-42-UEXT-full\Microchip\TCPIP Stack\SMTP.c
                  __pa_23   0x00816c    program     static F:\PIC-web\c18\PIC-WEB-5-42-UEXT-full\Microchip\TCPIP Stack\SMTP.c
                  __pa_24   0x00817e    program     static F:\PIC-web\c18\PIC-WEB-5-42-UEXT-full\Microchip\TCPIP Stack\SMTP.c
                  __pa_25   0x008190    program     static F:\PIC-web\c18\PIC-WEB-5-42-UEXT-full\Microchip\TCPIP Stack\SMTP.c
                  __pa_26   0x0081a2    program     static F:\PIC-web\c18\PIC-WEB-5-42-UEXT-full\Microchip\TCPIP Stack\SMTP.c
                  __pa_27   0x0081ae    program     static F:\PIC-web\c18\PIC-WEB-5-42-UEXT-full\Microchip\TCPIP Stack\SMTP.c
                  __pa_28   0x0081b8    program     static F:\PIC-web\c18\PIC-WEB-5-42-UEXT-full\Microchip\TCPIP Stack\SMTP.c
                  __pa_29   0x0081c2    program     static F:\PIC-web\c18\PIC-WEB-5-42-UEXT-full\Microchip\TCPIP Stack\SMTP.c
                  __pa_30   0x0081d2    program     static F:\PIC-web\c18\PIC-WEB-5-42-UEXT-full\Microchip\TCPIP Stack\SMTP.c
                  __pa_31   0x0081e2    program     static F:\PIC-web\c18\PIC-WEB-5-42-UEXT-full\Microchip\TCPIP Stack\SMTP.c
                  __pa_32   0x0081f0    program     static F:\PIC-web\c18\PIC-WEB-5-42-UEXT-full\Microchip\TCPIP Stack\SMTP.c
                  __pa_33   0x0081fe    program     static F:\PIC-web\c18\PIC-WEB-5-42-UEXT-full\Microchip\TCPIP Stack\SMTP.c
                  __pa_34   0x00820c    program     static F:\PIC-web\c18\PIC-WEB-5-42-UEXT-full\Microchip\TCPIP Stack\SMTP.c
                  __pa_35   0x008218    program     static F:\PIC-web\c18\PIC-WEB-5-42-UEXT-full\Microchip\TCPIP Stack\SMTP.c
                  __pa_36   0x008222    program     static F:\PIC-web\c18\PIC-WEB-5-42-UEXT-full\Microchip\TCPIP Stack\SMTP.c
                  __pa_37   0x00822c    program     static F:\PIC-web\c18\PIC-WEB-5-42-UEXT-full\Microchip\TCPIP Stack\SMTP.c
                  __pa_38   0x008232    program     static F:\PIC-web\c18\PIC-WEB-5-42-UEXT-full\Microchip\TCPIP Stack\SMTP.c
                  __pa_39   0x00823e    program     static F:\PIC-web\c18\PIC-WEB-5-42-UEXT-full\Microchip\TCPIP Stack\SMTP.c
                  __pa_40   0x00824a    program     static F:\PIC-web\c18\PIC-WEB-5-42-UEXT-full\Microchip\TCPIP Stack\SMTP.c
                  __pa_41   0x008256    program     static F:\PIC-web\c18\PIC-WEB-5-42-UEXT-full\Microchip\TCPIP Stack\SMTP.c
                  __pa_42   0x00825e    program     static F:\PIC-web\c18\PIC-WEB-5-42-UEXT-full\Microchip\TCPIP Stack\SMTP.c
                  __pa_43   0x008264    program     static F:\PIC-web\c18\PIC-WEB-5-42-UEXT-full\Microchip\TCPIP Stack\SMTP.c
                  __pa_44   0x00826c    program     static F:\PIC-web\c18\PIC-WEB-5-42-UEXT-full\Microchip\TCPIP Stack\SMTP.c
               __string_0   0x00827a    program     static F:\PIC-web\c18\PIC-WEB-5-42-UEXT-full\Microchip\TCPIP Stack\Announce.c
              __string_54   0x008296    program     static F:\PIC-web\c18\PIC-WEB-5-42-UEXT-full\Microchip\TCPIP Stack\HTTP2.c
              __string_53   0x0082a1    program     static F:\PIC-web\c18\PIC-WEB-5-42-UEXT-full\Microchip\TCPIP Stack\HTTP2.c
              __string_52   0x0082a6    program     static F:\PIC-web\c18\PIC-WEB-5-42-UEXT-full\Microchip\TCPIP Stack\HTTP2.c
              __string_51   0x0082b3    program     static F:\PIC-web\c18\PIC-WEB-5-42-UEXT-full\Microchip\TCPIP Stack\HTTP2.c
              __string_50   0x0082b7    program     static F:\PIC-web\c18\PIC-WEB-5-42-UEXT-full\Microchip\TCPIP Stack\HTTP2.c
              __string_49   0x0082c0    program     static F:\PIC-web\c18\PIC-WEB-5-42-UEXT-full\Microchip\TCPIP Stack\HTTP2.c
              __string_48   0x0082c9    program     static F:\PIC-web\c18\PIC-WEB-5-42-UEXT-full\Microchip\TCPIP Stack\HTTP2.c
              __string_47   0x0082d9    program     static F:\PIC-web\c18\PIC-WEB-5-42-UEXT-full\Microchip\TCPIP Stack\HTTP2.c
              __string_46   0x0082f2    program     static F:\PIC-web\c18\PIC-WEB-5-42-UEXT-full\Microchip\TCPIP Stack\HTTP2.c
              __string_45   0x008301    program     static F:\PIC-web\c18\PIC-WEB-5-42-UEXT-full\Microchip\TCPIP Stack\HTTP2.c
              __string_44   0x008314    program     static F:\PIC-web\c18\PIC-WEB-5-42-UEXT-full\Microchip\TCPIP Stack\HTTP2.c
              __string_43   0x00831e    program     static F:\PIC-web\c18\PIC-WEB-5-42-UEXT-full\Microchip\TCPIP Stack\HTTP2.c
              __string_42   0x008329    program     static F:\PIC-web\c18\PIC-WEB-5-42-UEXT-full\Microchip\TCPIP Stack\HTTP2.c
              __string_41   0x00832e    program     static F:\PIC-web\c18\PIC-WEB-5-42-UEXT-full\Microchip\TCPIP Stack\HTTP2.c
              __string_40   0x008332    program     static F:\PIC-web\c18\PIC-WEB-5-42-UEXT-full\Microchip\TCPIP Stack\HTTP2.c
              __string_39   0x008342    program     static F:\PIC-web\c18\PIC-WEB-5-42-UEXT-full\Microchip\TCPIP Stack\HTTP2.c
              __string_38   0x008351    program     static F:\PIC-web\c18\PIC-WEB-5-42-UEXT-full\Microchip\TCPIP Stack\HTTP2.c
              __string_37   0x008359    program     static F:\PIC-web\c18\PIC-WEB-5-42-UEXT-full\Microchip\TCPIP Stack\HTTP2.c
              __string_36   0x0083b0    program     static F:\PIC-web\c18\PIC-WEB-5-42-UEXT-full\Microchip\TCPIP Stack\HTTP2.c
              __string_35   0x0083e2    program     static F:\PIC-web\c18\PIC-WEB-5-42-UEXT-full\Microchip\TCPIP Stack\HTTP2.c
              __string_34   0x0084b5    program     static F:\PIC-web\c18\PIC-WEB-5-42-UEXT-full\Microchip\TCPIP Stack\HTTP2.c
              __string_33   0x008562    program     static F:\PIC-web\c18\PIC-WEB-5-42-UEXT-full\Microchip\TCPIP Stack\HTTP2.c
              __string_32   0x008682    program     static F:\PIC-web\c18\PIC-WEB-5-42-UEXT-full\Microchip\TCPIP Stack\HTTP2.c
              __string_31   0x0086e8    program     static F:\PIC-web\c18\PIC-WEB-5-42-UEXT-full\Microchip\TCPIP Stack\HTTP2.c
              __string_30   0x008758    program     static F:\PIC-web\c18\PIC-WEB-5-42-UEXT-full\Microchip\TCPIP Stack\HTTP2.c
              __string_29   0x0087c5    program     static F:\PIC-web\c18\PIC-WEB-5-42-UEXT-full\Microchip\TCPIP Stack\HTTP2.c
              __string_28   0x008863    program     static F:\PIC-web\c18\PIC-WEB-5-42-UEXT-full\Microchip\TCPIP Stack\HTTP2.c
              __string_27   0x0088e4    program     static F:\PIC-web\c18\PIC-WEB-5-42-UEXT-full\Microchip\TCPIP Stack\HTTP2.c
              __string_26   0x008942    program     static F:\PIC-web\c18\PIC-WEB-5-42-UEXT-full\Microchip\TCPIP Stack\HTTP2.c
              __string_25   0x008967    program     static F:\PIC-web\c18\PIC-WEB-5-42-UEXT-full\Microchip\TCPIP Stack\HTTP2.c
              __string_24   0x008968    program     static F:\PIC-web\c18\PIC-WEB-5-42-UEXT-full\Microchip\TCPIP Stack\HTTP2.c
              __string_23   0x008975    program     static F:\PIC-web\c18\PIC-WEB-5-42-UEXT-full\Microchip\TCPIP Stack\HTTP2.c
              __string_22   0x008989    program     static F:\PIC-web\c18\PIC-WEB-5-42-UEXT-full\Microchip\TCPIP Stack\HTTP2.c
              __string_21   0x008994    program     static F:\PIC-web\c18\PIC-WEB-5-42-UEXT-full\Microchip\TCPIP Stack\HTTP2.c
              __string_20   0x00899e    program     static F:\PIC-web\c18\PIC-WEB-5-42-UEXT-full\Microchip\TCPIP Stack\HTTP2.c
              __string_19   0x0089a8    program     static F:\PIC-web\c18\PIC-WEB-5-42-UEXT-full\Microchip\TCPIP Stack\HTTP2.c
              __string_18   0x0089b1    program     static F:\PIC-web\c18\PIC-WEB-5-42-UEXT-full\Microchip\TCPIP Stack\HTTP2.c
              __string_17   0x0089ba    program     static F:\PIC-web\c18\PIC-WEB-5-42-UEXT-full\Microchip\TCPIP Stack\HTTP2.c
              __string_16   0x0089c4    program     static F:\PIC-web\c18\PIC-WEB-5-42-UEXT-full\Microchip\TCPIP Stack\HTTP2.c
              __string_15   0x0089cf    program     static F:\PIC-web\c18\PIC-WEB-5-42-UEXT-full\Microchip\TCPIP Stack\HTTP2.c
              __string_14   0x0089d3    program     static F:\PIC-web\c18\PIC-WEB-5-42-UEXT-full\Microchip\TCPIP Stack\HTTP2.c
              __string_13   0x0089d7    program     static F:\PIC-web\c18\PIC-WEB-5-42-UEXT-full\Microchip\TCPIP Stack\HTTP2.c
              __string_12   0x0089db    program     static F:\PIC-web\c18\PIC-WEB-5-42-UEXT-full\Microchip\TCPIP Stack\HTTP2.c
              __string_11   0x0089df    program     static F:\PIC-web\c18\PIC-WEB-5-42-UEXT-full\Microchip\TCPIP Stack\HTTP2.c
              __string_10   0x0089e3    program     static F:\PIC-web\c18\PIC-WEB-5-42-UEXT-full\Microchip\TCPIP Stack\HTTP2.c
               __string_9   0x0089e7    program     static F:\PIC-web\c18\PIC-WEB-5-42-UEXT-full\Microchip\TCPIP Stack\HTTP2.c
               __string_8   0x0089eb    program     static F:\PIC-web\c18\PIC-WEB-5-42-UEXT-full\Microchip\TCPIP Stack\HTTP2.c
               __string_7   0x0089ef    program     static F:\PIC-web\c18\PIC-WEB-5-42-UEXT-full\Microchip\TCPIP Stack\HTTP2.c
               __string_6   0x0089f3    program     static F:\PIC-web\c18\PIC-WEB-5-42-UEXT-full\Microchip\TCPIP Stack\HTTP2.c
               __string_5   0x0089f8    program     static F:\PIC-web\c18\PIC-WEB-5-42-UEXT-full\Microchip\TCPIP Stack\HTTP2.c
               __string_4   0x0089fc    program     static F:\PIC-web\c18\PIC-WEB-5-42-UEXT-full\Microchip\TCPIP Stack\HTTP2.c
               __string_2   0x008a00    program     static F:\PIC-web\c18\PIC-WEB-5-42-UEXT-full\Microchip\TCPIP Stack\HTTP2.c
               __string_1   0x008a05    program     static F:\PIC-web\c18\PIC-WEB-5-42-UEXT-full\Microchip\TCPIP Stack\HTTP2.c
               __string_0   0x008a10    program     static F:\PIC-web\c18\PIC-WEB-5-42-UEXT-full\Microchip\TCPIP Stack\HTTP2.c
               __string_0   0x008a1b    program     static F:\PIC-web\c18\PIC-WEB-5-42-UEXT-full\Microchip\TCPIP Stack\MPFS2.c
              __string_14   0x008a22    program     static F:\PIC-web\c18\PIC-WEB-5-42-UEXT-full\Microchip\TCPIP Stack\SMTP.c
              __string_13   0x008a29    program     static F:\PIC-web\c18\PIC-WEB-5-42-UEXT-full\Microchip\TCPIP Stack\SMTP.c
              __string_12   0x008a2d    program     static F:\PIC-web\c18\PIC-WEB-5-42-UEXT-full\Microchip\TCPIP Stack\SMTP.c
              __string_11   0x008a33    program     static F:\PIC-web\c18\PIC-WEB-5-42-UEXT-full\Microchip\TCPIP Stack\SMTP.c
              __string_10   0x008a3f    program     static F:\PIC-web\c18\PIC-WEB-5-42-UEXT-full\Microchip\TCPIP Stack\SMTP.c
               __string_9   0x008a46    program     static F:\PIC-web\c18\PIC-WEB-5-42-UEXT-full\Microchip\TCPIP Stack\SMTP.c
               __string_8   0x008a4d    program     static F:\PIC-web\c18\PIC-WEB-5-42-UEXT-full\Microchip\TCPIP Stack\SMTP.c
               __string_7   0x008a54    program     static F:\PIC-web\c18\PIC-WEB-5-42-UEXT-full\Microchip\TCPIP Stack\SMTP.c
               __string_6   0x008a5b    program     static F:\PIC-web\c18\PIC-WEB-5-42-UEXT-full\Microchip\TCPIP Stack\SMTP.c
               __string_5   0x008a65    program     static F:\PIC-web\c18\PIC-WEB-5-42-UEXT-full\Microchip\TCPIP Stack\SMTP.c
               __string_4   0x008a69    program     static F:\PIC-web\c18\PIC-WEB-5-42-UEXT-full\Microchip\TCPIP Stack\SMTP.c
               __string_3   0x008a75    program     static F:\PIC-web\c18\PIC-WEB-5-42-UEXT-full\Microchip\TCPIP Stack\SMTP.c
               __string_2   0x008a78    program     static F:\PIC-web\c18\PIC-WEB-5-42-UEXT-full\Microchip\TCPIP Stack\SMTP.c
               __string_1   0x008a85    program     static F:\PIC-web\c18\PIC-WEB-5-42-UEXT-full\Microchip\TCPIP Stack\SMTP.c
               __string_0   0x008a96    program     static F:\PIC-web\c18\PIC-WEB-5-42-UEXT-full\Microchip\TCPIP Stack\SMTP.c
               __string_0   0x008aa7    program     static F:\PIC-web\c18\PIC-WEB-5-42-UEXT-full\Microchip\TCPIP Stack\SNTP.c
               __string_3   0x008ab4    program     static F:\PIC-web\c18\PIC-WEB-5-42-UEXT-full\Microchip\TCPIP Stack\TCPPerformanceTest.c
               __string_2   0x008ac4    program     static F:\PIC-web\c18\PIC-WEB-5-42-UEXT-full\Microchip\TCPIP Stack\TCPPerformanceTest.c
               __string_1   0x008ae5    program     static F:\PIC-web\c18\PIC-WEB-5-42-UEXT-full\Microchip\TCPIP Stack\TCPPerformanceTest.c
               __string_0   0x008aed    program     static F:\PIC-web\c18\PIC-WEB-5-42-UEXT-full\Microchip\TCPIP Stack\TCPPerformanceTest.c
              __string_16   0x008b0b    program     static F:\PIC-web\c18\PIC-WEB-5-42-UEXT-full\Microchip\TCPIP Stack\Telnet.c
              __string_15   0x008b13    program     static F:\PIC-web\c18\PIC-WEB-5-42-UEXT-full\Microchip\TCPIP Stack\Telnet.c
              __string_14   0x008b1c    program     static F:\PIC-web\c18\PIC-WEB-5-42-UEXT-full\Microchip\TCPIP Stack\Telnet.c
              __string_13   0x008b25    program     static F:\PIC-web\c18\PIC-WEB-5-42-UEXT-full\Microchip\TCPIP Stack\Telnet.c
              __string_12   0x008b2e    program     static F:\PIC-web\c18\PIC-WEB-5-42-UEXT-full\Microchip\TCPIP Stack\Telnet.c
              __string_11   0x008b37    program     static F:\PIC-web\c18\PIC-WEB-5-42-UEXT-full\Microchip\TCPIP Stack\Telnet.c
              __string_10   0x008b3c    program     static F:\PIC-web\c18\PIC-WEB-5-42-UEXT-full\Microchip\TCPIP Stack\Telnet.c
               __string_9   0x008b46    program     static F:\PIC-web\c18\PIC-WEB-5-42-UEXT-full\Microchip\TCPIP Stack\Telnet.c
               __string_8   0x008b57    program     static F:\PIC-web\c18\PIC-WEB-5-42-UEXT-full\Microchip\TCPIP Stack\Telnet.c
               __string_7   0x008b5d    program     static F:\PIC-web\c18\PIC-WEB-5-42-UEXT-full\Microchip\TCPIP Stack\Telnet.c
              __string_76   0x008b70    program     static F:\PIC-web\c18\PIC-WEB-5-42-UEXT-full\TCPIP\Demo App\CustomHTTPApp.c
              __string_75   0x008b76    program     static F:\PIC-web\c18\PIC-WEB-5-42-UEXT-full\TCPIP\Demo App\CustomHTTPApp.c
              __string_74   0x008b7b    program     static F:\PIC-web\c18\PIC-WEB-5-42-UEXT-full\TCPIP\Demo App\CustomHTTPApp.c
              __string_73   0x008ba2    program     static F:\PIC-web\c18\PIC-WEB-5-42-UEXT-full\TCPIP\Demo App\CustomHTTPApp.c
              __string_72   0x008ba7    program     static F:\PIC-web\c18\PIC-WEB-5-42-UEXT-full\TCPIP\Demo App\CustomHTTPApp.c
              __string_71   0x008baf    program     static F:\PIC-web\c18\PIC-WEB-5-42-UEXT-full\TCPIP\Demo App\CustomHTTPApp.c
              __string_70   0x008bd5    program     static F:\PIC-web\c18\PIC-WEB-5-42-UEXT-full\TCPIP\Demo App\CustomHTTPApp.c
              __string_69   0x008bea    program     static F:\PIC-web\c18\PIC-WEB-5-42-UEXT-full\TCPIP\Demo App\CustomHTTPApp.c
              __string_68   0x008bf2    program     static F:\PIC-web\c18\PIC-WEB-5-42-UEXT-full\TCPIP\Demo App\CustomHTTPApp.c
              __string_67   0x008bfa    program     static F:\PIC-web\c18\PIC-WEB-5-42-UEXT-full\TCPIP\Demo App\CustomHTTPApp.c
              __string_66   0x008bff    program     static F:\PIC-web\c18\PIC-WEB-5-42-UEXT-full\TCPIP\Demo App\CustomHTTPApp.c
              __string_65   0x008c0e    program     static F:\PIC-web\c18\PIC-WEB-5-42-UEXT-full\TCPIP\Demo App\CustomHTTPApp.c
              __string_62   0x008c17    program     static F:\PIC-web\c18\PIC-WEB-5-42-UEXT-full\TCPIP\Demo App\CustomHTTPApp.c
              __string_61   0x008c1d    program     static F:\PIC-web\c18\PIC-WEB-5-42-UEXT-full\TCPIP\Demo App\CustomHTTPApp.c
              __string_60   0x008c32    program     static F:\PIC-web\c18\PIC-WEB-5-42-UEXT-full\TCPIP\Demo App\CustomHTTPApp.c
              __string_59   0x008c43    program     static F:\PIC-web\c18\PIC-WEB-5-42-UEXT-full\TCPIP\Demo App\CustomHTTPApp.c
              __string_58   0x008c52    program     static F:\PIC-web\c18\PIC-WEB-5-42-UEXT-full\TCPIP\Demo App\CustomHTTPApp.c
              __string_57   0x008c58    program     static F:\PIC-web\c18\PIC-WEB-5-42-UEXT-full\TCPIP\Demo App\CustomHTTPApp.c
              __string_56   0x008c5f    program     static F:\PIC-web\c18\PIC-WEB-5-42-UEXT-full\TCPIP\Demo App\CustomHTTPApp.c
              __string_55   0x008c69    program     static F:\PIC-web\c18\PIC-WEB-5-42-UEXT-full\TCPIP\Demo App\CustomHTTPApp.c
              __string_54   0x008c79    program     static F:\PIC-web\c18\PIC-WEB-5-42-UEXT-full\TCPIP\Demo App\CustomHTTPApp.c
              __string_53   0x008cda    program     static F:\PIC-web\c18\PIC-WEB-5-42-UEXT-full\TCPIP\Demo App\CustomHTTPApp.c
              __string_52   0x008d03    program     static F:\PIC-web\c18\PIC-WEB-5-42-UEXT-full\TCPIP\Demo App\CustomHTTPApp.c
              __string_51   0x008d32    program     static F:\PIC-web\c18\PIC-WEB-5-42-UEXT-full\TCPIP\Demo App\CustomHTTPApp.c
              __string_50   0x008d36    program     static F:\PIC-web\c18\PIC-WEB-5-42-UEXT-full\TCPIP\Demo App\CustomHTTPApp.c
              __string_49   0x008d39    program     static F:\PIC-web\c18\PIC-WEB-5-42-UEXT-full\TCPIP\Demo App\CustomHTTPApp.c
              __string_48   0x008d3e    program     static F:\PIC-web\c18\PIC-WEB-5-42-UEXT-full\TCPIP\Demo App\CustomHTTPApp.c
              __string_47   0x008d43    program     static F:\PIC-web\c18\PIC-WEB-5-42-UEXT-full\TCPIP\Demo App\CustomHTTPApp.c
              __string_46   0x008d48    program     static F:\PIC-web\c18\PIC-WEB-5-42-UEXT-full\TCPIP\Demo App\CustomHTTPApp.c
              __string_45   0x008d4f    program     static F:\PIC-web\c18\PIC-WEB-5-42-UEXT-full\TCPIP\Demo App\CustomHTTPApp.c
              __string_44   0x008d97    program     static F:\PIC-web\c18\PIC-WEB-5-42-UEXT-full\TCPIP\Demo App\CustomHTTPApp.c
              __string_43   0x008dc2    program     static F:\PIC-web\c18\PIC-WEB-5-42-UEXT-full\TCPIP\Demo App\CustomHTTPApp.c
              __string_42   0x008de7    program     static F:\PIC-web\c18\PIC-WEB-5-42-UEXT-full\TCPIP\Demo App\CustomHTTPApp.c
              __string_41   0x008dec    program     static F:\PIC-web\c18\PIC-WEB-5-42-UEXT-full\TCPIP\Demo App\CustomHTTPApp.c
              __string_40   0x008def    program     static F:\PIC-web\c18\PIC-WEB-5-42-UEXT-full\TCPIP\Demo App\CustomHTTPApp.c
              __string_39   0x008e03    program     static F:\PIC-web\c18\PIC-WEB-5-42-UEXT-full\TCPIP\Demo App\CustomHTTPApp.c
              __string_38   0x008e18    program     static F:\PIC-web\c18\PIC-WEB-5-42-UEXT-full\TCPIP\Demo App\CustomHTTPApp.c
              __string_37   0x008e1d    program     static F:\PIC-web\c18\PIC-WEB-5-42-UEXT-full\TCPIP\Demo App\CustomHTTPApp.c
              __string_36   0x008e22    program     static F:\PIC-web\c18\PIC-WEB-5-42-UEXT-full\TCPIP\Demo App\CustomHTTPApp.c
              __string_35   0x008e26    program     static F:\PIC-web\c18\PIC-WEB-5-42-UEXT-full\TCPIP\Demo App\CustomHTTPApp.c
              __string_34   0x008e2b    program     static F:\PIC-web\c18\PIC-WEB-5-42-UEXT-full\TCPIP\Demo App\CustomHTTPApp.c
              __string_33   0x008e30    program     static F:\PIC-web\c18\PIC-WEB-5-42-UEXT-full\TCPIP\Demo App\CustomHTTPApp.c
              __string_32   0x008e34    program     static F:\PIC-web\c18\PIC-WEB-5-42-UEXT-full\TCPIP\Demo App\CustomHTTPApp.c
              __string_31   0x008e37    program     static F:\PIC-web\c18\PIC-WEB-5-42-UEXT-full\TCPIP\Demo App\CustomHTTPApp.c
              __string_30   0x008e3a    program     static F:\PIC-web\c18\PIC-WEB-5-42-UEXT-full\TCPIP\Demo App\CustomHTTPApp.c
              __string_29   0x008e4a    program     static F:\PIC-web\c18\PIC-WEB-5-42-UEXT-full\TCPIP\Demo App\CustomHTTPApp.c
              __string_28   0x008e5d    program     static F:\PIC-web\c18\PIC-WEB-5-42-UEXT-full\TCPIP\Demo App\CustomHTTPApp.c
              __string_27   0x008e68    program     static F:\PIC-web\c18\PIC-WEB-5-42-UEXT-full\TCPIP\Demo App\CustomHTTPApp.c
              __string_26   0x008e6c    program     static F:\PIC-web\c18\PIC-WEB-5-42-UEXT-full\TCPIP\Demo App\CustomHTTPApp.c
              __string_25   0x008e75    program     static F:\PIC-web\c18\PIC-WEB-5-42-UEXT-full\TCPIP\Demo App\CustomHTTPApp.c
              __string_24   0x008e81    program     static F:\PIC-web\c18\PIC-WEB-5-42-UEXT-full\TCPIP\Demo App\CustomHTTPApp.c
              __string_23   0x008e86    program     static F:\PIC-web\c18\PIC-WEB-5-42-UEXT-full\TCPIP\Demo App\CustomHTTPApp.c
              __string_22   0x008e8b    program     static F:\PIC-web\c18\PIC-WEB-5-42-UEXT-full\TCPIP\Demo App\CustomHTTPApp.c
              __string_21   0x008e90    program     static F:\PIC-web\c18\PIC-WEB-5-42-UEXT-full\TCPIP\Demo App\CustomHTTPApp.c
              __string_20   0x008e95    program     static F:\PIC-web\c18\PIC-WEB-5-42-UEXT-full\TCPIP\Demo App\CustomHTTPApp.c
              __string_19   0x008e9f    program     static F:\PIC-web\c18\PIC-WEB-5-42-UEXT-full\TCPIP\Demo App\CustomHTTPApp.c
              __string_18   0x008eac    program     static F:\PIC-web\c18\PIC-WEB-5-42-UEXT-full\TCPIP\Demo App\CustomHTTPApp.c
              __string_17   0x008eb2    program     static F:\PIC-web\c18\PIC-WEB-5-42-UEXT-full\TCPIP\Demo App\CustomHTTPApp.c
              __string_16   0x008eb7    program     static F:\PIC-web\c18\PIC-WEB-5-42-UEXT-full\TCPIP\Demo App\CustomHTTPApp.c
              __string_15   0x008ebd    program     static F:\PIC-web\c18\PIC-WEB-5-42-UEXT-full\TCPIP\Demo App\CustomHTTPApp.c
              __string_14   0x008ec5    program     static F:\PIC-web\c18\PIC-WEB-5-42-UEXT-full\TCPIP\Demo App\CustomHTTPApp.c
              __string_13   0x008ecf    program     static F:\PIC-web\c18\PIC-WEB-5-42-UEXT-full\TCPIP\Demo App\CustomHTTPApp.c
              __string_12   0x008edc    program     static F:\PIC-web\c18\PIC-WEB-5-42-UEXT-full\TCPIP\Demo App\CustomHTTPApp.c
              __string_10   0x008ee4    program     static F:\PIC-web\c18\PIC-WEB-5-42-UEXT-full\TCPIP\Demo App\CustomHTTPApp.c
               __string_9   0x008ee9    program     static F:\PIC-web\c18\PIC-WEB-5-42-UEXT-full\TCPIP\Demo App\CustomHTTPApp.c
               __string_8   0x008ef2    program     static F:\PIC-web\c18\PIC-WEB-5-42-UEXT-full\TCPIP\Demo App\CustomHTTPApp.c
               __string_7   0x008ef7    program     static F:\PIC-web\c18\PIC-WEB-5-42-UEXT-full\TCPIP\Demo App\CustomHTTPApp.c
               __string_6   0x008f05    program     static F:\PIC-web\c18\PIC-WEB-5-42-UEXT-full\TCPIP\Demo App\CustomHTTPApp.c
               __string_5   0x008f0b    program     static F:\PIC-web\c18\PIC-WEB-5-42-UEXT-full\TCPIP\Demo App\CustomHTTPApp.c
               __string_4   0x008f15    program     static F:\PIC-web\c18\PIC-WEB-5-42-UEXT-full\TCPIP\Demo App\CustomHTTPApp.c
               __string_3   0x008f1f    program     static F:\PIC-web\c18\PIC-WEB-5-42-UEXT-full\TCPIP\Demo App\CustomHTTPApp.c
               __string_2   0x008f25    program     static F:\PIC-web\c18\PIC-WEB-5-42-UEXT-full\TCPIP\Demo App\CustomHTTPApp.c
               __string_1   0x008f2a    program     static F:\PIC-web\c18\PIC-WEB-5-42-UEXT-full\TCPIP\Demo App\CustomHTTPApp.c
               __string_3   0x008f32    program     static F:\PIC-web\c18\PIC-WEB-5-42-UEXT-full\TCPIP\Demo App\MainDemo.c
               __string_2   0x008f3a    program     static F:\PIC-web\c18\PIC-WEB-5-42-UEXT-full\TCPIP\Demo App\MainDemo.c
               __string_1   0x008f3d    program     static F:\PIC-web\c18\PIC-WEB-5-42-UEXT-full\TCPIP\Demo App\MainDemo.c
               __string_0   0x008f50    program     static F:\PIC-web\c18\PIC-WEB-5-42-UEXT-full\TCPIP\Demo App\MainDemo.c
               __string_4   0x008f9a    program     static F:\PIC-web\c18\PIC-WEB-5-42-UEXT-full\TCPIP\Demo App\BerkeleyTCPClientDemo.c
               __string_3   0x009056    program     static F:\PIC-web\c18\PIC-WEB-5-42-UEXT-full\TCPIP\Demo App\BerkeleyTCPClientDemo.c
               __string_2   0x009089    program     static F:\PIC-web\c18\PIC-WEB-5-42-UEXT-full\TCPIP\Demo App\BerkeleyTCPClientDemo.c
               __string_0   0x0090b9    program     static F:\PIC-web\c18\PIC-WEB-5-42-UEXT-full\TCPIP\Demo App\BerkeleyUDPClientDemo.c
               __string_5   0x0090c6    program     static F:\PIC-web\c18\PIC-WEB-5-42-UEXT-full\TCPIP\Demo App\GenericTCPClient.c
               __string_4   0x0090de    program     static F:\PIC-web\c18\PIC-WEB-5-42-UEXT-full\TCPIP\Demo App\GenericTCPClient.c
               __string_3   0x0090f0    program     static F:\PIC-web\c18\PIC-WEB-5-42-UEXT-full\TCPIP\Demo App\GenericTCPClient.c
               __string_2   0x0090f5    program     static F:\PIC-web\c18\PIC-WEB-5-42-UEXT-full\TCPIP\Demo App\GenericTCPClient.c
               __string_0   0x009121    program     static F:\PIC-web\c18\PIC-WEB-5-42-UEXT-full\TCPIP\Demo App\PingDemo.c
               __string_4   0x009133    program     static F:\PIC-web\c18\PIC-WEB-5-42-UEXT-full\TCPIP\Demo App\SMTPDemo.c
               __string_3   0x00914c    program     static F:\PIC-web\c18\PIC-WEB-5-42-UEXT-full\TCPIP\Demo App\SMTPDemo.c
               __string_2   0x009177    program     static F:\PIC-web\c18\PIC-WEB-5-42-UEXT-full\TCPIP\Demo App\SMTPDemo.c
              __string_20   0x00917c    program     static F:\PIC-web\c18\PIC-WEB-5-42-UEXT-full\TCPIP\Demo App\UARTConfig.c
              __string_19   0x00918e    program     static F:\PIC-web\c18\PIC-WEB-5-42-UEXT-full\TCPIP\Demo App\UARTConfig.c
              __string_18   0x00919f    program     static F:\PIC-web\c18\PIC-WEB-5-42-UEXT-full\TCPIP\Demo App\UARTConfig.c
              __string_17   0x0091ad    program     static F:\PIC-web\c18\PIC-WEB-5-42-UEXT-full\TCPIP\Demo App\UARTConfig.c
              __string_16   0x0091b0    program     static F:\PIC-web\c18\PIC-WEB-5-42-UEXT-full\TCPIP\Demo App\UARTConfig.c
              __string_15   0x0091c8    program     static F:\PIC-web\c18\PIC-WEB-5-42-UEXT-full\TCPIP\Demo App\UARTConfig.c
              __string_14   0x0091db    program     static F:\PIC-web\c18\PIC-WEB-5-42-UEXT-full\TCPIP\Demo App\UARTConfig.c
              __string_13   0x0091f6    program     static F:\PIC-web\c18\PIC-WEB-5-42-UEXT-full\TCPIP\Demo App\UARTConfig.c
              __string_12   0x0091ff    program     static F:\PIC-web\c18\PIC-WEB-5-42-UEXT-full\TCPIP\Demo App\UARTConfig.c
              __string_11   0x009207    program     static F:\PIC-web\c18\PIC-WEB-5-42-UEXT-full\TCPIP\Demo App\UARTConfig.c
              __string_10   0x009234    program     static F:\PIC-web\c18\PIC-WEB-5-42-UEXT-full\TCPIP\Demo App\UARTConfig.c
               __string_9   0x009237    program     static F:\PIC-web\c18\PIC-WEB-5-42-UEXT-full\TCPIP\Demo App\UARTConfig.c
               __string_8   0x00923b    program     static F:\PIC-web\c18\PIC-WEB-5-42-UEXT-full\TCPIP\Demo App\UARTConfig.c
               __string_7   0x009242    program     static F:\PIC-web\c18\PIC-WEB-5-42-UEXT-full\TCPIP\Demo App\UARTConfig.c
               __string_6   0x00926d    program     static F:\PIC-web\c18\PIC-WEB-5-42-UEXT-full\TCPIP\Demo App\UARTConfig.c
               __string_5   0x009296    program     static F:\PIC-web\c18\PIC-WEB-5-42-UEXT-full\TCPIP\Demo App\UARTConfig.c
               __string_4   0x0092b9    program     static F:\PIC-web\c18\PIC-WEB-5-42-UEXT-full\TCPIP\Demo App\UARTConfig.c
               __string_3   0x0092df    program     static F:\PIC-web\c18\PIC-WEB-5-42-UEXT-full\TCPIP\Demo App\UARTConfig.c
               __string_2   0x009301    program     static F:\PIC-web\c18\PIC-WEB-5-42-UEXT-full\TCPIP\Demo App\UARTConfig.c
               __string_1   0x00931c    program     static F:\PIC-web\c18\PIC-WEB-5-42-UEXT-full\TCPIP\Demo App\UARTConfig.c
               __string_0   0x009338    program     static F:\PIC-web\c18\PIC-WEB-5-42-UEXT-full\TCPIP\Demo App\UARTConfig.c
       BerkeleySocketInit   0x00937a    program     extern F:\PIC-web\c18\PIC-WEB-5-42-UEXT-full\Microchip\TCPIP Stack\BerkeleyAPI.c
                   socket   0x0093d2    program     extern F:\PIC-web\c18\PIC-WEB-5-42-UEXT-full\Microchip\TCPIP Stack\BerkeleyAPI.c
                     bind   0x00947c    program     extern F:\PIC-web\c18\PIC-WEB-5-42-UEXT-full\Microchip\TCPIP Stack\BerkeleyAPI.c
                   listen   0x00954e    program     extern F:\PIC-web\c18\PIC-WEB-5-42-UEXT-full\Microchip\TCPIP Stack\BerkeleyAPI.c
                   accept   0x0096a2    program     extern F:\PIC-web\c18\PIC-WEB-5-42-UEXT-full\Microchip\TCPIP Stack\BerkeleyAPI.c
                  connect   0x0097ee    program     extern F:\PIC-web\c18\PIC-WEB-5-42-UEXT-full\Microchip\TCPIP Stack\BerkeleyAPI.c
                     send   0x00998a    program     extern F:\PIC-web\c18\PIC-WEB-5-42-UEXT-full\Microchip\TCPIP Stack\BerkeleyAPI.c
                   sendto   0x0099b6    program     extern F:\PIC-web\c18\PIC-WEB-5-42-UEXT-full\Microchip\TCPIP Stack\BerkeleyAPI.c
                     recv   0x009c0a    program     extern F:\PIC-web\c18\PIC-WEB-5-42-UEXT-full\Microchip\TCPIP Stack\BerkeleyAPI.c
                 recvfrom   0x009c9e    program     extern F:\PIC-web\c18\PIC-WEB-5-42-UEXT-full\Microchip\TCPIP Stack\BerkeleyAPI.c
              gethostname   0x009d6a    program     extern F:\PIC-web\c18\PIC-WEB-5-42-UEXT-full\Microchip\TCPIP Stack\BerkeleyAPI.c
              closesocket   0x009e14    program     extern F:\PIC-web\c18\PIC-WEB-5-42-UEXT-full\Microchip\TCPIP Stack\BerkeleyAPI.c
HandlePossibleTCPDisconnection   0x009f04    program     static F:\PIC-web\c18\PIC-WEB-5-42-UEXT-full\Microchip\TCPIP Stack\BerkeleyAPI.c
                   __pa_0   0x009f88    program     static F:\PIC-web\c18\PIC-WEB-5-42-UEXT-full\Microchip\TCPIP Stack\BerkeleyAPI.c
                   __pa_1   0x009fa4    program     static F:\PIC-web\c18\PIC-WEB-5-42-UEXT-full\Microchip\TCPIP Stack\BerkeleyAPI.c
                   __pa_2   0x009fac    program     static F:\PIC-web\c18\PIC-WEB-5-42-UEXT-full\Microchip\TCPIP Stack\BerkeleyAPI.c
                   __pa_3   0x009fba    program     static F:\PIC-web\c18\PIC-WEB-5-42-UEXT-full\Microchip\TCPIP Stack\BerkeleyAPI.c
                   __pa_4   0x009fcc    program     static F:\PIC-web\c18\PIC-WEB-5-42-UEXT-full\Microchip\TCPIP Stack\BerkeleyAPI.c
                   __pa_5   0x009fd6    program     static F:\PIC-web\c18\PIC-WEB-5-42-UEXT-full\Microchip\TCPIP Stack\BerkeleyAPI.c
                   __pa_6   0x009fe0    program     static F:\PIC-web\c18\PIC-WEB-5-42-UEXT-full\Microchip\TCPIP Stack\BerkeleyAPI.c
                   __pa_7   0x009fea    program     static F:\PIC-web\c18\PIC-WEB-5-42-UEXT-full\Microchip\TCPIP Stack\BerkeleyAPI.c
                   __pa_8   0x009ff4    program     static F:\PIC-web\c18\PIC-WEB-5-42-UEXT-full\Microchip\TCPIP Stack\BerkeleyAPI.c
                   __pa_9   0x00a006    program     static F:\PIC-web\c18\PIC-WEB-5-42-UEXT-full\Microchip\TCPIP Stack\BerkeleyAPI.c
                  __pa_10   0x00a018    program     static F:\PIC-web\c18\PIC-WEB-5-42-UEXT-full\Microchip\TCPIP Stack\BerkeleyAPI.c
                  __pa_11   0x00a022    program     static F:\PIC-web\c18\PIC-WEB-5-42-UEXT-full\Microchip\TCPIP Stack\BerkeleyAPI.c
                  __pa_12   0x00a03a    program     static F:\PIC-web\c18\PIC-WEB-5-42-UEXT-full\Microchip\TCPIP Stack\BerkeleyAPI.c
                  __pa_13   0x00a048    program     static F:\PIC-web\c18\PIC-WEB-5-42-UEXT-full\Microchip\TCPIP Stack\BerkeleyAPI.c
                  __pa_14   0x00a052    program     static F:\PIC-web\c18\PIC-WEB-5-42-UEXT-full\Microchip\TCPIP Stack\BerkeleyAPI.c
                  __pa_15   0x00a062    program     static F:\PIC-web\c18\PIC-WEB-5-42-UEXT-full\Microchip\TCPIP Stack\BerkeleyAPI.c
                  __pa_16   0x00a06c    program     static F:\PIC-web\c18\PIC-WEB-5-42-UEXT-full\Microchip\TCPIP Stack\BerkeleyAPI.c
                  __pa_17   0x00a076    program     static F:\PIC-web\c18\PIC-WEB-5-42-UEXT-full\Microchip\TCPIP Stack\BerkeleyAPI.c
                  __pa_18   0x00a080    program     static F:\PIC-web\c18\PIC-WEB-5-42-UEXT-full\Microchip\TCPIP Stack\BerkeleyAPI.c
                  __pa_19   0x00a096    program     static F:\PIC-web\c18\PIC-WEB-5-42-UEXT-full\Microchip\TCPIP Stack\BerkeleyAPI.c
                  __pa_20   0x00a0a4    program     static F:\PIC-web\c18\PIC-WEB-5-42-UEXT-full\Microchip\TCPIP Stack\BerkeleyAPI.c
                  __pa_21   0x00a0b6    program     static F:\PIC-web\c18\PIC-WEB-5-42-UEXT-full\Microchip\TCPIP Stack\BerkeleyAPI.c
                  __pa_22   0x00a0c0    program     static F:\PIC-web\c18\PIC-WEB-5-42-UEXT-full\Microchip\TCPIP Stack\BerkeleyAPI.c
                  __pa_23   0x00a0cc    program     static F:\PIC-web\c18\PIC-WEB-5-42-UEXT-full\Microchip\TCPIP Stack\BerkeleyAPI.c
                  __pa_24   0x00a0d8    program     static F:\PIC-web\c18\PIC-WEB-5-42-UEXT-full\Microchip\TCPIP Stack\BerkeleyAPI.c
                  __pa_25   0x00a0e2    program     static F:\PIC-web\c18\PIC-WEB-5-42-UEXT-full\Microchip\TCPIP Stack\BerkeleyAPI.c
                  __pa_26   0x00a0ec    program     static F:\PIC-web\c18\PIC-WEB-5-42-UEXT-full\Microchip\TCPIP Stack\BerkeleyAPI.c
                  __pa_27   0x00a0f6    program     static F:\PIC-web\c18\PIC-WEB-5-42-UEXT-full\Microchip\TCPIP Stack\BerkeleyAPI.c
                  __pa_28   0x00a0fe    program     static F:\PIC-web\c18\PIC-WEB-5-42-UEXT-full\Microchip\TCPIP Stack\BerkeleyAPI.c
                  __pa_29   0x00a104    program     static F:\PIC-web\c18\PIC-WEB-5-42-UEXT-full\Microchip\TCPIP Stack\BerkeleyAPI.c
                  __pa_30   0x00a110    program     static F:\PIC-web\c18\PIC-WEB-5-42-UEXT-full\Microchip\TCPIP Stack\BerkeleyAPI.c
                  __pa_31   0x00a11c    program     static F:\PIC-web\c18\PIC-WEB-5-42-UEXT-full\Microchip\TCPIP Stack\BerkeleyAPI.c
                  __pa_32   0x00a122    program     static F:\PIC-web\c18\PIC-WEB-5-42-UEXT-full\Microchip\TCPIP Stack\BerkeleyAPI.c
                  __pa_33   0x00a134    program     static F:\PIC-web\c18\PIC-WEB-5-42-UEXT-full\Microchip\TCPIP Stack\BerkeleyAPI.c
                  __pa_34   0x00a14a    program     static F:\PIC-web\c18\PIC-WEB-5-42-UEXT-full\Microchip\TCPIP Stack\BerkeleyAPI.c
                  __pa_35   0x00a15a    program     static F:\PIC-web\c18\PIC-WEB-5-42-UEXT-full\Microchip\TCPIP Stack\BerkeleyAPI.c
                  __pa_36   0x00a162    program     static F:\PIC-web\c18\PIC-WEB-5-42-UEXT-full\Microchip\TCPIP Stack\BerkeleyAPI.c
                  __pa_37   0x00a170    program     static F:\PIC-web\c18\PIC-WEB-5-42-UEXT-full\Microchip\TCPIP Stack\BerkeleyAPI.c
                  __pa_38   0x00a178    program     static F:\PIC-web\c18\PIC-WEB-5-42-UEXT-full\Microchip\TCPIP Stack\BerkeleyAPI.c
                  __pa_39   0x00a188    program     static F:\PIC-web\c18\PIC-WEB-5-42-UEXT-full\Microchip\TCPIP Stack\BerkeleyAPI.c
                  __pa_40   0x00a18e    program     static F:\PIC-web\c18\PIC-WEB-5-42-UEXT-full\Microchip\TCPIP Stack\BerkeleyAPI.c
                  __pa_41   0x00a19a    program     static F:\PIC-web\c18\PIC-WEB-5-42-UEXT-full\Microchip\TCPIP Stack\BerkeleyAPI.c
                  __pa_42   0x00a1a8    program     static F:\PIC-web\c18\PIC-WEB-5-42-UEXT-full\Microchip\TCPIP Stack\BerkeleyAPI.c
                  __pa_43   0x00a1b0    program     static F:\PIC-web\c18\PIC-WEB-5-42-UEXT-full\Microchip\TCPIP Stack\BerkeleyAPI.c
                  __pa_44   0x00a1b6    program     static F:\PIC-web\c18\PIC-WEB-5-42-UEXT-full\Microchip\TCPIP Stack\BerkeleyAPI.c
                  __pa_45   0x00a1c0    program     static F:\PIC-web\c18\PIC-WEB-5-42-UEXT-full\Microchip\TCPIP Stack\BerkeleyAPI.c
                  __pa_46   0x00a1cc    program     static F:\PIC-web\c18\PIC-WEB-5-42-UEXT-full\Microchip\TCPIP Stack\BerkeleyAPI.c
                  __pa_47   0x00a1d2    program     static F:\PIC-web\c18\PIC-WEB-5-42-UEXT-full\Microchip\TCPIP Stack\BerkeleyAPI.c
                  __pa_48   0x00a1d8    program     static F:\PIC-web\c18\PIC-WEB-5-42-UEXT-full\Microchip\TCPIP Stack\BerkeleyAPI.c
                  __pa_49   0x00a1de    program     static F:\PIC-web\c18\PIC-WEB-5-42-UEXT-full\Microchip\TCPIP Stack\BerkeleyAPI.c
                 MPFSInit   0x00a1e4    program     extern F:\PIC-web\c18\PIC-WEB-5-42-UEXT-full\Microchip\TCPIP Stack\MPFS2.c
                 MPFSOpen   0x00a20c    program     extern F:\PIC-web\c18\PIC-WEB-5-42-UEXT-full\Microchip\TCPIP Stack\MPFS2.c
              MPFSOpenROM   0x00a372    program     extern F:\PIC-web\c18\PIC-WEB-5-42-UEXT-full\Microchip\TCPIP Stack\MPFS2.c
               MPFSOpenID   0x00a4ca    program     extern F:\PIC-web\c18\PIC-WEB-5-42-UEXT-full\Microchip\TCPIP Stack\MPFS2.c
                MPFSClose   0x00a54a    program     extern F:\PIC-web\c18\PIC-WEB-5-42-UEXT-full\Microchip\TCPIP Stack\MPFS2.c
                  MPFSGet   0x00a560    program     extern F:\PIC-web\c18\PIC-WEB-5-42-UEXT-full\Microchip\TCPIP Stack\MPFS2.c
             MPFSGetArray   0x00a5d2    program     extern F:\PIC-web\c18\PIC-WEB-5-42-UEXT-full\Microchip\TCPIP Stack\MPFS2.c
              MPFSGetLong   0x00a66e    program     extern F:\PIC-web\c18\PIC-WEB-5-42-UEXT-full\Microchip\TCPIP Stack\MPFS2.c
                 MPFSSeek   0x00a696    program     extern F:\PIC-web\c18\PIC-WEB-5-42-UEXT-full\Microchip\TCPIP Stack\MPFS2.c
               MPFSFormat   0x00a7b4    program     extern F:\PIC-web\c18\PIC-WEB-5-42-UEXT-full\Microchip\TCPIP Stack\MPFS2.c
             MPFSPutArray   0x00a7f4    program     extern F:\PIC-web\c18\PIC-WEB-5-42-UEXT-full\Microchip\TCPIP Stack\MPFS2.c
               MPFSPutEnd   0x00a812    program     extern F:\PIC-web\c18\PIC-WEB-5-42-UEXT-full\Microchip\TCPIP Stack\MPFS2.c
           _LoadFATRecord   0x00a81e    program     static F:\PIC-web\c18\PIC-WEB-5-42-UEXT-full\Microchip\TCPIP Stack\MPFS2.c
         MPFSGetTimestamp   0x00a88a    program     extern F:\PIC-web\c18\PIC-WEB-5-42-UEXT-full\Microchip\TCPIP Stack\MPFS2.c
         MPFSGetMicrotime   0x00a8c4    program     extern F:\PIC-web\c18\PIC-WEB-5-42-UEXT-full\Microchip\TCPIP Stack\MPFS2.c
             MPFSGetFlags   0x00a8fe    program     extern F:\PIC-web\c18\PIC-WEB-5-42-UEXT-full\Microchip\TCPIP Stack\MPFS2.c
              MPFSGetSize   0x00a934    program     extern F:\PIC-web\c18\PIC-WEB-5-42-UEXT-full\Microchip\TCPIP Stack\MPFS2.c
          MPFSGetBytesRem   0x00a96e    program     extern F:\PIC-web\c18\PIC-WEB-5-42-UEXT-full\Microchip\TCPIP Stack\MPFS2.c
         MPFSGetStartAddr   0x00a9a0    program     extern F:\PIC-web\c18\PIC-WEB-5-42-UEXT-full\Microchip\TCPIP Stack\MPFS2.c
           MPFSGetEndAddr   0x00a9e4    program     extern F:\PIC-web\c18\PIC-WEB-5-42-UEXT-full\Microchip\TCPIP Stack\MPFS2.c
          MPFSGetFilename   0x00aa3c    program     extern F:\PIC-web\c18\PIC-WEB-5-42-UEXT-full\Microchip\TCPIP Stack\MPFS2.c
          MPFSGetPosition   0x00aa90    program     extern F:\PIC-web\c18\PIC-WEB-5-42-UEXT-full\Microchip\TCPIP Stack\MPFS2.c
                MPFSGetID   0x00aaf2    program     extern F:\PIC-web\c18\PIC-WEB-5-42-UEXT-full\Microchip\TCPIP Stack\MPFS2.c
                _Validate   0x00ab04    program     static F:\PIC-web\c18\PIC-WEB-5-42-UEXT-full\Microchip\TCPIP Stack\MPFS2.c
                   __pa_0   0x00ab5c    program     static F:\PIC-web\c18\PIC-WEB-5-42-UEXT-full\Microchip\TCPIP Stack\MPFS2.c
                   __pa_1   0x00ab70    program     static F:\PIC-web\c18\PIC-WEB-5-42-UEXT-full\Microchip\TCPIP Stack\MPFS2.c
                   __pa_2   0x00ab8a    program     static F:\PIC-web\c18\PIC-WEB-5-42-UEXT-full\Microchip\TCPIP Stack\MPFS2.c
                   __pa_3   0x00ab9e    program     static F:\PIC-web\c18\PIC-WEB-5-42-UEXT-full\Microchip\TCPIP Stack\MPFS2.c
                   __pa_4   0x00aba8    program     static F:\PIC-web\c18\PIC-WEB-5-42-UEXT-full\Microchip\TCPIP Stack\MPFS2.c
                   __pa_5   0x00abba    program     static F:\PIC-web\c18\PIC-WEB-5-42-UEXT-full\Microchip\TCPIP Stack\MPFS2.c
                   __pa_6   0x00abd6    program     static F:\PIC-web\c18\PIC-WEB-5-42-UEXT-full\Microchip\TCPIP Stack\MPFS2.c
                   __pa_7   0x00abf2    program     static F:\PIC-web\c18\PIC-WEB-5-42-UEXT-full\Microchip\TCPIP Stack\MPFS2.c
                   __pa_8   0x00ac14    program     static F:\PIC-web\c18\PIC-WEB-5-42-UEXT-full\Microchip\TCPIP Stack\MPFS2.c
                   __pa_9   0x00ac34    program     static F:\PIC-web\c18\PIC-WEB-5-42-UEXT-full\Microchip\TCPIP Stack\MPFS2.c
                  __pa_10   0x00ac46    program     static F:\PIC-web\c18\PIC-WEB-5-42-UEXT-full\Microchip\TCPIP Stack\MPFS2.c
                  __pa_11   0x00ac58    program     static F:\PIC-web\c18\PIC-WEB-5-42-UEXT-full\Microchip\TCPIP Stack\MPFS2.c
                  __pa_12   0x00ac6a    program     static F:\PIC-web\c18\PIC-WEB-5-42-UEXT-full\Microchip\TCPIP Stack\MPFS2.c
                  __pa_13   0x00ac78    program     static F:\PIC-web\c18\PIC-WEB-5-42-UEXT-full\Microchip\TCPIP Stack\MPFS2.c
                  __pa_14   0x00ac84    program     static F:\PIC-web\c18\PIC-WEB-5-42-UEXT-full\Microchip\TCPIP Stack\MPFS2.c
                  __pa_15   0x00ac8e    program     static F:\PIC-web\c18\PIC-WEB-5-42-UEXT-full\Microchip\TCPIP Stack\MPFS2.c
                  __pa_16   0x00ac98    program     static F:\PIC-web\c18\PIC-WEB-5-42-UEXT-full\Microchip\TCPIP Stack\MPFS2.c
                  __pa_17   0x00aca2    program     static F:\PIC-web\c18\PIC-WEB-5-42-UEXT-full\Microchip\TCPIP Stack\MPFS2.c
                  __pa_18   0x00acb0    program     static F:\PIC-web\c18\PIC-WEB-5-42-UEXT-full\Microchip\TCPIP Stack\MPFS2.c
                  __pa_19   0x00acc2    program     static F:\PIC-web\c18\PIC-WEB-5-42-UEXT-full\Microchip\TCPIP Stack\MPFS2.c
                  __pa_20   0x00acd4    program     static F:\PIC-web\c18\PIC-WEB-5-42-UEXT-full\Microchip\TCPIP Stack\MPFS2.c
                  __pa_21   0x00ace6    program     static F:\PIC-web\c18\PIC-WEB-5-42-UEXT-full\Microchip\TCPIP Stack\MPFS2.c
                  __pa_22   0x00acf8    program     static F:\PIC-web\c18\PIC-WEB-5-42-UEXT-full\Microchip\TCPIP Stack\MPFS2.c
                  __pa_23   0x00ad04    program     static F:\PIC-web\c18\PIC-WEB-5-42-UEXT-full\Microchip\TCPIP Stack\MPFS2.c
                  __pa_24   0x00ad10    program     static F:\PIC-web\c18\PIC-WEB-5-42-UEXT-full\Microchip\TCPIP Stack\MPFS2.c
                  __pa_25   0x00ad1e    program     static F:\PIC-web\c18\PIC-WEB-5-42-UEXT-full\Microchip\TCPIP Stack\MPFS2.c
                  __pa_26   0x00ad28    program     static F:\PIC-web\c18\PIC-WEB-5-42-UEXT-full\Microchip\TCPIP Stack\MPFS2.c
                  __pa_27   0x00ad30    program     static F:\PIC-web\c18\PIC-WEB-5-42-UEXT-full\Microchip\TCPIP Stack\MPFS2.c
                  __pa_28   0x00ad36    program     static F:\PIC-web\c18\PIC-WEB-5-42-UEXT-full\Microchip\TCPIP Stack\MPFS2.c
                  __pa_29   0x00ad3c    program     static F:\PIC-web\c18\PIC-WEB-5-42-UEXT-full\Microchip\TCPIP Stack\MPFS2.c
                  __pa_30   0x00ad56    program     static F:\PIC-web\c18\PIC-WEB-5-42-UEXT-full\Microchip\TCPIP Stack\MPFS2.c
                  __pa_31   0x00ad60    program     static F:\PIC-web\c18\PIC-WEB-5-42-UEXT-full\Microchip\TCPIP Stack\MPFS2.c
                  __pa_32   0x00ad6c    program     static F:\PIC-web\c18\PIC-WEB-5-42-UEXT-full\Microchip\TCPIP Stack\MPFS2.c
                  __pa_33   0x00ad78    program     static F:\PIC-web\c18\PIC-WEB-5-42-UEXT-full\Microchip\TCPIP Stack\MPFS2.c
                  __pa_34   0x00ad84    program     static F:\PIC-web\c18\PIC-WEB-5-42-UEXT-full\Microchip\TCPIP Stack\MPFS2.c
                  __pa_35   0x00ad8e    program     static F:\PIC-web\c18\PIC-WEB-5-42-UEXT-full\Microchip\TCPIP Stack\MPFS2.c
                  __pa_36   0x00ad94    program     static F:\PIC-web\c18\PIC-WEB-5-42-UEXT-full\Microchip\TCPIP Stack\MPFS2.c
                  __pa_37   0x00ad9a    program     static F:\PIC-web\c18\PIC-WEB-5-42-UEXT-full\Microchip\TCPIP Stack\MPFS2.c
                  __pa_38   0x00ada4    program     static F:\PIC-web\c18\PIC-WEB-5-42-UEXT-full\Microchip\TCPIP Stack\MPFS2.c
                  __pa_39   0x00adaa    program     static F:\PIC-web\c18\PIC-WEB-5-42-UEXT-full\Microchip\TCPIP Stack\MPFS2.c
                  __pa_40   0x00adb4    program     static F:\PIC-web\c18\PIC-WEB-5-42-UEXT-full\Microchip\TCPIP Stack\MPFS2.c
           DHCPServerTask   0x00adba    program     extern F:\PIC-web\c18\PIC-WEB-5-42-UEXT-full\Microchip\TCPIP Stack\DHCPs.c
     DHCPReplyToDiscovery   0x00afec    program     static F:\PIC-web\c18\PIC-WEB-5-42-UEXT-full\Microchip\TCPIP Stack\DHCPs.c
       DHCPReplyToRequest   0x00b082    program     static F:\PIC-web\c18\PIC-WEB-5-42-UEXT-full\Microchip\TCPIP Stack\DHCPs.c
           DHCPServerInit   0x00b234    program     static F:\PIC-web\c18\PIC-WEB-5-42-UEXT-full\Microchip\TCPIP Stack\DHCPs.c
         renew_dhcps_Pool   0x00b2a8    program     static F:\PIC-web\c18\PIC-WEB-5-42-UEXT-full\Microchip\TCPIP Stack\DHCPs.c
getIndexByMacaddr_DhcpPool   0x00b364    program     static F:\PIC-web\c18\PIC-WEB-5-42-UEXT-full\Microchip\TCPIP Stack\DHCPs.c
           isIpAddrInPool   0x00b3b6    program     static F:\PIC-web\c18\PIC-WEB-5-42-UEXT-full\Microchip\TCPIP Stack\DHCPs.c
GetIPAddrFromIndex_DhcpPool   0x00b404    program     static F:\PIC-web\c18\PIC-WEB-5-42-UEXT-full\Microchip\TCPIP Stack\DHCPs.c
         Compare_MAC_addr   0x00b452    program     static F:\PIC-web\c18\PIC-WEB-5-42-UEXT-full\Microchip\TCPIP Stack\DHCPs.c
      isMacAddr_Effective   0x00b4a8    program     static F:\PIC-web\c18\PIC-WEB-5-42-UEXT-full\Microchip\TCPIP Stack\DHCPs.c
preAssign_ToDHCPClient_FromPool   0x00b4e4    program     static F:\PIC-web\c18\PIC-WEB-5-42-UEXT-full\Microchip\TCPIP Stack\DHCPs.c
postAssign_ToDHCPClient_FromPool   0x00b5d8    program     static F:\PIC-web\c18\PIC-WEB-5-42-UEXT-full\Microchip\TCPIP Stack\DHCPs.c
       DHCPServer_Disable   0x00b660    program     extern F:\PIC-web\c18\PIC-WEB-5-42-UEXT-full\Microchip\TCPIP Stack\DHCPs.c
        DHCPServer_Enable   0x00b678    program     extern F:\PIC-web\c18\PIC-WEB-5-42-UEXT-full\Microchip\TCPIP Stack\DHCPs.c
                   __pa_0   0x00b684    program     static F:\PIC-web\c18\PIC-WEB-5-42-UEXT-full\Microchip\TCPIP Stack\DHCPs.c
                   __pa_1   0x00b6a0    program     static F:\PIC-web\c18\PIC-WEB-5-42-UEXT-full\Microchip\TCPIP Stack\DHCPs.c
                   __pa_2   0x00b6b6    program     static F:\PIC-web\c18\PIC-WEB-5-42-UEXT-full\Microchip\TCPIP Stack\DHCPs.c
                   __pa_3   0x00b6be    program     static F:\PIC-web\c18\PIC-WEB-5-42-UEXT-full\Microchip\TCPIP Stack\DHCPs.c
                   __pa_4   0x00b6c6    program     static F:\PIC-web\c18\PIC-WEB-5-42-UEXT-full\Microchip\TCPIP Stack\DHCPs.c
                   __pa_5   0x00b6fe    program     static F:\PIC-web\c18\PIC-WEB-5-42-UEXT-full\Microchip\TCPIP Stack\DHCPs.c
                   __pa_6   0x00b70a    program     static F:\PIC-web\c18\PIC-WEB-5-42-UEXT-full\Microchip\TCPIP Stack\DHCPs.c
                   __pa_7   0x00b712    program     static F:\PIC-web\c18\PIC-WEB-5-42-UEXT-full\Microchip\TCPIP Stack\DHCPs.c
                   __pa_8   0x00b728    program     static F:\PIC-web\c18\PIC-WEB-5-42-UEXT-full\Microchip\TCPIP Stack\DHCPs.c
                   __pa_9   0x00b73a    program     static F:\PIC-web\c18\PIC-WEB-5-42-UEXT-full\Microchip\TCPIP Stack\DHCPs.c
                  __pa_10   0x00b744    program     static F:\PIC-web\c18\PIC-WEB-5-42-UEXT-full\Microchip\TCPIP Stack\DHCPs.c
                  __pa_11   0x00b758    program     static F:\PIC-web\c18\PIC-WEB-5-42-UEXT-full\Microchip\TCPIP Stack\DHCPs.c
                  __pa_12   0x00b772    program     static F:\PIC-web\c18\PIC-WEB-5-42-UEXT-full\Microchip\TCPIP Stack\DHCPs.c
                  __pa_13   0x00b782    program     static F:\PIC-web\c18\PIC-WEB-5-42-UEXT-full\Microchip\TCPIP Stack\DHCPs.c
                  __pa_14   0x00b792    program     static F:\PIC-web\c18\PIC-WEB-5-42-UEXT-full\Microchip\TCPIP Stack\DHCPs.c
                  __pa_15   0x00b79e    program     static F:\PIC-web\c18\PIC-WEB-5-42-UEXT-full\Microchip\TCPIP Stack\DHCPs.c
                  __pa_16   0x00b7ac    program     static F:\PIC-web\c18\PIC-WEB-5-42-UEXT-full\Microchip\TCPIP Stack\DHCPs.c
                  __pa_17   0x00b7b2    program     static F:\PIC-web\c18\PIC-WEB-5-42-UEXT-full\Microchip\TCPIP Stack\DHCPs.c
                  __pa_18   0x00b7c4    program     static F:\PIC-web\c18\PIC-WEB-5-42-UEXT-full\Microchip\TCPIP Stack\DHCPs.c
                  __pa_19   0x00b7d4    program     static F:\PIC-web\c18\PIC-WEB-5-42-UEXT-full\Microchip\TCPIP Stack\DHCPs.c
                  __pa_20   0x00b7e2    program     static F:\PIC-web\c18\PIC-WEB-5-42-UEXT-full\Microchip\TCPIP Stack\DHCPs.c
                  __pa_21   0x00b7ee    program     static F:\PIC-web\c18\PIC-WEB-5-42-UEXT-full\Microchip\TCPIP Stack\DHCPs.c
                  __pa_22   0x00b7fc    program     static F:\PIC-web\c18\PIC-WEB-5-42-UEXT-full\Microchip\TCPIP Stack\DHCPs.c
                  __pa_23   0x00b80a    program     static F:\PIC-web\c18\PIC-WEB-5-42-UEXT-full\Microchip\TCPIP Stack\DHCPs.c
                  __pa_24   0x00b812    program     static F:\PIC-web\c18\PIC-WEB-5-42-UEXT-full\Microchip\TCPIP Stack\DHCPs.c
                  __pa_25   0x00b81e    program     static F:\PIC-web\c18\PIC-WEB-5-42-UEXT-full\Microchip\TCPIP Stack\DHCPs.c
                  __pa_26   0x00b82a    program     static F:\PIC-web\c18\PIC-WEB-5-42-UEXT-full\Microchip\TCPIP Stack\DHCPs.c
                  __pa_27   0x00b834    program     static F:\PIC-web\c18\PIC-WEB-5-42-UEXT-full\Microchip\TCPIP Stack\DHCPs.c
                  __pa_28   0x00b840    program     static F:\PIC-web\c18\PIC-WEB-5-42-UEXT-full\Microchip\TCPIP Stack\DHCPs.c
                  __pa_29   0x00b84e    program     static F:\PIC-web\c18\PIC-WEB-5-42-UEXT-full\Microchip\TCPIP Stack\DHCPs.c
                  __pa_30   0x00b85c    program     static F:\PIC-web\c18\PIC-WEB-5-42-UEXT-full\Microchip\TCPIP Stack\DHCPs.c
                  __pa_31   0x00b868    program     static F:\PIC-web\c18\PIC-WEB-5-42-UEXT-full\Microchip\TCPIP Stack\DHCPs.c
                  __pa_32   0x00b86e    program     static F:\PIC-web\c18\PIC-WEB-5-42-UEXT-full\Microchip\TCPIP Stack\DHCPs.c
                  __pa_33   0x00b87a    program     static F:\PIC-web\c18\PIC-WEB-5-42-UEXT-full\Microchip\TCPIP Stack\DHCPs.c
                  __pa_34   0x00b880    program     static F:\PIC-web\c18\PIC-WEB-5-42-UEXT-full\Microchip\TCPIP Stack\DHCPs.c
                  __pa_35   0x00b890    program     static F:\PIC-web\c18\PIC-WEB-5-42-UEXT-full\Microchip\TCPIP Stack\DHCPs.c
                  __pa_36   0x00b89a    program     static F:\PIC-web\c18\PIC-WEB-5-42-UEXT-full\Microchip\TCPIP Stack\DHCPs.c
                  __pa_37   0x00b8a2    program     static F:\PIC-web\c18\PIC-WEB-5-42-UEXT-full\Microchip\TCPIP Stack\DHCPs.c
                  __pa_38   0x00b8ac    program     static F:\PIC-web\c18\PIC-WEB-5-42-UEXT-full\Microchip\TCPIP Stack\DHCPs.c
                  __pa_39   0x00b8b2    program     static F:\PIC-web\c18\PIC-WEB-5-42-UEXT-full\Microchip\TCPIP Stack\DHCPs.c
                  __pa_40   0x00b8be    program     static F:\PIC-web\c18\PIC-WEB-5-42-UEXT-full\Microchip\TCPIP Stack\DHCPs.c
                  __pa_41   0x00b8ca    program     static F:\PIC-web\c18\PIC-WEB-5-42-UEXT-full\Microchip\TCPIP Stack\DHCPs.c
                  __pa_42   0x00b8d6    program     static F:\PIC-web\c18\PIC-WEB-5-42-UEXT-full\Microchip\TCPIP Stack\DHCPs.c
                  __pa_43   0x00b8e4    program     static F:\PIC-web\c18\PIC-WEB-5-42-UEXT-full\Microchip\TCPIP Stack\DHCPs.c
                  __pa_44   0x00b8f0    program     static F:\PIC-web\c18\PIC-WEB-5-42-UEXT-full\Microchip\TCPIP Stack\DHCPs.c
                  __pa_45   0x00b8fc    program     static F:\PIC-web\c18\PIC-WEB-5-42-UEXT-full\Microchip\TCPIP Stack\DHCPs.c
                  __pa_46   0x00b904    program     static F:\PIC-web\c18\PIC-WEB-5-42-UEXT-full\Microchip\TCPIP Stack\DHCPs.c
                  __pa_47   0x00b90e    program     static F:\PIC-web\c18\PIC-WEB-5-42-UEXT-full\Microchip\TCPIP Stack\DHCPs.c
                  __pa_48   0x00b926    program     static F:\PIC-web\c18\PIC-WEB-5-42-UEXT-full\Microchip\TCPIP Stack\DHCPs.c
                  __pa_49   0x00b92c    program     static F:\PIC-web\c18\PIC-WEB-5-42-UEXT-full\Microchip\TCPIP Stack\DHCPs.c
                  __pa_50   0x00b932    program     static F:\PIC-web\c18\PIC-WEB-5-42-UEXT-full\Microchip\TCPIP Stack\DHCPs.c
                  __pa_51   0x00b93a    program     static F:\PIC-web\c18\PIC-WEB-5-42-UEXT-full\Microchip\TCPIP Stack\DHCPs.c
                  __pa_52   0x00b940    program     static F:\PIC-web\c18\PIC-WEB-5-42-UEXT-full\Microchip\TCPIP Stack\DHCPs.c
                  __pa_53   0x00b946    program     static F:\PIC-web\c18\PIC-WEB-5-42-UEXT-full\Microchip\TCPIP Stack\DHCPs.c
                  __pa_54   0x00b952    program     static F:\PIC-web\c18\PIC-WEB-5-42-UEXT-full\Microchip\TCPIP Stack\DHCPs.c
                  __pa_55   0x00b95c    program     static F:\PIC-web\c18\PIC-WEB-5-42-UEXT-full\Microchip\TCPIP Stack\DHCPs.c
                  __pa_56   0x00b962    program     static F:\PIC-web\c18\PIC-WEB-5-42-UEXT-full\Microchip\TCPIP Stack\DHCPs.c
                  UDPInit   0x00b968    program     extern F:\PIC-web\c18\PIC-WEB-5-42-UEXT-full\Microchip\TCPIP Stack\UDP.c
                UDPOpenEx   0x00b984    program     extern F:\PIC-web\c18\PIC-WEB-5-42-UEXT-full\Microchip\TCPIP Stack\UDP.c
                  UDPTask   0x00bafe    program     extern F:\PIC-web\c18\PIC-WEB-5-42-UEXT-full\Microchip\TCPIP Stack\UDP.c
              UDPIsOpened   0x00bcd4    program     extern F:\PIC-web\c18\PIC-WEB-5-42-UEXT-full\Microchip\TCPIP Stack\UDP.c
                 UDPClose   0x00bce8    program     extern F:\PIC-web\c18\PIC-WEB-5-42-UEXT-full\Microchip\TCPIP Stack\UDP.c
           UDPSetTxBuffer   0x00bd18    program     extern F:\PIC-web\c18\PIC-WEB-5-42-UEXT-full\Microchip\TCPIP Stack\UDP.c
           UDPSetRxBuffer   0x00bd66    program     extern F:\PIC-web\c18\PIC-WEB-5-42-UEXT-full\Microchip\TCPIP Stack\UDP.c
            UDPIsPutReady   0x00bd88    program     extern F:\PIC-web\c18\PIC-WEB-5-42-UEXT-full\Microchip\TCPIP Stack\UDP.c
                   UDPPut   0x00bdd0    program     extern F:\PIC-web\c18\PIC-WEB-5-42-UEXT-full\Microchip\TCPIP Stack\UDP.c
              UDPPutArray   0x00be06    program     extern F:\PIC-web\c18\PIC-WEB-5-42-UEXT-full\Microchip\TCPIP Stack\UDP.c
           UDPPutROMArray   0x00be52    program     extern F:\PIC-web\c18\PIC-WEB-5-42-UEXT-full\Microchip\TCPIP Stack\UDP.c
             UDPPutString   0x00bea2    program     extern F:\PIC-web\c18\PIC-WEB-5-42-UEXT-full\Microchip\TCPIP Stack\UDP.c
          UDPPutROMString   0x00beda    program     extern F:\PIC-web\c18\PIC-WEB-5-42-UEXT-full\Microchip\TCPIP Stack\UDP.c
                 UDPFlush   0x00bf28    program     extern F:\PIC-web\c18\PIC-WEB-5-42-UEXT-full\Microchip\TCPIP Stack\UDP.c
            UDPIsGetReady   0x00c098    program     extern F:\PIC-web\c18\PIC-WEB-5-42-UEXT-full\Microchip\TCPIP Stack\UDP.c
                   UDPGet   0x00c0d0    program     extern F:\PIC-web\c18\PIC-WEB-5-42-UEXT-full\Microchip\TCPIP Stack\UDP.c
              UDPGetArray   0x00c0fe    program     extern F:\PIC-web\c18\PIC-WEB-5-42-UEXT-full\Microchip\TCPIP Stack\UDP.c
               UDPDiscard   0x00c16e    program     extern F:\PIC-web\c18\PIC-WEB-5-42-UEXT-full\Microchip\TCPIP Stack\UDP.c
               UDPProcess   0x00c188    program     extern F:\PIC-web\c18\PIC-WEB-5-42-UEXT-full\Microchip\TCPIP Stack\UDP.c
       FindMatchingSocket   0x00c2d2    program     static F:\PIC-web\c18\PIC-WEB-5-42-UEXT-full\Microchip\TCPIP Stack\UDP.c
                   __pa_0   0x00c3de    program     static F:\PIC-web\c18\PIC-WEB-5-42-UEXT-full\Microchip\TCPIP Stack\UDP.c
                   __pa_1   0x00c3f2    program     static F:\PIC-web\c18\PIC-WEB-5-42-UEXT-full\Microchip\TCPIP Stack\UDP.c
                   __pa_2   0x00c3fa    program     static F:\PIC-web\c18\PIC-WEB-5-42-UEXT-full\Microchip\TCPIP Stack\UDP.c
                   __pa_3   0x00c404    program     static F:\PIC-web\c18\PIC-WEB-5-42-UEXT-full\Microchip\TCPIP Stack\UDP.c
                   __pa_4   0x00c41a    program     static F:\PIC-web\c18\PIC-WEB-5-42-UEXT-full\Microchip\TCPIP Stack\UDP.c
                   __pa_5   0x00c424    program     static F:\PIC-web\c18\PIC-WEB-5-42-UEXT-full\Microchip\TCPIP Stack\UDP.c
                   __pa_6   0x00c436    program     static F:\PIC-web\c18\PIC-WEB-5-42-UEXT-full\Microchip\TCPIP Stack\UDP.c
                   __pa_7   0x00c448    program     static F:\PIC-web\c18\PIC-WEB-5-42-UEXT-full\Microchip\TCPIP Stack\UDP.c
                   __pa_8   0x00c454    program     static F:\PIC-web\c18\PIC-WEB-5-42-UEXT-full\Microchip\TCPIP Stack\UDP.c
                   __pa_9   0x00c460    program     static F:\PIC-web\c18\PIC-WEB-5-42-UEXT-full\Microchip\TCPIP Stack\UDP.c
                  __pa_10   0x00c46a    program     static F:\PIC-web\c18\PIC-WEB-5-42-UEXT-full\Microchip\TCPIP Stack\UDP.c
                  __pa_11   0x00c474    program     static F:\PIC-web\c18\PIC-WEB-5-42-UEXT-full\Microchip\TCPIP Stack\UDP.c
                  __pa_12   0x00c482    program     static F:\PIC-web\c18\PIC-WEB-5-42-UEXT-full\Microchip\TCPIP Stack\UDP.c
                  __pa_13   0x00c48e    program     static F:\PIC-web\c18\PIC-WEB-5-42-UEXT-full\Microchip\TCPIP Stack\UDP.c
                  __pa_14   0x00c49a    program     static F:\PIC-web\c18\PIC-WEB-5-42-UEXT-full\Microchip\TCPIP Stack\UDP.c
                  __pa_15   0x00c4a4    program     static F:\PIC-web\c18\PIC-WEB-5-42-UEXT-full\Microchip\TCPIP Stack\UDP.c
                  __pa_16   0x00c4ac    program     static F:\PIC-web\c18\PIC-WEB-5-42-UEXT-full\Microchip\TCPIP Stack\UDP.c
                  __pa_17   0x00c4b4    program     static F:\PIC-web\c18\PIC-WEB-5-42-UEXT-full\Microchip\TCPIP Stack\UDP.c
                  __pa_18   0x00c4ca    program     static F:\PIC-web\c18\PIC-WEB-5-42-UEXT-full\Microchip\TCPIP Stack\UDP.c
                  __pa_19   0x00c4d2    program     static F:\PIC-web\c18\PIC-WEB-5-42-UEXT-full\Microchip\TCPIP Stack\UDP.c
                  __pa_20   0x00c4da    program     static F:\PIC-web\c18\PIC-WEB-5-42-UEXT-full\Microchip\TCPIP Stack\UDP.c
                  __pa_21   0x00c4e4    program     static F:\PIC-web\c18\PIC-WEB-5-42-UEXT-full\Microchip\TCPIP Stack\UDP.c
                  __pa_22   0x00c4f2    program     static F:\PIC-web\c18\PIC-WEB-5-42-UEXT-full\Microchip\TCPIP Stack\UDP.c
                  __pa_23   0x00c4fc    program     static F:\PIC-web\c18\PIC-WEB-5-42-UEXT-full\Microchip\TCPIP Stack\UDP.c
             LFSRSeedRand   0x00c502    program     extern F:\PIC-web\c18\PIC-WEB-5-42-UEXT-full\Microchip\TCPIP Stack\Helpers.c
                 LFSRRand   0x00c55c    program     extern F:\PIC-web\c18\PIC-WEB-5-42-UEXT-full\Microchip\TCPIP Stack\Helpers.c
      GenerateRandomDWORD   0x00c5d4    program     extern F:\PIC-web\c18\PIC-WEB-5-42-UEXT-full\Microchip\TCPIP Stack\Helpers.c
        ___while_lbl00010   0x00c618    program     static                          
        ___while_lbl00012   0x00c620    program     static                          
        ___while_lbl00013   0x00c624    program     static                          
               __tmplbl_0   0x00c65e    program     static                          
           ___if_lbl00014   0x00c67e    program     static                          
           ___if_lbl00015   0x00c694    program     static                          
           ___if_lbl00016   0x00c6e6    program     static                          
           ___if_lbl00017   0x00c6ee    program     static                          
        ___while_lbl00011   0x00c6f0    program     static                          
       ___return_lbl00009   0x00c716    program     static                          
        StringToIPAddress   0x00c718    program     extern F:\PIC-web\c18\PIC-WEB-5-42-UEXT-full\Microchip\TCPIP Stack\Helpers.c
     ROMStringToIPAddress   0x00c812    program     extern F:\PIC-web\c18\PIC-WEB-5-42-UEXT-full\Microchip\TCPIP Stack\Helpers.c
             Base64Decode   0x00c906    program     extern F:\PIC-web\c18\PIC-WEB-5-42-UEXT-full\Microchip\TCPIP Stack\Helpers.c
             Base64Encode   0x00c9fe    program     extern F:\PIC-web\c18\PIC-WEB-5-42-UEXT-full\Microchip\TCPIP Stack\Helpers.c
                    uitoa   0x00cb18    program     extern F:\PIC-web\c18\PIC-WEB-5-42-UEXT-full\Microchip\TCPIP Stack\Helpers.c
                  hexatob   0x00cbc4    program     extern F:\PIC-web\c18\PIC-WEB-5-42-UEXT-full\Microchip\TCPIP Stack\Helpers.c
             btohexa_high   0x00cbfe    program     extern F:\PIC-web\c18\PIC-WEB-5-42-UEXT-full\Microchip\TCPIP Stack\Helpers.c
              btohexa_low   0x00cc1a    program     extern F:\PIC-web\c18\PIC-WEB-5-42-UEXT-full\Microchip\TCPIP Stack\Helpers.c
           stricmppgm2ram   0x00cc34    program     extern F:\PIC-web\c18\PIC-WEB-5-42-UEXT-full\Microchip\TCPIP Stack\Helpers.c
                    swaps   0x00ccb2    program     extern F:\PIC-web\c18\PIC-WEB-5-42-UEXT-full\Microchip\TCPIP Stack\Helpers.c
                    swapl   0x00ccbc    program     extern F:\PIC-web\c18\PIC-WEB-5-42-UEXT-full\Microchip\TCPIP Stack\Helpers.c
           CalcIPChecksum   0x00cce8    program     extern F:\PIC-web\c18\PIC-WEB-5-42-UEXT-full\Microchip\TCPIP Stack\Helpers.c
          leftRotateDWORD   0x00cdc0    program     extern F:\PIC-web\c18\PIC-WEB-5-42-UEXT-full\Microchip\TCPIP Stack\Helpers.c
          ___for_lbl00149   0x00cdd4    program     static                          
          ___for_lbl00147   0x00cdf0    program     static                          
          ___for_lbl00148   0x00cdf8    program     static                          
          ___for_lbl00152   0x00cdf8    program     static                          
          ___for_lbl00150   0x00ce0e    program     static                          
          ___for_lbl00151   0x00ce14    program     static                          
       ___return_lbl00146   0x00ce26    program     static                          
        FormatNetBIOSName   0x00ce28    program     extern F:\PIC-web\c18\PIC-WEB-5-42-UEXT-full\Microchip\TCPIP Stack\Helpers.c
                  strnchr   0x00ce6c    program     extern F:\PIC-web\c18\PIC-WEB-5-42-UEXT-full\Microchip\TCPIP Stack\Helpers.c
                strncpy_m   0x00cebc    program     extern F:\PIC-web\c18\PIC-WEB-5-42-UEXT-full\Microchip\TCPIP Stack\Helpers.c
                   __pa_0   0x00cfa8    program     static F:\PIC-web\c18\PIC-WEB-5-42-UEXT-full\Microchip\TCPIP Stack\Helpers.c
                   __pa_1   0x00cfc0    program     static F:\PIC-web\c18\PIC-WEB-5-42-UEXT-full\Microchip\TCPIP Stack\Helpers.c
                   __pa_2   0x00cfcc    program     static F:\PIC-web\c18\PIC-WEB-5-42-UEXT-full\Microchip\TCPIP Stack\Helpers.c
                   __pa_3   0x00cfe0    program     static F:\PIC-web\c18\PIC-WEB-5-42-UEXT-full\Microchip\TCPIP Stack\Helpers.c
                   __pa_4   0x00cff4    program     static F:\PIC-web\c18\PIC-WEB-5-42-UEXT-full\Microchip\TCPIP Stack\Helpers.c
                   __pa_5   0x00d002    program     static F:\PIC-web\c18\PIC-WEB-5-42-UEXT-full\Microchip\TCPIP Stack\Helpers.c
                   __pa_6   0x00d016    program     static F:\PIC-web\c18\PIC-WEB-5-42-UEXT-full\Microchip\TCPIP Stack\Helpers.c
              __tmplbl_38   0x00d016    program     static                          
                   __pa_7   0x00d026    program     static F:\PIC-web\c18\PIC-WEB-5-42-UEXT-full\Microchip\TCPIP Stack\Helpers.c
                   __pa_8   0x00d036    program     static F:\PIC-web\c18\PIC-WEB-5-42-UEXT-full\Microchip\TCPIP Stack\Helpers.c
                   __pa_9   0x00d048    program     static F:\PIC-web\c18\PIC-WEB-5-42-UEXT-full\Microchip\TCPIP Stack\Helpers.c
                 DHCPInit   0x00d058    program     extern F:\PIC-web\c18\PIC-WEB-5-42-UEXT-full\Microchip\TCPIP Stack\DHCP.c
              DHCPDisable   0x00d08e    program     extern F:\PIC-web\c18\PIC-WEB-5-42-UEXT-full\Microchip\TCPIP Stack\DHCP.c
               DHCPEnable   0x00d09e    program     extern F:\PIC-web\c18\PIC-WEB-5-42-UEXT-full\Microchip\TCPIP Stack\DHCP.c
            DHCPIsEnabled   0x00d0ac    program     extern F:\PIC-web\c18\PIC-WEB-5-42-UEXT-full\Microchip\TCPIP Stack\DHCP.c
              DHCPIsBound   0x00d0b6    program     extern F:\PIC-web\c18\PIC-WEB-5-42-UEXT-full\Microchip\TCPIP Stack\DHCP.c
         DHCPStateChanged   0x00d0be    program     extern F:\PIC-web\c18\PIC-WEB-5-42-UEXT-full\Microchip\TCPIP Stack\DHCP.c
     DHCPIsServerDetected   0x00d0ca    program     extern F:\PIC-web\c18\PIC-WEB-5-42-UEXT-full\Microchip\TCPIP Stack\DHCP.c
           DHCPTempIPAddr   0x00d0d6    program     extern F:\PIC-web\c18\PIC-WEB-5-42-UEXT-full\Microchip\TCPIP Stack\DHCP.c
                 DHCPTask   0x00d0da    program     extern F:\PIC-web\c18\PIC-WEB-5-42-UEXT-full\Microchip\TCPIP Stack\DHCP.c
             _DHCPReceive   0x00d30e    program     static F:\PIC-web\c18\PIC-WEB-5-42-UEXT-full\Microchip\TCPIP Stack\DHCP.c
                _DHCPSend   0x00d578    program     static F:\PIC-web\c18\PIC-WEB-5-42-UEXT-full\Microchip\TCPIP Stack\DHCP.c
                   __pa_0   0x00d6f6    program     static F:\PIC-web\c18\PIC-WEB-5-42-UEXT-full\Microchip\TCPIP Stack\DHCP.c
                   __pa_1   0x00d7b6    program     static F:\PIC-web\c18\PIC-WEB-5-42-UEXT-full\Microchip\TCPIP Stack\DHCP.c
                   __pa_2   0x00d7c2    program     static F:\PIC-web\c18\PIC-WEB-5-42-UEXT-full\Microchip\TCPIP Stack\DHCP.c
                   __pa_3   0x00d7e2    program     static F:\PIC-web\c18\PIC-WEB-5-42-UEXT-full\Microchip\TCPIP Stack\DHCP.c
                   __pa_4   0x00d7ec    program     static F:\PIC-web\c18\PIC-WEB-5-42-UEXT-full\Microchip\TCPIP Stack\DHCP.c
                   __pa_5   0x00d824    program     static F:\PIC-web\c18\PIC-WEB-5-42-UEXT-full\Microchip\TCPIP Stack\DHCP.c
                   __pa_6   0x00d83e    program     static F:\PIC-web\c18\PIC-WEB-5-42-UEXT-full\Microchip\TCPIP Stack\DHCP.c
                   __pa_7   0x00d86a    program     static F:\PIC-web\c18\PIC-WEB-5-42-UEXT-full\Microchip\TCPIP Stack\DHCP.c
                   __pa_8   0x00d88a    program     static F:\PIC-web\c18\PIC-WEB-5-42-UEXT-full\Microchip\TCPIP Stack\DHCP.c
                   __pa_9   0x00d89e    program     static F:\PIC-web\c18\PIC-WEB-5-42-UEXT-full\Microchip\TCPIP Stack\DHCP.c
                  __pa_10   0x00d8b0    program     static F:\PIC-web\c18\PIC-WEB-5-42-UEXT-full\Microchip\TCPIP Stack\DHCP.c
                  __pa_11   0x00d8bc    program     static F:\PIC-web\c18\PIC-WEB-5-42-UEXT-full\Microchip\TCPIP Stack\DHCP.c
                  __pa_12   0x00d8c2    program     static F:\PIC-web\c18\PIC-WEB-5-42-UEXT-full\Microchip\TCPIP Stack\DHCP.c
                  __pa_13   0x00d8d8    program     static F:\PIC-web\c18\PIC-WEB-5-42-UEXT-full\Microchip\TCPIP Stack\DHCP.c
                  __pa_14   0x00d8ea    program     static F:\PIC-web\c18\PIC-WEB-5-42-UEXT-full\Microchip\TCPIP Stack\DHCP.c
                  __pa_15   0x00d8f4    program     static F:\PIC-web\c18\PIC-WEB-5-42-UEXT-full\Microchip\TCPIP Stack\DHCP.c
                  __pa_16   0x00d8fe    program     static F:\PIC-web\c18\PIC-WEB-5-42-UEXT-full\Microchip\TCPIP Stack\DHCP.c
                  __pa_17   0x00d910    program     static F:\PIC-web\c18\PIC-WEB-5-42-UEXT-full\Microchip\TCPIP Stack\DHCP.c
                  __pa_18   0x00d922    program     static F:\PIC-web\c18\PIC-WEB-5-42-UEXT-full\Microchip\TCPIP Stack\DHCP.c
                  __pa_19   0x00d92c    program     static F:\PIC-web\c18\PIC-WEB-5-42-UEXT-full\Microchip\TCPIP Stack\DHCP.c
                  __pa_20   0x00d93c    program     static F:\PIC-web\c18\PIC-WEB-5-42-UEXT-full\Microchip\TCPIP Stack\DHCP.c
                  __pa_21   0x00d94a    program     static F:\PIC-web\c18\PIC-WEB-5-42-UEXT-full\Microchip\TCPIP Stack\DHCP.c
                  __pa_22   0x00d954    program     static F:\PIC-web\c18\PIC-WEB-5-42-UEXT-full\Microchip\TCPIP Stack\DHCP.c
                  __pa_23   0x00d96e    program     static F:\PIC-web\c18\PIC-WEB-5-42-UEXT-full\Microchip\TCPIP Stack\DHCP.c
                  __pa_24   0x00d97c    program     static F:\PIC-web\c18\PIC-WEB-5-42-UEXT-full\Microchip\TCPIP Stack\DHCP.c
                  __pa_25   0x00d98e    program     static F:\PIC-web\c18\PIC-WEB-5-42-UEXT-full\Microchip\TCPIP Stack\DHCP.c
                  __pa_26   0x00d998    program     static F:\PIC-web\c18\PIC-WEB-5-42-UEXT-full\Microchip\TCPIP Stack\DHCP.c
                  __pa_27   0x00d9a2    program     static F:\PIC-web\c18\PIC-WEB-5-42-UEXT-full\Microchip\TCPIP Stack\DHCP.c
                  __pa_28   0x00d9a8    program     static F:\PIC-web\c18\PIC-WEB-5-42-UEXT-full\Microchip\TCPIP Stack\DHCP.c
                  __pa_29   0x00d9b4    program     static F:\PIC-web\c18\PIC-WEB-5-42-UEXT-full\Microchip\TCPIP Stack\DHCP.c
                  __pa_30   0x00d9be    program     static F:\PIC-web\c18\PIC-WEB-5-42-UEXT-full\Microchip\TCPIP Stack\DHCP.c
                  __pa_31   0x00d9cc    program     static F:\PIC-web\c18\PIC-WEB-5-42-UEXT-full\Microchip\TCPIP Stack\DHCP.c
              HashAddData   0x00d9d4    program     extern F:\PIC-web\c18\PIC-WEB-5-42-UEXT-full\Microchip\TCPIP Stack\Hashes.c
           HashAddROMData   0x00da00    program     extern F:\PIC-web\c18\PIC-WEB-5-42-UEXT-full\Microchip\TCPIP Stack\Hashes.c
            MD5Initialize   0x00da30    program     extern F:\PIC-web\c18\PIC-WEB-5-42-UEXT-full\Microchip\TCPIP Stack\Hashes.c
               MD5AddData   0x00da9a    program     extern F:\PIC-web\c18\PIC-WEB-5-42-UEXT-full\Microchip\TCPIP Stack\Hashes.c
            MD5AddROMData   0x00db2a    program     extern F:\PIC-web\c18\PIC-WEB-5-42-UEXT-full\Microchip\TCPIP Stack\Hashes.c
             MD5HashBlock   0x00dbc2    program     static F:\PIC-web\c18\PIC-WEB-5-42-UEXT-full\Microchip\TCPIP Stack\Hashes.c
             MD5Calculate   0x00df22    program     extern F:\PIC-web\c18\PIC-WEB-5-42-UEXT-full\Microchip\TCPIP Stack\Hashes.c
                   __pa_0   0x00e0bc    program     static F:\PIC-web\c18\PIC-WEB-5-42-UEXT-full\Microchip\TCPIP Stack\Hashes.c
                   __pa_1   0x00e0d2    program     static F:\PIC-web\c18\PIC-WEB-5-42-UEXT-full\Microchip\TCPIP Stack\Hashes.c
                   __pa_2   0x00e0f4    program     static F:\PIC-web\c18\PIC-WEB-5-42-UEXT-full\Microchip\TCPIP Stack\Hashes.c
                   __pa_3   0x00e12a    program     static F:\PIC-web\c18\PIC-WEB-5-42-UEXT-full\Microchip\TCPIP Stack\Hashes.c
                   __pa_4   0x00e136    program     static F:\PIC-web\c18\PIC-WEB-5-42-UEXT-full\Microchip\TCPIP Stack\Hashes.c
                   __pa_5   0x00e140    program     static F:\PIC-web\c18\PIC-WEB-5-42-UEXT-full\Microchip\TCPIP Stack\Hashes.c
                   __pa_6   0x00e14a    program     static F:\PIC-web\c18\PIC-WEB-5-42-UEXT-full\Microchip\TCPIP Stack\Hashes.c
                   __pa_7   0x00e162    program     static F:\PIC-web\c18\PIC-WEB-5-42-UEXT-full\Microchip\TCPIP Stack\Hashes.c
                   __pa_8   0x00e170    program     static F:\PIC-web\c18\PIC-WEB-5-42-UEXT-full\Microchip\TCPIP Stack\Hashes.c
                   __pa_9   0x00e18c    program     static F:\PIC-web\c18\PIC-WEB-5-42-UEXT-full\Microchip\TCPIP Stack\Hashes.c
                  __pa_10   0x00e1a0    program     static F:\PIC-web\c18\PIC-WEB-5-42-UEXT-full\Microchip\TCPIP Stack\Hashes.c
                  __pa_11   0x00e1b0    program     static F:\PIC-web\c18\PIC-WEB-5-42-UEXT-full\Microchip\TCPIP Stack\Hashes.c
                  __pa_12   0x00e1ba    program     static F:\PIC-web\c18\PIC-WEB-5-42-UEXT-full\Microchip\TCPIP Stack\Hashes.c
                  __pa_13   0x00e1c8    program     static F:\PIC-web\c18\PIC-WEB-5-42-UEXT-full\Microchip\TCPIP Stack\Hashes.c
                  __pa_14   0x00e1d6    program     static F:\PIC-web\c18\PIC-WEB-5-42-UEXT-full\Microchip\TCPIP Stack\Hashes.c
                  __pa_15   0x00e1e4    program     static F:\PIC-web\c18\PIC-WEB-5-42-UEXT-full\Microchip\TCPIP Stack\Hashes.c
                  __pa_16   0x00e1f2    program     static F:\PIC-web\c18\PIC-WEB-5-42-UEXT-full\Microchip\TCPIP Stack\Hashes.c
                  __pa_17   0x00e1fc    program     static F:\PIC-web\c18\PIC-WEB-5-42-UEXT-full\Microchip\TCPIP Stack\Hashes.c
                  __pa_18   0x00e204    program     static F:\PIC-web\c18\PIC-WEB-5-42-UEXT-full\Microchip\TCPIP Stack\Hashes.c
                  __pa_19   0x00e20e    program     static F:\PIC-web\c18\PIC-WEB-5-42-UEXT-full\Microchip\TCPIP Stack\Hashes.c
                  __pa_20   0x00e21c    program     static F:\PIC-web\c18\PIC-WEB-5-42-UEXT-full\Microchip\TCPIP Stack\Hashes.c
                  __pa_21   0x00e22a    program     static F:\PIC-web\c18\PIC-WEB-5-42-UEXT-full\Microchip\TCPIP Stack\Hashes.c
                  __pa_22   0x00e230    program     static F:\PIC-web\c18\PIC-WEB-5-42-UEXT-full\Microchip\TCPIP Stack\Hashes.c
                  MACInit   0x00e236    program     extern F:\PIC-web\c18\PIC-WEB-5-42-UEXT-full\Microchip\TCPIP Stack\ETH97J60.c
        ___while_lbl00001   0x00e23e    program     static                          
        ___while_lbl00002   0x00e244    program     static                          
       ___return_lbl00000   0x00e31e    program     static                          
              MACIsLinked   0x00e320    program     extern F:\PIC-web\c18\PIC-WEB-5-42-UEXT-full\Microchip\TCPIP Stack\ETH97J60.c
             MACIsTxReady   0x00e332    program     extern F:\PIC-web\c18\PIC-WEB-5-42-UEXT-full\Microchip\TCPIP Stack\ETH97J60.c
             MACDiscardRx   0x00e358    program     extern F:\PIC-web\c18\PIC-WEB-5-42-UEXT-full\Microchip\TCPIP Stack\ETH97J60.c
         MACGetFreeRxSize   0x00e3a4    program     extern F:\PIC-web\c18\PIC-WEB-5-42-UEXT-full\Microchip\TCPIP Stack\ETH97J60.c
             MACGetHeader   0x00e422    program     extern F:\PIC-web\c18\PIC-WEB-5-42-UEXT-full\Microchip\TCPIP Stack\ETH97J60.c
           ___if_lbl00020   0x00e42c    program     static                          
           ___if_lbl00021   0x00e43c    program     static                          
              __tmplbl_11   0x00e492    program     static                          
              __tmplbl_10   0x00e494    program     static                          
               __tmplbl_9   0x00e49e    program     static                          
               __tmplbl_8   0x00e4a8    program     static                          
               __tmplbl_7   0x00e4b2    program     static                          
               __tmplbl_6   0x00e4c0    program     static                          
               __tmplbl_5   0x00e4ca    program     static                          
           ___if_lbl00027   0x00e4cc    program     static                          
              __tmplbl_13   0x00e518    program     static                          
              __tmplbl_14   0x00e51e    program     static                          
              __tmplbl_12   0x00e526    program     static                          
           ___if_lbl00030   0x00e532    program     static                          
       ___return_lbl00019   0x00e53a    program     static                          
             MACPutHeader   0x00e53c    program     extern F:\PIC-web\c18\PIC-WEB-5-42-UEXT-full\Microchip\TCPIP Stack\ETH97J60.c
                 MACFlush   0x00e59a    program     extern F:\PIC-web\c18\PIC-WEB-5-42-UEXT-full\Microchip\TCPIP Stack\ETH97J60.c
        MACSetReadPtrInRx   0x00e5be    program     extern F:\PIC-web\c18\PIC-WEB-5-42-UEXT-full\Microchip\TCPIP Stack\ETH97J60.c
           MACSetWritePtr   0x00e5ec    program     extern F:\PIC-web\c18\PIC-WEB-5-42-UEXT-full\Microchip\TCPIP Stack\ETH97J60.c
            MACSetReadPtr   0x00e606    program     extern F:\PIC-web\c18\PIC-WEB-5-42-UEXT-full\Microchip\TCPIP Stack\ETH97J60.c
        MACCalcRxChecksum   0x00e620    program     extern F:\PIC-web\c18\PIC-WEB-5-42-UEXT-full\Microchip\TCPIP Stack\ETH97J60.c
     CalcIPBufferChecksum   0x00e66c    program     extern F:\PIC-web\c18\PIC-WEB-5-42-UEXT-full\Microchip\TCPIP Stack\ETH97J60.c
          MACMemCopyAsync   0x00e780    program     extern F:\PIC-web\c18\PIC-WEB-5-42-UEXT-full\Microchip\TCPIP Stack\ETH97J60.c
         MACIsMemCopyDone   0x00e8b4    program     extern F:\PIC-web\c18\PIC-WEB-5-42-UEXT-full\Microchip\TCPIP Stack\ETH97J60.c
                   MACGet   0x00e8c0    program     extern F:\PIC-web\c18\PIC-WEB-5-42-UEXT-full\Microchip\TCPIP Stack\ETH97J60.c
              MACGetArray   0x00e8c4    program     extern F:\PIC-web\c18\PIC-WEB-5-42-UEXT-full\Microchip\TCPIP Stack\ETH97J60.c
                   MACPut   0x00e902    program     extern F:\PIC-web\c18\PIC-WEB-5-42-UEXT-full\Microchip\TCPIP Stack\ETH97J60.c
       ___return_lbl00079   0x00e90a    program     static                          
        ___while_lbl00081   0x00e90c    program     static                          
              MACPutArray   0x00e90c    program     extern F:\PIC-web\c18\PIC-WEB-5-42-UEXT-full\Microchip\TCPIP Stack\ETH97J60.c
        ___while_lbl00082   0x00e93c    program     static                          
       ___return_lbl00080   0x00e93c    program     static                          
           MACPutROMArray   0x00e93e    program     extern F:\PIC-web\c18\PIC-WEB-5-42-UEXT-full\Microchip\TCPIP Stack\ETH97J60.c
        ___while_lbl00084   0x00e93e    program     static                          
        ___while_lbl00085   0x00e978    program     static                          
       ___return_lbl00083   0x00e978    program     static                          
               ReadPHYReg   0x00e97a    program     extern F:\PIC-web\c18\PIC-WEB-5-42-UEXT-full\Microchip\TCPIP Stack\ETH97J60.c
        ___while_lbl00087   0x00e988    program     static                          
        ___while_lbl00088   0x00e98e    program     static                          
       ___return_lbl00086   0x00e9a8    program     static                          
              WritePHYReg   0x00e9aa    program     extern F:\PIC-web\c18\PIC-WEB-5-42-UEXT-full\Microchip\TCPIP Stack\ETH97J60.c
        ___while_lbl00090   0x00e9d2    program     static                          
        ___while_lbl00091   0x00e9d8    program     static                          
       ___return_lbl00089   0x00e9d8    program     static                          
             MACPowerDown   0x00e9da    program     extern F:\PIC-web\c18\PIC-WEB-5-42-UEXT-full\Microchip\TCPIP Stack\ETH97J60.c
               MACPowerUp   0x00e9ec    program     extern F:\PIC-web\c18\PIC-WEB-5-42-UEXT-full\Microchip\TCPIP Stack\ETH97J60.c
                   __pa_0   0x00e9fa    program     static F:\PIC-web\c18\PIC-WEB-5-42-UEXT-full\Microchip\TCPIP Stack\ETH97J60.c
                   __pa_1   0x00ea12    program     static F:\PIC-web\c18\PIC-WEB-5-42-UEXT-full\Microchip\TCPIP Stack\ETH97J60.c
                   __pa_2   0x00ea2a    program     static F:\PIC-web\c18\PIC-WEB-5-42-UEXT-full\Microchip\TCPIP Stack\ETH97J60.c
                   __pa_3   0x00ea40    program     static F:\PIC-web\c18\PIC-WEB-5-42-UEXT-full\Microchip\TCPIP Stack\ETH97J60.c
                   __pa_4   0x00ea52    program     static F:\PIC-web\c18\PIC-WEB-5-42-UEXT-full\Microchip\TCPIP Stack\ETH97J60.c
                   __pa_5   0x00ea62    program     static F:\PIC-web\c18\PIC-WEB-5-42-UEXT-full\Microchip\TCPIP Stack\ETH97J60.c
                   __pa_6   0x00ea6c    program     static F:\PIC-web\c18\PIC-WEB-5-42-UEXT-full\Microchip\TCPIP Stack\ETH97J60.c
            DNSBeginUsage   0x00ea78    program     extern F:\PIC-web\c18\PIC-WEB-5-42-UEXT-full\Microchip\TCPIP Stack\DNS.c
              DNSEndUsage   0x00ea82    program     extern F:\PIC-web\c18\PIC-WEB-5-42-UEXT-full\Microchip\TCPIP Stack\DNS.c
               DNSResolve   0x00ea9c    program     extern F:\PIC-web\c18\PIC-WEB-5-42-UEXT-full\Microchip\TCPIP Stack\DNS.c
            DNSResolveROM   0x00eadc    program     extern F:\PIC-web\c18\PIC-WEB-5-42-UEXT-full\Microchip\TCPIP Stack\DNS.c
            DNSIsResolved   0x00eb22    program     extern F:\PIC-web\c18\PIC-WEB-5-42-UEXT-full\Microchip\TCPIP Stack\DNS.c
             DNSPutString   0x00ee5c    program     static F:\PIC-web\c18\PIC-WEB-5-42-UEXT-full\Microchip\TCPIP Stack\DNS.c
          DNSPutROMString   0x00eef6    program     static F:\PIC-web\c18\PIC-WEB-5-42-UEXT-full\Microchip\TCPIP Stack\DNS.c
           DNSDiscardName   0x00efb0    program     static F:\PIC-web\c18\PIC-WEB-5-42-UEXT-full\Microchip\TCPIP Stack\DNS.c
                   __pa_0   0x00efe0    program     static F:\PIC-web\c18\PIC-WEB-5-42-UEXT-full\Microchip\TCPIP Stack\DNS.c
                   __pa_1   0x00f03c    program     static F:\PIC-web\c18\PIC-WEB-5-42-UEXT-full\Microchip\TCPIP Stack\DNS.c
                   __pa_2   0x00f06e    program     static F:\PIC-web\c18\PIC-WEB-5-42-UEXT-full\Microchip\TCPIP Stack\DNS.c
                   __pa_3   0x00f076    program     static F:\PIC-web\c18\PIC-WEB-5-42-UEXT-full\Microchip\TCPIP Stack\DNS.c
                   __pa_4   0x00f08c    program     static F:\PIC-web\c18\PIC-WEB-5-42-UEXT-full\Microchip\TCPIP Stack\DNS.c
                   __pa_5   0x00f098    program     static F:\PIC-web\c18\PIC-WEB-5-42-UEXT-full\Microchip\TCPIP Stack\DNS.c
                   __pa_6   0x00f0b0    program     static F:\PIC-web\c18\PIC-WEB-5-42-UEXT-full\Microchip\TCPIP Stack\DNS.c
                   __pa_7   0x00f0c2    program     static F:\PIC-web\c18\PIC-WEB-5-42-UEXT-full\Microchip\TCPIP Stack\DNS.c
                   __pa_8   0x00f0d0    program     static F:\PIC-web\c18\PIC-WEB-5-42-UEXT-full\Microchip\TCPIP Stack\DNS.c
                   __pa_9   0x00f0e2    program     static F:\PIC-web\c18\PIC-WEB-5-42-UEXT-full\Microchip\TCPIP Stack\DNS.c
                  __pa_10   0x00f0f4    program     static F:\PIC-web\c18\PIC-WEB-5-42-UEXT-full\Microchip\TCPIP Stack\DNS.c
                  __pa_11   0x00f0fe    program     static F:\PIC-web\c18\PIC-WEB-5-42-UEXT-full\Microchip\TCPIP Stack\DNS.c
                  __pa_12   0x00f10a    program     static F:\PIC-web\c18\PIC-WEB-5-42-UEXT-full\Microchip\TCPIP Stack\DNS.c
                  __pa_13   0x00f118    program     static F:\PIC-web\c18\PIC-WEB-5-42-UEXT-full\Microchip\TCPIP Stack\DNS.c
                  __pa_14   0x00f11e    program     static F:\PIC-web\c18\PIC-WEB-5-42-UEXT-full\Microchip\TCPIP Stack\DNS.c
                  __pa_15   0x00f124    program     static F:\PIC-web\c18\PIC-WEB-5-42-UEXT-full\Microchip\TCPIP Stack\DNS.c
                  __pa_16   0x00f12a    program     static F:\PIC-web\c18\PIC-WEB-5-42-UEXT-full\Microchip\TCPIP Stack\DNS.c
               AutoIPInit   0x00f130    program     extern F:\PIC-web\c18\PIC-WEB-5-42-UEXT-full\Microchip\TCPIP Stack\AutoIP.c
       AutoIPIsConfigured   0x00f148    program     extern F:\PIC-web\c18\PIC-WEB-5-42-UEXT-full\Microchip\TCPIP Stack\AutoIP.c
 AutoIPConfigIsInProgress   0x00f154    program     extern F:\PIC-web\c18\PIC-WEB-5-42-UEXT-full\Microchip\TCPIP Stack\AutoIP.c
              AutoIPTasks   0x00f160    program     extern F:\PIC-web\c18\PIC-WEB-5-42-UEXT-full\Microchip\TCPIP Stack\AutoIP.c
           AutoIPConflict   0x00f4e2    program     extern F:\PIC-web\c18\PIC-WEB-5-42-UEXT-full\Microchip\TCPIP Stack\AutoIP.c
            AutoIPDisable   0x00f582    program     extern F:\PIC-web\c18\PIC-WEB-5-42-UEXT-full\Microchip\TCPIP Stack\AutoIP.c
             AutoIPEnable   0x00f596    program     extern F:\PIC-web\c18\PIC-WEB-5-42-UEXT-full\Microchip\TCPIP Stack\AutoIP.c
         AutoIPIsDisabled   0x00f5a0    program     extern F:\PIC-web\c18\PIC-WEB-5-42-UEXT-full\Microchip\TCPIP Stack\AutoIP.c
           AutoIPRandSeed   0x00f5aa    program     extern F:\PIC-web\c18\PIC-WEB-5-42-UEXT-full\Microchip\TCPIP Stack\AutoIP.c
               AutoIPRand   0x00f5bc    program     extern F:\PIC-web\c18\PIC-WEB-5-42-UEXT-full\Microchip\TCPIP Stack\AutoIP.c
                   __pa_0   0x00f5f4    program     static F:\PIC-web\c18\PIC-WEB-5-42-UEXT-full\Microchip\TCPIP Stack\AutoIP.c
                   __pa_1   0x00f680    program     static F:\PIC-web\c18\PIC-WEB-5-42-UEXT-full\Microchip\TCPIP Stack\AutoIP.c
                   __pa_2   0x00f6a0    program     static F:\PIC-web\c18\PIC-WEB-5-42-UEXT-full\Microchip\TCPIP Stack\AutoIP.c
                   __pa_3   0x00f6e8    program     static F:\PIC-web\c18\PIC-WEB-5-42-UEXT-full\Microchip\TCPIP Stack\AutoIP.c
                   __pa_4   0x00f6fe    program     static F:\PIC-web\c18\PIC-WEB-5-42-UEXT-full\Microchip\TCPIP Stack\AutoIP.c
                   __pa_5   0x00f720    program     static F:\PIC-web\c18\PIC-WEB-5-42-UEXT-full\Microchip\TCPIP Stack\AutoIP.c
                   __pa_6   0x00f732    program     static F:\PIC-web\c18\PIC-WEB-5-42-UEXT-full\Microchip\TCPIP Stack\AutoIP.c
                   LowISR   0x00f740    program     extern F:\PIC-web\c18\PIC-WEB-5-42-UEXT-full\TCPIP\Demo App\MainDemo.c
                  HighISR   0x00f78c    program     extern F:\PIC-web\c18\PIC-WEB-5-42-UEXT-full\TCPIP\Demo App\MainDemo.c
                     main   0x00f7f0    program     extern F:\PIC-web\c18\PIC-WEB-5-42-UEXT-full\TCPIP\Demo App\MainDemo.c
        ___while_lbl00006   0x00f816    program     static                          
               __tmplbl_0   0x00f850    program     static                          
        ___while_lbl00008   0x00f888    program     static                          
               __tmplbl_1   0x00f8c6    program     static                          
        ___while_lbl00009   0x00f8ca    program     static                          
        ___while_lbl00010   0x00f8cc    program     static                          
        ___while_lbl00011   0x00f8d0    program     static                          
           ___if_lbl00012   0x00f8d4    program     static                          
        ___while_lbl00007   0x00f8d6    program     static                          
           ___if_lbl00013   0x00f8da    program     static                          
        ___while_lbl00014   0x00f8f4    program     static                          
               __tmplbl_2   0x00f928    program     static                          
           ___if_lbl00016   0x00f940    program     static                          
               __tmplbl_3   0x00f98e    program     static                          
           ___if_lbl00017   0x00f9da    program     static                          
       ___return_lbl00005   0x00f9dc    program     static                          
        ___while_lbl00015   0x00f9dc    program     static                          
           DisplayIPValue   0x00f9de    program     extern F:\PIC-web\c18\PIC-WEB-5-42-UEXT-full\TCPIP\Demo App\MainDemo.c
                ProcessIO   0x00fa52    program     static F:\PIC-web\c18\PIC-WEB-5-42-UEXT-full\TCPIP\Demo App\MainDemo.c
          InitializeBoard   0x00fa7a    program     static F:\PIC-web\c18\PIC-WEB-5-42-UEXT-full\TCPIP\Demo App\MainDemo.c
            InitAppConfig   0x00fabc    program     static F:\PIC-web\c18\PIC-WEB-5-42-UEXT-full\TCPIP\Demo App\MainDemo.c
            SaveAppConfig   0x00fc20    program     extern F:\PIC-web\c18\PIC-WEB-5-42-UEXT-full\TCPIP\Demo App\MainDemo.c
                   __pa_0   0x00fc88    program     static F:\PIC-web\c18\PIC-WEB-5-42-UEXT-full\TCPIP\Demo App\MainDemo.c
                   __pa_1   0x00fcc4    program     static F:\PIC-web\c18\PIC-WEB-5-42-UEXT-full\TCPIP\Demo App\MainDemo.c
                   __pa_2   0x00fcfc    program     static F:\PIC-web\c18\PIC-WEB-5-42-UEXT-full\TCPIP\Demo App\MainDemo.c
                   __pa_3   0x00fd12    program     static F:\PIC-web\c18\PIC-WEB-5-42-UEXT-full\TCPIP\Demo App\MainDemo.c
                 FLO1632U   0x00fd22    program     extern E:\3.46\pic18-lt\cxx-framework\src\traditional\math\cast16FP.asm
                 FLO1632S   0x00fd26    program     extern E:\3.46\pic18-lt\cxx-framework\src\traditional\math\cast16FP.asm
                jI2F16Beg   0x00fd36    program     static E:\3.46\pic18-lt\cxx-framework\src\traditional\math\cast16FP.asm
                    FPD32   0x00fd4c    program     extern E:\3.46\pic18-lt\cxx-framework\src\traditional\math\divFP.asm
                 jANotInf   0x00fd6a    program     static E:\3.46\pic18-lt\cxx-framework\src\traditional\math\divFP.asm
              jSignedZero   0x00fd74    program     static E:\3.46\pic18-lt\cxx-framework\src\traditional\math\divFP.asm
                jANotZero   0x00fd7e    program     static E:\3.46\pic18-lt\cxx-framework\src\traditional\math\divFP.asm
                    jLoop   0x00fda6    program     static E:\3.46\pic18-lt\cxx-framework\src\traditional\math\divFP.asm
                jNoAdjust   0x00fdca    program     static E:\3.46\pic18-lt\cxx-framework\src\traditional\math\divFP.asm
                    jNext   0x00fdcc    program     static E:\3.46\pic18-lt\cxx-framework\src\traditional\math\divFP.asm
                    FPS32   0x00fdf2    program     extern E:\3.46\pic18-lt\cxx-framework\src\traditional\math\addFP.asm
                    FPA32   0x00fdf4    program     extern E:\3.46\pic18-lt\cxx-framework\src\traditional\math\addFP.asm
                jBANotInf   0x00fe12    program     static E:\3.46\pic18-lt\cxx-framework\src\traditional\math\addFP.asm
                 jANotInf   0x00fe1c    program     static E:\3.46\pic18-lt\cxx-framework\src\traditional\math\addFP.asm
                 jBNotInf   0x00fe2a    program     static E:\3.46\pic18-lt\cxx-framework\src\traditional\math\addFP.asm
            jDifOrPosSign   0x00fe3e    program     static E:\3.46\pic18-lt\cxx-framework\src\traditional\math\addFP.asm
             jNotBothZero   0x00fe42    program     static E:\3.46\pic18-lt\cxx-framework\src\traditional\math\addFP.asm
                 jAltBexp   0x00fe6e    program     static E:\3.46\pic18-lt\cxx-framework\src\traditional\math\addFP.asm
              jAandWsetup   0x00fe80    program     static E:\3.46\pic18-lt\cxx-framework\src\traditional\math\addFP.asm
                 jANotNeg   0x00feb0    program     static E:\3.46\pic18-lt\cxx-framework\src\traditional\math\addFP.asm
                 jWNotNeg   0x00fec4    program     static E:\3.46\pic18-lt\cxx-framework\src\traditional\math\addFP.asm
               jShiftLoop   0x00feca    program     static E:\3.46\pic18-lt\cxx-framework\src\traditional\math\addFP.asm
               jShiftDone   0x00fed8    program     static E:\3.46\pic18-lt\cxx-framework\src\traditional\math\addFP.asm
                jSignDone   0x00ff08    program     static E:\3.46\pic18-lt\cxx-framework\src\traditional\math\addFP.asm
               jFinalSign   0x00ff18    program     static E:\3.46\pic18-lt\cxx-framework\src\traditional\math\addFP.asm
                 FXM1616U   0x00ff20    program     extern E:\3.46\pic18-lt\cxx-framework\src\traditional\math\fxm1616u.asm
                 FXM2424U   0x00ff5c    program     extern E:\3.46\pic18-lt\cxx-framework\src\traditional\math\fxm2424u.asm
                  INT3216   0x00ffee    program     extern E:\3.46\pic18-lt\cxx-framework\src\traditional\math\castFP16.asm
                     jMax   0x00fffe    program     static E:\3.46\pic18-lt\cxx-framework\src\traditional\math\castFP16.asm
                  jMaxPos   0x010002    program     static E:\3.46\pic18-lt\cxx-framework\src\traditional\math\castFP16.asm
                  jMaxNeg   0x01000c    program     static E:\3.46\pic18-lt\cxx-framework\src\traditional\math\castFP16.asm
                    jZero   0x010014    program     static E:\3.46\pic18-lt\cxx-framework\src\traditional\math\castFP16.asm
                  jNotInf   0x01001a    program     static E:\3.46\pic18-lt\cxx-framework\src\traditional\math\castFP16.asm
                    jLoop   0x01002a    program     static E:\3.46\pic18-lt\cxx-framework\src\traditional\math\castFP16.asm
                jLoopExit   0x01003a    program     static E:\3.46\pic18-lt\cxx-framework\src\traditional\math\castFP16.asm
                    jExit   0x01004a    program     static E:\3.46\pic18-lt\cxx-framework\src\traditional\math\castFP16.asm
            __FpReturnNaN   0x01004c    program     extern E:\3.46\pic18-lt\cxx-framework\src\traditional\math\packFP.asm
                 __FpExit   0x010058    program     extern E:\3.46\pic18-lt\cxx-framework\src\traditional\math\packFP.asm
        __FpReturnSignInf   0x01005a    program     extern E:\3.46\pic18-lt\cxx-framework\src\traditional\math\packFP.asm
         __FpReturnNegInf   0x01005e    program     extern E:\3.46\pic18-lt\cxx-framework\src\traditional\math\packFP.asm
         __FpReturnPosInf   0x010064    program     extern E:\3.46\pic18-lt\cxx-framework\src\traditional\math\packFP.asm
           jReturnPosInf0   0x010068    program     static E:\3.46\pic18-lt\cxx-framework\src\traditional\math\packFP.asm
               jZero1and2   0x01006c    program     static E:\3.46\pic18-lt\cxx-framework\src\traditional\math\packFP.asm
       __FpReturnSignZero   0x010072    program     extern E:\3.46\pic18-lt\cxx-framework\src\traditional\math\packFP.asm
        __FpReturnNegZero   0x010076    program     extern E:\3.46\pic18-lt\cxx-framework\src\traditional\math\packFP.asm
        __FpReturnPosZero   0x01007e    program     extern E:\3.46\pic18-lt\cxx-framework\src\traditional\math\packFP.asm
                 __FpPack   0x010084    program     extern E:\3.46\pic18-lt\cxx-framework\src\traditional\math\packFP.asm
                  jPkLoop   0x010092    program     static E:\3.46\pic18-lt\cxx-framework\src\traditional\math\packFP.asm
             jPkShiftDone   0x0100ae    program     static E:\3.46\pic18-lt\cxx-framework\src\traditional\math\packFP.asm
               jPkRoundIt   0x0100c4    program     static E:\3.46\pic18-lt\cxx-framework\src\traditional\math\packFP.asm
             jPkRoundDone   0x0100dc    program     static E:\3.46\pic18-lt\cxx-framework\src\traditional\math\packFP.asm
              __FpReturnW   0x0100dc    program     extern E:\3.46\pic18-lt\cxx-framework\src\traditional\math\packFP.asm
              __FpUnPackA   0x0100fc    program     extern E:\3.46\pic18-lt\cxx-framework\src\traditional\math\UnpackFP.asm
                  jUnpkA1   0x010106    program     static E:\3.46\pic18-lt\cxx-framework\src\traditional\math\UnpackFP.asm
                 jUnpkANZ   0x010114    program     static E:\3.46\pic18-lt\cxx-framework\src\traditional\math\UnpackFP.asm
                  jUnpkA2   0x01011e    program     static E:\3.46\pic18-lt\cxx-framework\src\traditional\math\UnpackFP.asm
                 jUnpkNaN   0x010128    program     static E:\3.46\pic18-lt\cxx-framework\src\traditional\math\UnpackFP.asm
              __FpUnPackB   0x01012c    program     extern E:\3.46\pic18-lt\cxx-framework\src\traditional\math\UnpackFP.asm
                  jUnpkB1   0x010136    program     static E:\3.46\pic18-lt\cxx-framework\src\traditional\math\UnpackFP.asm
                 jUnpkBNZ   0x010144    program     static E:\3.46\pic18-lt\cxx-framework\src\traditional\math\UnpackFP.asm
                  jUnpkB2   0x01014e    program     static E:\3.46\pic18-lt\cxx-framework\src\traditional\math\UnpackFP.asm
                    FPM32   0x010158    program     extern E:\3.46\pic18-lt\cxx-framework\src\traditional\math\mulFP.asm
                 jANotInf   0x010176    program     static E:\3.46\pic18-lt\cxx-framework\src\traditional\math\mulFP.asm
              jBothFinite   0x010184    program     static E:\3.46\pic18-lt\cxx-framework\src\traditional\math\mulFP.asm
                jHaveZero   0x01018c    program     static E:\3.46\pic18-lt\cxx-framework\src\traditional\math\mulFP.asm
             jBothNotZero   0x010190    program     static E:\3.46\pic18-lt\cxx-framework\src\traditional\math\mulFP.asm
                  TAGTB32   0x010232    program     extern E:\3.46\pic18-lt\cxx-framework\src\traditional\math\gtFP.asm
              __FpCompare   0x010244    program     extern E:\3.46\pic18-lt\cxx-framework\src\traditional\math\compFP.asm
             jBothNotZero   0x010262    program     static E:\3.46\pic18-lt\cxx-framework\src\traditional\math\compFP.asm
                 jSignsEQ   0x010266    program     static E:\3.46\pic18-lt\cxx-framework\src\traditional\math\compFP.asm
                      jEQ   0x01027e    program     static E:\3.46\pic18-lt\cxx-framework\src\traditional\math\compFP.asm
                      jNE   0x010282    program     static E:\3.46\pic18-lt\cxx-framework\src\traditional\math\compFP.asm
                    jExch   0x01028a    program     static E:\3.46\pic18-lt\cxx-framework\src\traditional\math\compFP.asm
                  jNoExch   0x0102aa    program     static E:\3.46\pic18-lt\cxx-framework\src\traditional\math\compFP.asm
                   jFinal   0x0102b4    program     static E:\3.46\pic18-lt\cxx-framework\src\traditional\math\compFP.asm
                  jAisNeg   0x0102c0    program     static E:\3.46\pic18-lt\cxx-framework\src\traditional\math\compFP.asm
                   jShift   0x0102c6    program     static E:\3.46\pic18-lt\cxx-framework\src\traditional\math\compFP.asm
                   jExpEQ   0x0102d0    program     static E:\3.46\pic18-lt\cxx-framework\src\traditional\math\compFP.asm
                  jRotate   0x0102dc    program     static E:\3.46\pic18-lt\cxx-framework\src\traditional\math\compFP.asm
               TelnetTask   0x0102ee    program     extern F:\PIC-web\c18\PIC-WEB-5-42-UEXT-full\Microchip\TCPIP Stack\Telnet.c
                   __pa_0   0x0106e2    program     static F:\PIC-web\c18\PIC-WEB-5-42-UEXT-full\Microchip\TCPIP Stack\Telnet.c
                   __pa_1   0x0106ec    program     static F:\PIC-web\c18\PIC-WEB-5-42-UEXT-full\Microchip\TCPIP Stack\Telnet.c
                   __pa_2   0x0106fc    program     static F:\PIC-web\c18\PIC-WEB-5-42-UEXT-full\Microchip\TCPIP Stack\Telnet.c
                   __pa_3   0x01070e    program     static F:\PIC-web\c18\PIC-WEB-5-42-UEXT-full\Microchip\TCPIP Stack\Telnet.c
                   __pa_4   0x010718    program     static F:\PIC-web\c18\PIC-WEB-5-42-UEXT-full\Microchip\TCPIP Stack\Telnet.c
                   __pa_5   0x010744    program     static F:\PIC-web\c18\PIC-WEB-5-42-UEXT-full\Microchip\TCPIP Stack\Telnet.c
                   __pa_6   0x010768    program     static F:\PIC-web\c18\PIC-WEB-5-42-UEXT-full\Microchip\TCPIP Stack\Telnet.c
                   __pa_7   0x01078a    program     static F:\PIC-web\c18\PIC-WEB-5-42-UEXT-full\Microchip\TCPIP Stack\Telnet.c
                   __pa_8   0x0107ac    program     static F:\PIC-web\c18\PIC-WEB-5-42-UEXT-full\Microchip\TCPIP Stack\Telnet.c
                   __pa_9   0x0107b8    program     static F:\PIC-web\c18\PIC-WEB-5-42-UEXT-full\Microchip\TCPIP Stack\Telnet.c
                  __pa_10   0x0107ce    program     static F:\PIC-web\c18\PIC-WEB-5-42-UEXT-full\Microchip\TCPIP Stack\Telnet.c
                  __pa_11   0x0107dc    program     static F:\PIC-web\c18\PIC-WEB-5-42-UEXT-full\Microchip\TCPIP Stack\Telnet.c
                  __pa_12   0x0107ea    program     static F:\PIC-web\c18\PIC-WEB-5-42-UEXT-full\Microchip\TCPIP Stack\Telnet.c
                  __pa_13   0x0107f2    program     static F:\PIC-web\c18\PIC-WEB-5-42-UEXT-full\Microchip\TCPIP Stack\Telnet.c
                  __pa_14   0x010800    program     static F:\PIC-web\c18\PIC-WEB-5-42-UEXT-full\Microchip\TCPIP Stack\Telnet.c
                  __pa_15   0x01080e    program     static F:\PIC-web\c18\PIC-WEB-5-42-UEXT-full\Microchip\TCPIP Stack\Telnet.c
                  __pa_16   0x010816    program     static F:\PIC-web\c18\PIC-WEB-5-42-UEXT-full\Microchip\TCPIP Stack\Telnet.c
                  __pa_17   0x010836    program     static F:\PIC-web\c18\PIC-WEB-5-42-UEXT-full\Microchip\TCPIP Stack\Telnet.c
                  __pa_18   0x01083e    program     static F:\PIC-web\c18\PIC-WEB-5-42-UEXT-full\Microchip\TCPIP Stack\Telnet.c
                  __pa_19   0x010850    program     static F:\PIC-web\c18\PIC-WEB-5-42-UEXT-full\Microchip\TCPIP Stack\Telnet.c
                  __pa_20   0x01085a    program     static F:\PIC-web\c18\PIC-WEB-5-42-UEXT-full\Microchip\TCPIP Stack\Telnet.c
                  __pa_21   0x010868    program     static F:\PIC-web\c18\PIC-WEB-5-42-UEXT-full\Microchip\TCPIP Stack\Telnet.c
                  __pa_22   0x01086e    program     static F:\PIC-web\c18\PIC-WEB-5-42-UEXT-full\Microchip\TCPIP Stack\Telnet.c
       TCPPerformanceTask   0x010876    program     extern F:\PIC-web\c18\PIC-WEB-5-42-UEXT-full\Microchip\TCPIP Stack\TCPPerformanceTest.c
     TCPTXPerformanceTask   0x01087c    program     extern F:\PIC-web\c18\PIC-WEB-5-42-UEXT-full\Microchip\TCPIP Stack\TCPPerformanceTest.c
     TCPRXPerformanceTask   0x010b48    program     extern F:\PIC-web\c18\PIC-WEB-5-42-UEXT-full\Microchip\TCPIP Stack\TCPPerformanceTest.c
                   __pa_0   0x010d1c    program     static F:\PIC-web\c18\PIC-WEB-5-42-UEXT-full\Microchip\TCPIP Stack\TCPPerformanceTest.c
                   __pa_1   0x010d42    program     static F:\PIC-web\c18\PIC-WEB-5-42-UEXT-full\Microchip\TCPIP Stack\TCPPerformanceTest.c
                   __pa_2   0x010d5a    program     static F:\PIC-web\c18\PIC-WEB-5-42-UEXT-full\Microchip\TCPIP Stack\TCPPerformanceTest.c
                   __pa_3   0x010d70    program     static F:\PIC-web\c18\PIC-WEB-5-42-UEXT-full\Microchip\TCPIP Stack\TCPPerformanceTest.c
                      log   0x010d7e    program     extern E:\3.46\pic18-lt\cxx-framework\src\traditional\stdclib\log.c
                   __pa_0   0x011144    program     static E:\3.46\pic18-lt\cxx-framework\src\traditional\stdclib\log.c
                   __pa_1   0x011150    program     static E:\3.46\pic18-lt\cxx-framework\src\traditional\stdclib\log.c
                   __pa_2   0x011162    program     static E:\3.46\pic18-lt\cxx-framework\src\traditional\stdclib\log.c
                   __pa_3   0x01117e    program     static E:\3.46\pic18-lt\cxx-framework\src\traditional\stdclib\log.c
                   __pa_4   0x011184    program     static E:\3.46\pic18-lt\cxx-framework\src\traditional\stdclib\log.c
                   __pa_5   0x01118e    program     static E:\3.46\pic18-lt\cxx-framework\src\traditional\stdclib\log.c
                   __pa_6   0x0111ac    program     static E:\3.46\pic18-lt\cxx-framework\src\traditional\stdclib\log.c
                   __pa_7   0x0111c6    program     static E:\3.46\pic18-lt\cxx-framework\src\traditional\stdclib\log.c
                   __pa_8   0x0111e0    program     static E:\3.46\pic18-lt\cxx-framework\src\traditional\stdclib\log.c
                   __pa_9   0x0111f6    program     static E:\3.46\pic18-lt\cxx-framework\src\traditional\stdclib\log.c
                  __pa_10   0x011206    program     static E:\3.46\pic18-lt\cxx-framework\src\traditional\stdclib\log.c
                  __pa_11   0x01120e    program     static E:\3.46\pic18-lt\cxx-framework\src\traditional\stdclib\log.c
                  __pa_12   0x011220    program     static E:\3.46\pic18-lt\cxx-framework\src\traditional\stdclib\log.c
                  __pa_13   0x01123a    program     static E:\3.46\pic18-lt\cxx-framework\src\traditional\stdclib\log.c
                  __pa_14   0x01124c    program     static E:\3.46\pic18-lt\cxx-framework\src\traditional\stdclib\log.c
                  __pa_15   0x01125e    program     static E:\3.46\pic18-lt\cxx-framework\src\traditional\stdclib\log.c
                  __pa_16   0x01126a    program     static E:\3.46\pic18-lt\cxx-framework\src\traditional\stdclib\log.c
                     atoi   0x011278    program     extern E:\3.46\pic18-lt\cxx-framework\src\traditional\stdclib\atoi.asm
                  jSkipWS   0x0112a6    program     static E:\3.46\pic18-lt\cxx-framework\src\traditional\stdclib\atoi.asm
                 jSkipWS1   0x0112b8    program     static E:\3.46\pic18-lt\cxx-framework\src\traditional\stdclib\atoi.asm
                 jTstSign   0x0112bc    program     static E:\3.46\pic18-lt\cxx-framework\src\traditional\stdclib\atoi.asm
                jTstSign1   0x0112c8    program     static E:\3.46\pic18-lt\cxx-framework\src\traditional\stdclib\atoi.asm
                jTstSign2   0x0112ce    program     static E:\3.46\pic18-lt\cxx-framework\src\traditional\stdclib\atoi.asm
                jTstSign3   0x0112d0    program     static E:\3.46\pic18-lt\cxx-framework\src\traditional\stdclib\atoi.asm
                    jLoop   0x0112d0    program     static E:\3.46\pic18-lt\cxx-framework\src\traditional\stdclib\atoi.asm
                 jEndLoop   0x01131e    program     static E:\3.46\pic18-lt\cxx-framework\src\traditional\stdclib\atoi.asm
                     jEnd   0x011336    program     static E:\3.46\pic18-lt\cxx-framework\src\traditional\stdclib\atoi.asm
                     atol   0x011362    program     extern E:\3.46\pic18-lt\cxx-framework\src\traditional\stdclib\atol.asm
                  jSkipWS   0x011398    program     static E:\3.46\pic18-lt\cxx-framework\src\traditional\stdclib\atol.asm
                 jSkipWS1   0x0113aa    program     static E:\3.46\pic18-lt\cxx-framework\src\traditional\stdclib\atol.asm
                 jTstSign   0x0113ae    program     static E:\3.46\pic18-lt\cxx-framework\src\traditional\stdclib\atol.asm
                jTstSign1   0x0113ba    program     static E:\3.46\pic18-lt\cxx-framework\src\traditional\stdclib\atol.asm
                jTstSign2   0x0113c0    program     static E:\3.46\pic18-lt\cxx-framework\src\traditional\stdclib\atol.asm
                jTstSign3   0x0113c2    program     static E:\3.46\pic18-lt\cxx-framework\src\traditional\stdclib\atol.asm
                    jLoop   0x0113c2    program     static E:\3.46\pic18-lt\cxx-framework\src\traditional\stdclib\atol.asm
                 jEndLoop   0x011450    program     static E:\3.46\pic18-lt\cxx-framework\src\traditional\stdclib\atol.asm
                     jEnd   0x011480    program     static E:\3.46\pic18-lt\cxx-framework\src\traditional\stdclib\atol.asm
                  _14jEnd   0x011480    program     static E:\3.46\pic18-lt\cxx-framework\src\traditional\stdclib\atol.asm
                     itoa   0x0114b8    program     extern E:\3.46\pic18-lt\cxx-framework\src\traditional\stdclib\itoa.asm
                jTstSign1   0x0114e4    program     static E:\3.46\pic18-lt\cxx-framework\src\traditional\stdclib\itoa.asm
                     jDo5   0x01152e    program     static E:\3.46\pic18-lt\cxx-framework\src\traditional\stdclib\itoa.asm
                     jDo4   0x011532    program     static E:\3.46\pic18-lt\cxx-framework\src\traditional\stdclib\itoa.asm
                     jDo3   0x011536    program     static E:\3.46\pic18-lt\cxx-framework\src\traditional\stdclib\itoa.asm
                     jDo2   0x01153a    program     static E:\3.46\pic18-lt\cxx-framework\src\traditional\stdclib\itoa.asm
                     jDo1   0x01153e    program     static E:\3.46\pic18-lt\cxx-framework\src\traditional\stdclib\itoa.asm
                 TstUpper   0x011572    program     static E:\3.46\pic18-lt\cxx-framework\src\traditional\stdclib\itoa.asm
                 TstLower   0x011578    program     static E:\3.46\pic18-lt\cxx-framework\src\traditional\stdclib\itoa.asm
                jTstLowZ1   0x011582    program     static E:\3.46\pic18-lt\cxx-framework\src\traditional\stdclib\itoa.asm
                ProcUpper   0x011584    program     static E:\3.46\pic18-lt\cxx-framework\src\traditional\stdclib\itoa.asm
                ProcLower   0x01158e    program     static E:\3.46\pic18-lt\cxx-framework\src\traditional\stdclib\itoa.asm
                   itoBCD   0x011598    program     extern E:\3.46\pic18-lt\cxx-framework\src\traditional\stdclib\itobcd.asm
                    jLoop   0x0115b0    program     static E:\3.46\pic18-lt\cxx-framework\src\traditional\stdclib\itobcd.asm
                     jEnd   0x0115d6    program     static E:\3.46\pic18-lt\cxx-framework\src\traditional\stdclib\itobcd.asm
                  OneByte   0x0115da    program     static E:\3.46\pic18-lt\cxx-framework\src\traditional\stdclib\itobcd.asm
                    ultoa   0x0115ec    program     extern E:\3.46\pic18-lt\cxx-framework\src\traditional\stdclib\ultoa.asm
                    jDo10   0x011678    program     static E:\3.46\pic18-lt\cxx-framework\src\traditional\stdclib\ultoa.asm
                     jDo9   0x01167c    program     static E:\3.46\pic18-lt\cxx-framework\src\traditional\stdclib\ultoa.asm
                     jDo8   0x011680    program     static E:\3.46\pic18-lt\cxx-framework\src\traditional\stdclib\ultoa.asm
                     jDo7   0x011684    program     static E:\3.46\pic18-lt\cxx-framework\src\traditional\stdclib\ultoa.asm
                     jDo6   0x011688    program     static E:\3.46\pic18-lt\cxx-framework\src\traditional\stdclib\ultoa.asm
                     jDo5   0x01168c    program     static E:\3.46\pic18-lt\cxx-framework\src\traditional\stdclib\ultoa.asm
                     jDo4   0x011690    program     static E:\3.46\pic18-lt\cxx-framework\src\traditional\stdclib\ultoa.asm
                     jDo3   0x011694    program     static E:\3.46\pic18-lt\cxx-framework\src\traditional\stdclib\ultoa.asm
                     jDo2   0x011698    program     static E:\3.46\pic18-lt\cxx-framework\src\traditional\stdclib\ultoa.asm
                     jDo1   0x01169c    program     static E:\3.46\pic18-lt\cxx-framework\src\traditional\stdclib\ultoa.asm
                 TstUpper   0x0116d0    program     static E:\3.46\pic18-lt\cxx-framework\src\traditional\stdclib\ultoa.asm
                 TstLower   0x0116d6    program     static E:\3.46\pic18-lt\cxx-framework\src\traditional\stdclib\ultoa.asm
                jTstLowZ1   0x0116e0    program     static E:\3.46\pic18-lt\cxx-framework\src\traditional\stdclib\ultoa.asm
                ProcUpper   0x0116e2    program     static E:\3.46\pic18-lt\cxx-framework\src\traditional\stdclib\ultoa.asm
                ProcLower   0x0116ec    program     static E:\3.46\pic18-lt\cxx-framework\src\traditional\stdclib\ultoa.asm
                   ltoBCD   0x0116f6    program     extern E:\3.46\pic18-lt\cxx-framework\src\traditional\stdclib\ltobcd.asm
                    jLoop   0x011712    program     static E:\3.46\pic18-lt\cxx-framework\src\traditional\stdclib\ltobcd.asm
                     jEnd   0x011750    program     static E:\3.46\pic18-lt\cxx-framework\src\traditional\stdclib\ltobcd.asm
                  OneByte   0x011754    program     static E:\3.46\pic18-lt\cxx-framework\src\traditional\stdclib\ltobcd.asm
             DoUARTConfig   0x011766    program     extern F:\PIC-web\c18\PIC-WEB-5-42-UEXT-full\TCPIP\Demo App\UARTConfig.c
             DownloadMPFS   0x011a58    program     static F:\PIC-web\c18\PIC-WEB-5-42-UEXT-full\TCPIP\Demo App\UARTConfig.c
                   __pa_0   0x011bba    program     static F:\PIC-web\c18\PIC-WEB-5-42-UEXT-full\TCPIP\Demo App\UARTConfig.c
                   __pa_1   0x011bc0    program     static F:\PIC-web\c18\PIC-WEB-5-42-UEXT-full\TCPIP\Demo App\UARTConfig.c
                   __pa_2   0x011bd0    program     static F:\PIC-web\c18\PIC-WEB-5-42-UEXT-full\TCPIP\Demo App\UARTConfig.c
                   __pa_3   0x011be6    program     static F:\PIC-web\c18\PIC-WEB-5-42-UEXT-full\TCPIP\Demo App\UARTConfig.c
                   __pa_4   0x011bee    program     static F:\PIC-web\c18\PIC-WEB-5-42-UEXT-full\TCPIP\Demo App\UARTConfig.c
                   __pa_5   0x011c00    program     static F:\PIC-web\c18\PIC-WEB-5-42-UEXT-full\TCPIP\Demo App\UARTConfig.c
               ARPSendPkt   0x011c06    program     extern F:\PIC-web\c18\PIC-WEB-5-42-UEXT-full\Microchip\TCPIP Stack\ARP.c
                   ARPPut   0x011c4a    program     static F:\PIC-web\c18\PIC-WEB-5-42-UEXT-full\Microchip\TCPIP Stack\ARP.c
                  ARPInit   0x011d10    program     extern F:\PIC-web\c18\PIC-WEB-5-42-UEXT-full\Microchip\TCPIP Stack\ARP.c
               ARPProcess   0x011d28    program     extern F:\PIC-web\c18\PIC-WEB-5-42-UEXT-full\Microchip\TCPIP Stack\ARP.c
               ARPResolve   0x011ed6    program     extern F:\PIC-web\c18\PIC-WEB-5-42-UEXT-full\Microchip\TCPIP Stack\ARP.c
            ARPIsResolved   0x011f30    program     extern F:\PIC-web\c18\PIC-WEB-5-42-UEXT-full\Microchip\TCPIP Stack\ARP.c
            SwapARPPacket   0x011fa6    program     extern F:\PIC-web\c18\PIC-WEB-5-42-UEXT-full\Microchip\TCPIP Stack\ARP.c
                   __pa_0   0x011fdc    program     static F:\PIC-web\c18\PIC-WEB-5-42-UEXT-full\Microchip\TCPIP Stack\ARP.c
                   __pa_1   0x011ff4    program     static F:\PIC-web\c18\PIC-WEB-5-42-UEXT-full\Microchip\TCPIP Stack\ARP.c
                   __pa_2   0x012026    program     static F:\PIC-web\c18\PIC-WEB-5-42-UEXT-full\Microchip\TCPIP Stack\ARP.c
                   __pa_3   0x012030    program     static F:\PIC-web\c18\PIC-WEB-5-42-UEXT-full\Microchip\TCPIP Stack\ARP.c
                   __pa_4   0x012038    program     static F:\PIC-web\c18\PIC-WEB-5-42-UEXT-full\Microchip\TCPIP Stack\ARP.c
                   memcmp   0x012042    program     extern E:\3.46\pic18-lt\cxx-framework\src\traditional\stdclib\memcmp.asm
                    jLoop   0x012062    program     static E:\3.46\pic18-lt\cxx-framework\src\traditional\stdclib\memcmp.asm
              _4jContinue   0x01206e    program     static E:\3.46\pic18-lt\cxx-framework\src\traditional\stdclib\memcmp.asm
                   _5jEnd   0x012078    program     static E:\3.46\pic18-lt\cxx-framework\src\traditional\stdclib\memcmp.asm
                     jEnd   0x01207e    program     static E:\3.46\pic18-lt\cxx-framework\src\traditional\stdclib\memcmp.asm
            memcmppgm2ram   0x012094    program     extern E:\3.46\pic18-lt\cxx-framework\src\traditional\stdclib\mcmpp2r.asm
                    jLoop   0x0120b2    program     static E:\3.46\pic18-lt\cxx-framework\src\traditional\stdclib\mcmpp2r.asm
              _3jContinue   0x0120be    program     static E:\3.46\pic18-lt\cxx-framework\src\traditional\stdclib\mcmpp2r.asm
                   _4jEnd   0x0120c8    program     static E:\3.46\pic18-lt\cxx-framework\src\traditional\stdclib\mcmpp2r.asm
                     jEnd   0x0120d0    program     static E:\3.46\pic18-lt\cxx-framework\src\traditional\stdclib\mcmpp2r.asm
                   memcpy   0x0120d2    program     extern E:\3.46\pic18-lt\cxx-framework\src\traditional\stdclib\memcpy.asm
                    jLoop   0x0120fa    program     static E:\3.46\pic18-lt\cxx-framework\src\traditional\stdclib\memcpy.asm
              _4jContinue   0x012106    program     static E:\3.46\pic18-lt\cxx-framework\src\traditional\stdclib\memcpy.asm
                   _5jEnd   0x012110    program     static E:\3.46\pic18-lt\cxx-framework\src\traditional\stdclib\memcpy.asm
                     jEnd   0x012116    program     static E:\3.46\pic18-lt\cxx-framework\src\traditional\stdclib\memcpy.asm
            memcpypgm2ram   0x012128    program     extern E:\3.46\pic18-lt\cxx-framework\src\traditional\stdclib\mcpyp2r.asm
                    jLoop   0x01214e    program     static E:\3.46\pic18-lt\cxx-framework\src\traditional\stdclib\mcpyp2r.asm
              _3jContinue   0x01215a    program     static E:\3.46\pic18-lt\cxx-framework\src\traditional\stdclib\mcpyp2r.asm
                   _4jEnd   0x012164    program     static E:\3.46\pic18-lt\cxx-framework\src\traditional\stdclib\mcpyp2r.asm
                     jEnd   0x01216c    program     static E:\3.46\pic18-lt\cxx-framework\src\traditional\stdclib\mcpyp2r.asm
                   memset   0x01216e    program     extern E:\3.46\pic18-lt\cxx-framework\src\traditional\stdclib\memset.asm
                    jLoop   0x012182    program     static E:\3.46\pic18-lt\cxx-framework\src\traditional\stdclib\memset.asm
              _2jContinue   0x01218e    program     static E:\3.46\pic18-lt\cxx-framework\src\traditional\stdclib\memset.asm
                   _3jEnd   0x012198    program     static E:\3.46\pic18-lt\cxx-framework\src\traditional\stdclib\memset.asm
                     jEnd   0x0121a0    program     static E:\3.46\pic18-lt\cxx-framework\src\traditional\stdclib\memset.asm
                   strchr   0x0121a2    program     extern E:\3.46\pic18-lt\cxx-framework\src\traditional\stdclib\strchr.asm
                    jLoop   0x0121ae    program     static E:\3.46\pic18-lt\cxx-framework\src\traditional\stdclib\strchr.asm
                   jMatch   0x0121c0    program     static E:\3.46\pic18-lt\cxx-framework\src\traditional\stdclib\strchr.asm
                     jEnd   0x0121c8    program     static E:\3.46\pic18-lt\cxx-framework\src\traditional\stdclib\strchr.asm
                strchrpgm   0x0121ca    program     extern E:\3.46\pic18-lt\cxx-framework\src\traditional\stdclib\schrpgm.asm
                    jLoop   0x0121dc    program     static E:\3.46\pic18-lt\cxx-framework\src\traditional\stdclib\schrpgm.asm
                   jMatch   0x0121fa    program     static E:\3.46\pic18-lt\cxx-framework\src\traditional\stdclib\schrpgm.asm
                     jEnd   0x01220c    program     static E:\3.46\pic18-lt\cxx-framework\src\traditional\stdclib\schrpgm.asm
                   strcmp   0x012220    program     extern E:\3.46\pic18-lt\cxx-framework\src\traditional\stdclib\strcmp.asm
                    jLoop   0x012240    program     static E:\3.46\pic18-lt\cxx-framework\src\traditional\stdclib\strcmp.asm
                     jEnd   0x01224a    program     static E:\3.46\pic18-lt\cxx-framework\src\traditional\stdclib\strcmp.asm
            strcmppgm2ram   0x012260    program     extern E:\3.46\pic18-lt\cxx-framework\src\traditional\stdclib\scmpp2r.asm
                    jLoop   0x01227e    program     static E:\3.46\pic18-lt\cxx-framework\src\traditional\stdclib\scmpp2r.asm
                     jEnd   0x01228a    program     static E:\3.46\pic18-lt\cxx-framework\src\traditional\stdclib\scmpp2r.asm
            strcpypgm2ram   0x01228c    program     extern E:\3.46\pic18-lt\cxx-framework\src\traditional\stdclib\scpyp2r.asm
                    jLoop   0x0122b2    program     static E:\3.46\pic18-lt\cxx-framework\src\traditional\stdclib\scpyp2r.asm
                     jEnd   0x0122bc    program     static E:\3.46\pic18-lt\cxx-framework\src\traditional\stdclib\scpyp2r.asm
                   strlen   0x0122be    program     extern E:\3.46\pic18-lt\cxx-framework\src\traditional\stdclib\strlen.asm
                    jLoop   0x0122ce    program     static E:\3.46\pic18-lt\cxx-framework\src\traditional\stdclib\strlen.asm
                     jEnd   0x0122d8    program     static E:\3.46\pic18-lt\cxx-framework\src\traditional\stdclib\strlen.asm
                strlenpgm   0x0122da    program     extern E:\3.46\pic18-lt\cxx-framework\src\traditional\stdclib\slenpgm.asm
                    jLoop   0x0122f8    program     static E:\3.46\pic18-lt\cxx-framework\src\traditional\stdclib\slenpgm.asm
                   _2jEnd   0x01230e    program     static E:\3.46\pic18-lt\cxx-framework\src\traditional\stdclib\slenpgm.asm
                     jEnd   0x012310    program     static E:\3.46\pic18-lt\cxx-framework\src\traditional\stdclib\slenpgm.asm
                  strncpy   0x012324    program     extern E:\3.46\pic18-lt\cxx-framework\src\traditional\stdclib\strncpy.asm
                    jLoop   0x01234c    program     static E:\3.46\pic18-lt\cxx-framework\src\traditional\stdclib\strncpy.asm
              _4jContinue   0x012358    program     static E:\3.46\pic18-lt\cxx-framework\src\traditional\stdclib\strncpy.asm
                   _5jEnd   0x012362    program     static E:\3.46\pic18-lt\cxx-framework\src\traditional\stdclib\strncpy.asm
                     jEnd   0x01236e    program     static E:\3.46\pic18-lt\cxx-framework\src\traditional\stdclib\strncpy.asm
             strstrrampgm   0x012380    program     extern E:\3.46\pic18-lt\cxx-framework\src\traditional\stdclib\sstrrp.asm
               jOuterLoop   0x01238c    program     static E:\3.46\pic18-lt\cxx-framework\src\traditional\stdclib\sstrrp.asm
               jInnerLoop   0x0123a6    program     static E:\3.46\pic18-lt\cxx-framework\src\traditional\stdclib\sstrrp.asm
                 jNoMatch   0x0123b6    program     static E:\3.46\pic18-lt\cxx-framework\src\traditional\stdclib\sstrrp.asm
                    jNull   0x0123c0    program     static E:\3.46\pic18-lt\cxx-framework\src\traditional\stdclib\sstrrp.asm
                jStrMatch   0x0123c4    program     static E:\3.46\pic18-lt\cxx-framework\src\traditional\stdclib\sstrrp.asm
                   strupr   0x0123c6    program     extern E:\3.46\pic18-lt\cxx-framework\src\traditional\stdclib\strupr.asm
                    jLoop   0x0123da    program     static E:\3.46\pic18-lt\cxx-framework\src\traditional\stdclib\strupr.asm
                    jSkip   0x0123ea    program     static E:\3.46\pic18-lt\cxx-framework\src\traditional\stdclib\strupr.asm
                     jEnd   0x0123ee    program     static E:\3.46\pic18-lt\cxx-framework\src\traditional\stdclib\strupr.asm
     ConvertArrayToString   0x0123f0    program     extern F:\PIC-web\c18\PIC-WEB-5-42-UEXT-full\TCPIP\Demo App\Olimex_Demo_Files\Misc_Functions.c
    Convert_String_to_Int   0x012454    program     extern F:\PIC-web\c18\PIC-WEB-5-42-UEXT-full\TCPIP\Demo App\Olimex_Demo_Files\Misc_Functions.c
                   __pa_0   0x012688    program     static F:\PIC-web\c18\PIC-WEB-5-42-UEXT-full\TCPIP\Demo App\Olimex_Demo_Files\Misc_Functions.c
                   __pa_1   0x0126be    program     static F:\PIC-web\c18\PIC-WEB-5-42-UEXT-full\TCPIP\Demo App\Olimex_Demo_Files\Misc_Functions.c
                   __pa_2   0x0126d6    program     static F:\PIC-web\c18\PIC-WEB-5-42-UEXT-full\TCPIP\Demo App\Olimex_Demo_Files\Misc_Functions.c
                   __pa_3   0x0126e8    program     static F:\PIC-web\c18\PIC-WEB-5-42-UEXT-full\TCPIP\Demo App\Olimex_Demo_Files\Misc_Functions.c
                   __pa_4   0x01270a    program     static F:\PIC-web\c18\PIC-WEB-5-42-UEXT-full\TCPIP\Demo App\Olimex_Demo_Files\Misc_Functions.c
                   __pa_5   0x012728    program     static F:\PIC-web\c18\PIC-WEB-5-42-UEXT-full\TCPIP\Demo App\Olimex_Demo_Files\Misc_Functions.c
                   __pa_6   0x012730    program     static F:\PIC-web\c18\PIC-WEB-5-42-UEXT-full\TCPIP\Demo App\Olimex_Demo_Files\Misc_Functions.c
                   __pa_7   0x012742    program     static F:\PIC-web\c18\PIC-WEB-5-42-UEXT-full\TCPIP\Demo App\Olimex_Demo_Files\Misc_Functions.c
                   __pa_8   0x012752    program     static F:\PIC-web\c18\PIC-WEB-5-42-UEXT-full\TCPIP\Demo App\Olimex_Demo_Files\Misc_Functions.c
                   __pa_9   0x012760    program     static F:\PIC-web\c18\PIC-WEB-5-42-UEXT-full\TCPIP\Demo App\Olimex_Demo_Files\Misc_Functions.c
                  __pa_10   0x01276a    program     static F:\PIC-web\c18\PIC-WEB-5-42-UEXT-full\TCPIP\Demo App\Olimex_Demo_Files\Misc_Functions.c
                  __pa_11   0x012774    program     static F:\PIC-web\c18\PIC-WEB-5-42-UEXT-full\TCPIP\Demo App\Olimex_Demo_Files\Misc_Functions.c
                  __pa_12   0x012780    program     static F:\PIC-web\c18\PIC-WEB-5-42-UEXT-full\TCPIP\Demo App\Olimex_Demo_Files\Misc_Functions.c
    BerkeleyUDPClientDemo   0x01278e    program     extern F:\PIC-web\c18\PIC-WEB-5-42-UEXT-full\TCPIP\Demo App\BerkeleyUDPClientDemo.c
BerkeleySNTPGetUTCSeconds   0x012a28    program     extern F:\PIC-web\c18\PIC-WEB-5-42-UEXT-full\TCPIP\Demo App\BerkeleyUDPClientDemo.c
                   __pa_0   0x012ac6    program     static F:\PIC-web\c18\PIC-WEB-5-42-UEXT-full\TCPIP\Demo App\BerkeleyUDPClientDemo.c
                   __pa_1   0x012ae4    program     static F:\PIC-web\c18\PIC-WEB-5-42-UEXT-full\TCPIP\Demo App\BerkeleyUDPClientDemo.c
                   __pa_2   0x012af8    program     static F:\PIC-web\c18\PIC-WEB-5-42-UEXT-full\TCPIP\Demo App\BerkeleyUDPClientDemo.c
                   __pa_3   0x012b06    program     static F:\PIC-web\c18\PIC-WEB-5-42-UEXT-full\TCPIP\Demo App\BerkeleyUDPClientDemo.c
              SPITransfer   0x012b16    program     extern F:\PIC-web\c18\PIC-WEB-5-42-UEXT-full\Microchip\TCPIP Stack\SPIFlash.c
             SPIFlashInit   0x012b24    program     extern F:\PIC-web\c18\PIC-WEB-5-42-UEXT-full\Microchip\TCPIP Stack\SPIFlash.c
        SPIFlashBeginRead   0x012b40    program     extern F:\PIC-web\c18\PIC-WEB-5-42-UEXT-full\Microchip\TCPIP Stack\SPIFlash.c
             SPIFlashRead   0x012b5c    program     extern F:\PIC-web\c18\PIC-WEB-5-42-UEXT-full\Microchip\TCPIP Stack\SPIFlash.c
        SPIFlashReadArray   0x012bb6    program     extern F:\PIC-web\c18\PIC-WEB-5-42-UEXT-full\Microchip\TCPIP Stack\SPIFlash.c
       SPIFlashBeginWrite   0x012c44    program     extern F:\PIC-web\c18\PIC-WEB-5-42-UEXT-full\Microchip\TCPIP Stack\SPIFlash.c
            SPIFlashWrite   0x012c64    program     extern F:\PIC-web\c18\PIC-WEB-5-42-UEXT-full\Microchip\TCPIP Stack\SPIFlash.c
       SPIFlashWriteArray   0x012cae    program     extern F:\PIC-web\c18\PIC-WEB-5-42-UEXT-full\Microchip\TCPIP Stack\SPIFlash.c
         SPIFlashEndWrite   0x012cde    program     extern F:\PIC-web\c18\PIC-WEB-5-42-UEXT-full\Microchip\TCPIP Stack\SPIFlash.c
           SPIFlashIsBusy   0x012cea    program     extern F:\PIC-web\c18\PIC-WEB-5-42-UEXT-full\Microchip\TCPIP Stack\SPIFlash.c
  WriteBufferToMainMemory   0x012d06    program     extern F:\PIC-web\c18\PIC-WEB-5-42-UEXT-full\Microchip\TCPIP Stack\SPIFlash.c
 ReadBufferFromMainMemory   0x012d54    program     extern F:\PIC-web\c18\PIC-WEB-5-42-UEXT-full\Microchip\TCPIP Stack\SPIFlash.c
             ByteToBuffer   0x012d9c    program     extern F:\PIC-web\c18\PIC-WEB-5-42-UEXT-full\Microchip\TCPIP Stack\SPIFlash.c
                   __pa_0   0x012de2    program     static F:\PIC-web\c18\PIC-WEB-5-42-UEXT-full\Microchip\TCPIP Stack\SPIFlash.c
                   __pa_1   0x012e2a    program     static F:\PIC-web\c18\PIC-WEB-5-42-UEXT-full\Microchip\TCPIP Stack\SPIFlash.c
                   __pa_2   0x012e3a    program     static F:\PIC-web\c18\PIC-WEB-5-42-UEXT-full\Microchip\TCPIP Stack\SPIFlash.c
                   __pa_3   0x012e40    program     static F:\PIC-web\c18\PIC-WEB-5-42-UEXT-full\Microchip\TCPIP Stack\SPIFlash.c
                   __pa_4   0x012e60    program     static F:\PIC-web\c18\PIC-WEB-5-42-UEXT-full\Microchip\TCPIP Stack\SPIFlash.c
                   __pa_5   0x012e6c    program     static F:\PIC-web\c18\PIC-WEB-5-42-UEXT-full\Microchip\TCPIP Stack\SPIFlash.c
                   __pa_6   0x012e74    program     static F:\PIC-web\c18\PIC-WEB-5-42-UEXT-full\Microchip\TCPIP Stack\SPIFlash.c
                   __pa_7   0x012e7a    program     static F:\PIC-web\c18\PIC-WEB-5-42-UEXT-full\Microchip\TCPIP Stack\SPIFlash.c
                   __pa_8   0x012e8e    program     static F:\PIC-web\c18\PIC-WEB-5-42-UEXT-full\Microchip\TCPIP Stack\SPIFlash.c
              ICMPProcess   0x012e96    program     extern F:\PIC-web\c18\PIC-WEB-5-42-UEXT-full\Microchip\TCPIP Stack\ICMP.c
             ICMPSendPing   0x012fa8    program     extern F:\PIC-web\c18\PIC-WEB-5-42-UEXT-full\Microchip\TCPIP Stack\ICMP.c
       ICMPSendPingToHost   0x012fc2    program     extern F:\PIC-web\c18\PIC-WEB-5-42-UEXT-full\Microchip\TCPIP Stack\ICMP.c
    ICMPSendPingToHostROM   0x012fd8    program     extern F:\PIC-web\c18\PIC-WEB-5-42-UEXT-full\Microchip\TCPIP Stack\ICMP.c
             ICMPGetReply   0x012ff2    program     extern F:\PIC-web\c18\PIC-WEB-5-42-UEXT-full\Microchip\TCPIP Stack\ICMP.c
           ICMPBeginUsage   0x0131b4    program     extern F:\PIC-web\c18\PIC-WEB-5-42-UEXT-full\Microchip\TCPIP Stack\ICMP.c
             ICMPEndUsage   0x0131be    program     extern F:\PIC-web\c18\PIC-WEB-5-42-UEXT-full\Microchip\TCPIP Stack\ICMP.c
                   __pa_0   0x0131c4    program     static F:\PIC-web\c18\PIC-WEB-5-42-UEXT-full\Microchip\TCPIP Stack\ICMP.c
                   __pa_1   0x0131da    program     static F:\PIC-web\c18\PIC-WEB-5-42-UEXT-full\Microchip\TCPIP Stack\ICMP.c
                   __pa_2   0x0131f0    program     static F:\PIC-web\c18\PIC-WEB-5-42-UEXT-full\Microchip\TCPIP Stack\ICMP.c
                   __pa_3   0x0131fe    program     static F:\PIC-web\c18\PIC-WEB-5-42-UEXT-full\Microchip\TCPIP Stack\ICMP.c
                   __pa_4   0x01320c    program     static F:\PIC-web\c18\PIC-WEB-5-42-UEXT-full\Microchip\TCPIP Stack\ICMP.c
                 NBNSTask   0x013214    program     extern F:\PIC-web\c18\PIC-WEB-5-42-UEXT-full\Microchip\TCPIP Stack\NBNS.c
              NBNSPutName   0x013492    program     static F:\PIC-web\c18\PIC-WEB-5-42-UEXT-full\Microchip\TCPIP Stack\NBNS.c
              NBNSGetName   0x0134d8    program     static F:\PIC-web\c18\PIC-WEB-5-42-UEXT-full\Microchip\TCPIP Stack\NBNS.c
                   __pa_0   0x013552    program     static F:\PIC-web\c18\PIC-WEB-5-42-UEXT-full\Microchip\TCPIP Stack\NBNS.c
                   __pa_1   0x01355a    program     static F:\PIC-web\c18\PIC-WEB-5-42-UEXT-full\Microchip\TCPIP Stack\NBNS.c
                   __pa_2   0x013560    program     static F:\PIC-web\c18\PIC-WEB-5-42-UEXT-full\Microchip\TCPIP Stack\NBNS.c
                   __pa_3   0x013572    program     static F:\PIC-web\c18\PIC-WEB-5-42-UEXT-full\Microchip\TCPIP Stack\NBNS.c
                   __pa_4   0x013578    program     static F:\PIC-web\c18\PIC-WEB-5-42-UEXT-full\Microchip\TCPIP Stack\NBNS.c
                   __pa_5   0x01358a    program     static F:\PIC-web\c18\PIC-WEB-5-42-UEXT-full\Microchip\TCPIP Stack\NBNS.c
               SNTPClient   0x013590    program     extern F:\PIC-web\c18\PIC-WEB-5-42-UEXT-full\Microchip\TCPIP Stack\SNTP.c
        SNTPGetUTCSeconds   0x013784    program     extern F:\PIC-web\c18\PIC-WEB-5-42-UEXT-full\Microchip\TCPIP Stack\SNTP.c
                   __pa_0   0x013822    program     static F:\PIC-web\c18\PIC-WEB-5-42-UEXT-full\Microchip\TCPIP Stack\SNTP.c
                   __pa_1   0x013840    program     static F:\PIC-web\c18\PIC-WEB-5-42-UEXT-full\Microchip\TCPIP Stack\SNTP.c
                   __pa_2   0x013854    program     static F:\PIC-web\c18\PIC-WEB-5-42-UEXT-full\Microchip\TCPIP Stack\SNTP.c
                   __pa_3   0x013862    program     static F:\PIC-web\c18\PIC-WEB-5-42-UEXT-full\Microchip\TCPIP Stack\SNTP.c
       UART2TCPBridgeInit   0x013870    program     extern F:\PIC-web\c18\PIC-WEB-5-42-UEXT-full\Microchip\TCPIP Stack\UART2TCPBridge.c
       UART2TCPBridgeTask   0x013888    program     extern F:\PIC-web\c18\PIC-WEB-5-42-UEXT-full\Microchip\TCPIP Stack\UART2TCPBridge.c
        UART2TCPBridgeISR   0x013a8c    program     extern F:\PIC-web\c18\PIC-WEB-5-42-UEXT-full\Microchip\TCPIP Stack\UART2TCPBridge.c
                   __pa_0   0x013b2a    program     static F:\PIC-web\c18\PIC-WEB-5-42-UEXT-full\Microchip\TCPIP Stack\UART2TCPBridge.c
                   __pa_1   0x013b3a    program     static F:\PIC-web\c18\PIC-WEB-5-42-UEXT-full\Microchip\TCPIP Stack\UART2TCPBridge.c
                StackInit   0x013b4a    program     extern F:\PIC-web\c18\PIC-WEB-5-42-UEXT-full\Microchip\TCPIP Stack\StackTsk.c
                StackTask   0x013bac    program     extern F:\PIC-web\c18\PIC-WEB-5-42-UEXT-full\Microchip\TCPIP Stack\StackTsk.c
        StackApplications   0x013d9c    program     extern F:\PIC-web\c18\PIC-WEB-5-42-UEXT-full\Microchip\TCPIP Stack\StackTsk.c
              IPGetHeader   0x013dc4    program     extern F:\PIC-web\c18\PIC-WEB-5-42-UEXT-full\Microchip\TCPIP Stack\IP.c
              IPPutHeader   0x013eae    program     extern F:\PIC-web\c18\PIC-WEB-5-42-UEXT-full\Microchip\TCPIP Stack\IP.c
            IPSetRxBuffer   0x013f94    program     extern F:\PIC-web\c18\PIC-WEB-5-42-UEXT-full\Microchip\TCPIP Stack\IP.c
             SwapIPHeader   0x013fac    program     static F:\PIC-web\c18\PIC-WEB-5-42-UEXT-full\Microchip\TCPIP Stack\IP.c
                   __pa_0   0x013fdc    program     static F:\PIC-web\c18\PIC-WEB-5-42-UEXT-full\Microchip\TCPIP Stack\IP.c
                   __pa_1   0x013ffa    program     static F:\PIC-web\c18\PIC-WEB-5-42-UEXT-full\Microchip\TCPIP Stack\IP.c
                   __pa_2   0x014002    program     static F:\PIC-web\c18\PIC-WEB-5-42-UEXT-full\Microchip\TCPIP Stack\IP.c
         GenericTCPClient   0x01400c    program     extern F:\PIC-web\c18\PIC-WEB-5-42-UEXT-full\TCPIP\Demo App\GenericTCPClient.c
                   __pa_0   0x0141c4    program     static F:\PIC-web\c18\PIC-WEB-5-42-UEXT-full\TCPIP\Demo App\GenericTCPClient.c
                   __pa_1   0x0141ce    program     static F:\PIC-web\c18\PIC-WEB-5-42-UEXT-full\TCPIP\Demo App\GenericTCPClient.c
                   __pa_2   0x0141e4    program     static F:\PIC-web\c18\PIC-WEB-5-42-UEXT-full\TCPIP\Demo App\GenericTCPClient.c
                   __pa_3   0x0141f4    program     static F:\PIC-web\c18\PIC-WEB-5-42-UEXT-full\TCPIP\Demo App\GenericTCPClient.c
    BerkeleyTCPServerDemo   0x014202    program     extern F:\PIC-web\c18\PIC-WEB-5-42-UEXT-full\TCPIP\Demo App\BerkeleyTCPServerDemo.c
                   __pa_0   0x0143dc    program     static F:\PIC-web\c18\PIC-WEB-5-42-UEXT-full\TCPIP\Demo App\BerkeleyTCPServerDemo.c
                   __pa_1   0x0143e8    program     static F:\PIC-web\c18\PIC-WEB-5-42-UEXT-full\TCPIP\Demo App\BerkeleyTCPServerDemo.c
               AnnounceIP   0x0143f0    program     extern F:\PIC-web\c18\PIC-WEB-5-42-UEXT-full\Microchip\TCPIP Stack\Announce.c
            DiscoveryTask   0x01445e    program     extern F:\PIC-web\c18\PIC-WEB-5-42-UEXT-full\Microchip\TCPIP Stack\Announce.c
                   __pa_0   0x014540    program     static F:\PIC-web\c18\PIC-WEB-5-42-UEXT-full\Microchip\TCPIP Stack\Announce.c
                   __pa_1   0x01455a    program     static F:\PIC-web\c18\PIC-WEB-5-42-UEXT-full\Microchip\TCPIP Stack\Announce.c
                   __pa_2   0x014572    program     static F:\PIC-web\c18\PIC-WEB-5-42-UEXT-full\Microchip\TCPIP Stack\Announce.c
                   __pa_3   0x01458a    program     static F:\PIC-web\c18\PIC-WEB-5-42-UEXT-full\Microchip\TCPIP Stack\Announce.c
                   __pa_4   0x01459e    program     static F:\PIC-web\c18\PIC-WEB-5-42-UEXT-full\Microchip\TCPIP Stack\Announce.c
                   __pa_5   0x0145ac    program     static F:\PIC-web\c18\PIC-WEB-5-42-UEXT-full\Microchip\TCPIP Stack\Announce.c
                   __pa_6   0x0145ba    program     static F:\PIC-web\c18\PIC-WEB-5-42-UEXT-full\Microchip\TCPIP Stack\Announce.c
                   __pa_7   0x0145c8    program     static F:\PIC-web\c18\PIC-WEB-5-42-UEXT-full\Microchip\TCPIP Stack\Announce.c
    BerkeleyTCPClientDemo   0x0145ce    program     extern F:\PIC-web\c18\PIC-WEB-5-42-UEXT-full\TCPIP\Demo App\BerkeleyTCPClientDemo.c
         GenericTCPServer   0x0147a8    program     extern F:\PIC-web\c18\PIC-WEB-5-42-UEXT-full\TCPIP\Demo App\GenericTCPServer.c
                   __pa_0   0x0148fc    program     static F:\PIC-web\c18\PIC-WEB-5-42-UEXT-full\TCPIP\Demo App\GenericTCPServer.c
                 strTitle   0x01490a    program     static F:\PIC-web\c18\PIC-WEB-5-42-UEXT-full\Microchip\TCPIP Stack\Telnet.c
              strPassword   0x01498f    program     static F:\PIC-web\c18\PIC-WEB-5-42-UEXT-full\Microchip\TCPIP Stack\Telnet.c
          strAccessDenied   0x01499d    program     static F:\PIC-web\c18\PIC-WEB-5-42-UEXT-full\Microchip\TCPIP Stack\Telnet.c
         strAuthenticated   0x0149b1    program     static F:\PIC-web\c18\PIC-WEB-5-42-UEXT-full\Microchip\TCPIP Stack\Telnet.c
               strDisplay   0x0149e3    program     static F:\PIC-web\c18\PIC-WEB-5-42-UEXT-full\Microchip\TCPIP Stack\Telnet.c
                strSpaces   0x014a4c    program     static F:\PIC-web\c18\PIC-WEB-5-42-UEXT-full\Microchip\TCPIP Stack\Telnet.c
               strGoodBye   0x014a57    program     static F:\PIC-web\c18\PIC-WEB-5-42-UEXT-full\Microchip\TCPIP Stack\Telnet.c
                   _MD5_r   0x014a66    program     static F:\PIC-web\c18\PIC-WEB-5-42-UEXT-full\Microchip\TCPIP Stack\Hashes.c
                   _MD5_k   0x014aa6    program     static F:\PIC-web\c18\PIC-WEB-5-42-UEXT-full\Microchip\TCPIP Stack\Hashes.c
               RebootTask   0x014ba6    program     extern F:\PIC-web\c18\PIC-WEB-5-42-UEXT-full\Microchip\TCPIP Stack\Reboot.c
           ___if_lbl00001   0x014bd2    program     static                          
           ___if_lbl00002   0x014bdc    program     static                          
           ___if_lbl00003   0x014bf4    program     static                          
               __tmplbl_0   0x014c5c    program     static                          
           ___if_lbl00004   0x014c64    program     static                          
       ___return_lbl00000   0x014cca    program     static                          
                    frexp   0x014ccc    program     extern E:\3.46\pic18-lt\cxx-framework\src\traditional\stdclib\frexp.c
                   __pa_0   0x014dd4    program     static E:\3.46\pic18-lt\cxx-framework\src\traditional\stdclib\frexp.c
                   __pa_1   0x014de2    program     static E:\3.46\pic18-lt\cxx-framework\src\traditional\stdclib\frexp.c
             I2C_Transmit   0x014df0    program     extern F:\PIC-web\c18\PIC-WEB-5-42-UEXT-full\TCPIP\Demo App\Olimex_Demo_Files\Custom_I2C.c
              I2C_Receive   0x014e44    program     extern F:\PIC-web\c18\PIC-WEB-5-42-UEXT-full\TCPIP\Demo App\Olimex_Demo_Files\Custom_I2C.c
                   __pa_0   0x014ed0    program     static F:\PIC-web\c18\PIC-WEB-5-42-UEXT-full\TCPIP\Demo App\Olimex_Demo_Files\Custom_I2C.c
                   __pa_1   0x014ee0    program     static F:\PIC-web\c18\PIC-WEB-5-42-UEXT-full\TCPIP\Demo App\Olimex_Demo_Files\Custom_I2C.c
                   __pa_2   0x014ef4    program     static F:\PIC-web\c18\PIC-WEB-5-42-UEXT-full\TCPIP\Demo App\Olimex_Demo_Files\Custom_I2C.c
                   __pa_3   0x014f04    program     static F:\PIC-web\c18\PIC-WEB-5-42-UEXT-full\TCPIP\Demo App\Olimex_Demo_Files\Custom_I2C.c
                _UnpkMath   0x014f0e    program     extern E:\3.46\pic18-lt\cxx-framework\src\traditional\stdclib\UnpkMath.c
                   __pa_0   0x01501c    program     static E:\3.46\pic18-lt\cxx-framework\src\traditional\stdclib\UnpkMath.c
                _PackMath   0x01502a    program     extern E:\3.46\pic18-lt\cxx-framework\src\traditional\stdclib\PackMath.c
                   __pa_0   0x0150f2    program     static E:\3.46\pic18-lt\cxx-framework\src\traditional\stdclib\PackMath.c
                   __pa_1   0x015102    program     static E:\3.46\pic18-lt\cxx-framework\src\traditional\stdclib\PackMath.c
                   __pa_2   0x015110    program     static E:\3.46\pic18-lt\cxx-framework\src\traditional\stdclib\PackMath.c
                   __pa_3   0x01511a    program     static E:\3.46\pic18-lt\cxx-framework\src\traditional\stdclib\PackMath.c
                   __pa_4   0x015128    program     static E:\3.46\pic18-lt\cxx-framework\src\traditional\stdclib\PackMath.c
                   __pa_5   0x015130    program     static E:\3.46\pic18-lt\cxx-framework\src\traditional\stdclib\PackMath.c
                   __pa_6   0x015138    program     static E:\3.46\pic18-lt\cxx-framework\src\traditional\stdclib\PackMath.c
        UART_Write_String   0x015144    program     extern F:\PIC-web\c18\PIC-WEB-5-42-UEXT-full\TCPIP\Demo App\Olimex_Demo_Files\Custom_UART.c
         UART_Write_Array   0x015168    program     extern F:\PIC-web\c18\PIC-WEB-5-42-UEXT-full\TCPIP\Demo App\Olimex_Demo_Files\Custom_UART.c
         UART_Read_String   0x0151b6    program     extern F:\PIC-web\c18\PIC-WEB-5-42-UEXT-full\TCPIP\Demo App\Olimex_Demo_Files\Custom_UART.c
          UART_Read_Array   0x0151f2    program     extern F:\PIC-web\c18\PIC-WEB-5-42-UEXT-full\TCPIP\Demo App\Olimex_Demo_Files\Custom_UART.c
                   __pa_0   0x015240    program     static F:\PIC-web\c18\PIC-WEB-5-42-UEXT-full\TCPIP\Demo App\Olimex_Demo_Files\Custom_UART.c
                   __pa_1   0x015256    program     static F:\PIC-web\c18\PIC-WEB-5-42-UEXT-full\TCPIP\Demo App\Olimex_Demo_Files\Custom_UART.c
           ReadStringUART   0x01525e    program     extern F:\PIC-web\c18\PIC-WEB-5-42-UEXT-full\Microchip\TCPIP Stack\UART.c
                BusyUSART   0x0152ac    program     extern F:\PIC-web\c18\PIC-WEB-5-42-UEXT-full\Microchip\TCPIP Stack\UART.c
               CloseUSART   0x0152b8    program     extern F:\PIC-web\c18\PIC-WEB-5-42-UEXT-full\Microchip\TCPIP Stack\UART.c
             DataRdyUSART   0x0152c4    program     extern F:\PIC-web\c18\PIC-WEB-5-42-UEXT-full\Microchip\TCPIP Stack\UART.c
                ReadUSART   0x0152d6    program     extern F:\PIC-web\c18\PIC-WEB-5-42-UEXT-full\Microchip\TCPIP Stack\UART.c
               WriteUSART   0x0152da    program     extern F:\PIC-web\c18\PIC-WEB-5-42-UEXT-full\Microchip\TCPIP Stack\UART.c
                getsUSART   0x0152e0    program     extern F:\PIC-web\c18\PIC-WEB-5-42-UEXT-full\Microchip\TCPIP Stack\UART.c
                putsUSART   0x015314    program     extern F:\PIC-web\c18\PIC-WEB-5-42-UEXT-full\Microchip\TCPIP Stack\UART.c
               putrsUSART   0x01533e    program     extern F:\PIC-web\c18\PIC-WEB-5-42-UEXT-full\Microchip\TCPIP Stack\UART.c
        Custom_SWStartI2C   0x015376    program     extern F:\PIC-web\c18\PIC-WEB-5-42-UEXT-full\TCPIP\Demo App\Olimex_Demo_Files\Custom_I2C_Low.c
         Custom_SWStopI2C   0x01537e    program     extern F:\PIC-web\c18\PIC-WEB-5-42-UEXT-full\TCPIP\Demo App\Olimex_Demo_Files\Custom_I2C_Low.c
        Custom_SWWriteI2C   0x0153ac    program     extern F:\PIC-web\c18\PIC-WEB-5-42-UEXT-full\TCPIP\Demo App\Olimex_Demo_Files\Custom_I2C_Low.c
           ___do_lbl00007   0x0153ba    program     static                          
         ___else_lbl00006   0x0153dc    program     static                          
           ___if_lbl00005   0x0153f6    program     static                          
           ___do_lbl00003   0x0153fa    program     static                          
           ___do_lbl00004   0x015400    program     static                          
       ___return_lbl00002   0x015412    program     static                          
         Custom_SWReadI2C   0x015414    program     extern F:\PIC-web\c18\PIC-WEB-5-42-UEXT-full\TCPIP\Demo App\Olimex_Demo_Files\Custom_I2C_Low.c
          Custom_SWAckI2C   0x015444    program     extern F:\PIC-web\c18\PIC-WEB-5-42-UEXT-full\TCPIP\Demo App\Olimex_Demo_Files\Custom_I2C_Low.c
       Custom_SWNotAckI2C   0x015452    program     extern F:\PIC-web\c18\PIC-WEB-5-42-UEXT-full\TCPIP\Demo App\Olimex_Demo_Files\Custom_I2C_Low.c
                   __pa_0   0x015460    program     static F:\PIC-web\c18\PIC-WEB-5-42-UEXT-full\TCPIP\Demo App\Olimex_Demo_Files\Custom_I2C_Low.c
                   __pa_1   0x01546c    program     static F:\PIC-web\c18\PIC-WEB-5-42-UEXT-full\TCPIP\Demo App\Olimex_Demo_Files\Custom_I2C_Low.c
                 SMTPDemo   0x015474    program     extern F:\PIC-web\c18\PIC-WEB-5-42-UEXT-full\TCPIP\Demo App\SMTPDemo.c
                 PingDemo   0x01555a    program     extern F:\PIC-web\c18\PIC-WEB-5-42-UEXT-full\TCPIP\Demo App\PingDemo.c
                 TickInit   0x01563e    program     extern F:\PIC-web\c18\PIC-WEB-5-42-UEXT-full\Microchip\TCPIP Stack\Tick.c
              GetTickCopy   0x01564e    program     static F:\PIC-web\c18\PIC-WEB-5-42-UEXT-full\Microchip\TCPIP Stack\Tick.c
           ___do_lbl00004   0x01564e    program     static                          
           ___do_lbl00002   0x01566c    program     static                          
           ___do_lbl00003   0x015670    program     static                          
       ___return_lbl00001   0x015672    program     static                          
                  TickGet   0x015674    program     extern F:\PIC-web\c18\PIC-WEB-5-42-UEXT-full\Microchip\TCPIP Stack\Tick.c
            TickGetDiv256   0x015698    program     extern F:\PIC-web\c18\PIC-WEB-5-42-UEXT-full\Microchip\TCPIP Stack\Tick.c
            TickGetDiv64K   0x0156bc    program     extern F:\PIC-web\c18\PIC-WEB-5-42-UEXT-full\Microchip\TCPIP Stack\Tick.c
TickConvertToMilliseconds   0x0156e0    program     extern F:\PIC-web\c18\PIC-WEB-5-42-UEXT-full\Microchip\TCPIP Stack\Tick.c
               TickUpdate   0x01570a    program     extern F:\PIC-web\c18\PIC-WEB-5-42-UEXT-full\Microchip\TCPIP Stack\Tick.c
                WriteSPI1   0x01571e    program     extern F:\PIC-web\c18\PIC-WEB-5-42-UEXT-full\TCPIP\Demo App\Olimex_Demo_Files\Custom_SPI_Low.c
                 getsSPI1   0x015734    program     extern F:\PIC-web\c18\PIC-WEB-5-42-UEXT-full\TCPIP\Demo App\Olimex_Demo_Files\Custom_SPI_Low.c
                CloseSPI1   0x01575a    program     extern F:\PIC-web\c18\PIC-WEB-5-42-UEXT-full\TCPIP\Demo App\Olimex_Demo_Files\Custom_SPI_Low.c
                 putsSPI1   0x01575e    program     extern F:\PIC-web\c18\PIC-WEB-5-42-UEXT-full\TCPIP\Demo App\Olimex_Demo_Files\Custom_SPI_Low.c
                 OpenSPI1   0x015786    program     extern F:\PIC-web\c18\PIC-WEB-5-42-UEXT-full\TCPIP\Demo App\Olimex_Demo_Files\Custom_SPI_Low.c
              DataRdySPI1   0x0157ca    program     extern F:\PIC-web\c18\PIC-WEB-5-42-UEXT-full\TCPIP\Demo App\Olimex_Demo_Files\Custom_SPI_Low.c
                 ReadSPI1   0x0157d0    program     extern F:\PIC-web\c18\PIC-WEB-5-42-UEXT-full\TCPIP\Demo App\Olimex_Demo_Files\Custom_SPI_Low.c
                UART_Init   0x0157e0    program     extern F:\PIC-web\c18\PIC-WEB-5-42-UEXT-full\TCPIP\Demo App\Olimex_Demo_Files\Custom_UART_Low.c
             UART_Receive   0x01580a    program     extern F:\PIC-web\c18\PIC-WEB-5-42-UEXT-full\TCPIP\Demo App\Olimex_Demo_Files\Custom_UART_Low.c
            UART_Transmit   0x015814    program     extern F:\PIC-web\c18\PIC-WEB-5-42-UEXT-full\TCPIP\Demo App\Olimex_Demo_Files\Custom_UART_Low.c
                   __pa_0   0x01581e    program     static F:\PIC-web\c18\PIC-WEB-5-42-UEXT-full\TCPIP\Demo App\Olimex_Demo_Files\Custom_UART_Low.c
                _do_cinit   0x015888    program     extern E:\3.46\pic18-lt\cxx-framework\src\traditional\startup\c018i.c
                     test   0x0158a2    program     static                          
                copy_loop   0x0158fa    program     static                          
            copy_one_byte   0x015900    program     static                          
             done_copying   0x01590e    program     static                          
                     done   0x015924    program     static                          
       ___return_lbl00002   0x015924    program     static                          
                HTTP_CRLF   0x015926    program     static F:\PIC-web\c18\PIC-WEB-5-42-UEXT-full\Microchip\TCPIP Stack\HTTP2.c
       httpFileExtensions   0x015929    program     static F:\PIC-web\c18\PIC-WEB-5-42-UEXT-full\Microchip\TCPIP Stack\HTTP2.c
         httpContentTypes   0x01594d    program     static F:\PIC-web\c18\PIC-WEB-5-42-UEXT-full\Microchip\TCPIP Stack\HTTP2.c
      HTTPResponseHeaders   0x015971    program     static F:\PIC-web\c18\PIC-WEB-5-42-UEXT-full\Microchip\TCPIP Stack\HTTP2.c
       HTTPRequestHeaders   0x01599b    program     static F:\PIC-web\c18\PIC-WEB-5-42-UEXT-full\Microchip\TCPIP Stack\HTTP2.c
                  FXM3232   0x0159a4    program     extern E:\3.46\pic18-lt\cxx-framework\src\traditional\math\fxm3232.c
       ___return_lbl00000   0x015a12    program     static                          
                SWReadI2C   0x015a14    program     extern E:\3.46\pic18-lt\cxx-framework\src\pmc_common\SW_I2C\swgtci2c.c
           ___do_lbl00006   0x015a1c    program     static                          
           ___if_lbl00004   0x015a44    program     static                          
           ___if_lbl00003   0x015a44    program     static                          
           ___if_lbl00005   0x015a56    program     static                          
           ___do_lbl00001   0x015a56    program     static                          
           ___do_lbl00002   0x015a5c    program     static                          
       ___return_lbl00000   0x015a6e    program     static                          
                 FXD3232U   0x015a70    program     extern E:\3.46\pic18-lt\cxx-framework\src\traditional\math\fxd3232u.c
                     loop   0x015a7e    program     static                          
                   _false   0x015ab2    program     static                          
       ___return_lbl00000   0x015ab6    program     static                          
           SPI_Initialize   0x015ab8    program     extern F:\PIC-web\c18\PIC-WEB-5-42-UEXT-full\TCPIP\Demo App\Olimex_Demo_Files\Custom_SPI.c
             SPI_Transmit   0x015acc    program     extern F:\PIC-web\c18\PIC-WEB-5-42-UEXT-full\TCPIP\Demo App\Olimex_Demo_Files\Custom_SPI.c
              SPI_Receive   0x015ade    program     extern F:\PIC-web\c18\PIC-WEB-5-42-UEXT-full\TCPIP\Demo App\Olimex_Demo_Files\Custom_SPI.c
     TCPSocketInitializer   0x015af8    program     extern F:\PIC-web\c18\PIC-WEB-5-42-UEXT-full\TCPIP\Demo App\Configs\TCPIP OLIMEX_PIC_WEB.h
                RemoteURL   0x015b2e    program     static F:\PIC-web\c18\PIC-WEB-5-42-UEXT-full\TCPIP\Demo App\GenericTCPClient.c
                 FXD1616U   0x015b62    program     extern E:\3.46\pic18-lt\cxx-framework\src\traditional\math\fxd1616u.c
                     loop   0x015b6c    program     static                          
                  endloop   0x015b88    program     static                          
       ___return_lbl00000   0x015b8c    program     static                          
            __zero_memory   0x015b8e    program     extern E:\3.46\pic18-lt\cxx-framework\src\traditional\proc\p18f67j60.asm
               zero_block   0x015ba8    program     static E:\3.46\pic18-lt\cxx-framework\src\traditional\proc\p18f67j60.asm
                   loop_h   0x015ba8    program     static E:\3.46\pic18-lt\cxx-framework\src\traditional\proc\p18f67j60.asm
                compare_l   0x015bb0    program     static E:\3.46\pic18-lt\cxx-framework\src\traditional\proc\p18f67j60.asm
                   loop_l   0x015bb2    program     static E:\3.46\pic18-lt\cxx-framework\src\traditional\proc\p18f67j60.asm
              Delay1KTCYx   0x015bba    program     extern E:\3.46\pic18-lt\cxx-framework\src\traditional\delays\d1ktcyx.asm
                     D1Kx   0x015bc4    program     static E:\3.46\pic18-lt\cxx-framework\src\traditional\delays\d1ktcyx.asm
                    D1K_1   0x015bc6    program     static E:\3.46\pic18-lt\cxx-framework\src\traditional\delays\d1ktcyx.asm
        _D1KTCYXCODE_0010   0x015bca    program     static E:\3.46\pic18-lt\cxx-framework\src\traditional\delays\d1ktcyx.asm
        _D1KTCYXCODE_0016   0x015bd0    program     static E:\3.46\pic18-lt\cxx-framework\src\traditional\delays\d1ktcyx.asm
                 _startup   0x015bda    program     extern E:\3.46\pic18-lt\cxx-framework\src\traditional\startup\c018i.c
                     loop   0x015bea    program     static                          
       ___return_lbl00001   0x015bf4    program     static                          
              Delay10TCYx   0x015bf6    program     extern E:\3.46\pic18-lt\cxx-framework\src\traditional\delays\d10tcyx.asm
                     D10x   0x015bfe    program     static E:\3.46\pic18-lt\cxx-framework\src\traditional\delays\d10tcyx.asm
        _D10TCYXCODE_000A   0x015c00    program     static E:\3.46\pic18-lt\cxx-framework\src\traditional\delays\d10tcyx.asm
        _D10TCYXCODE_000C   0x015c02    program     static E:\3.46\pic18-lt\cxx-framework\src\traditional\delays\d10tcyx.asm
        _D10TCYXCODE_000E   0x015c04    program     static E:\3.46\pic18-lt\cxx-framework\src\traditional\delays\d10tcyx.asm
                    D10_1   0x015c06    program     static E:\3.46\pic18-lt\cxx-framework\src\traditional\delays\d10tcyx.asm
               Clock_test   0x015c0c    program     extern E:\3.46\pic18-lt\cxx-framework\src\pmc_common\SW_I2C\swckti2c.c
               ServerName   0x015c1c    program     static F:\PIC-web\c18\PIC-WEB-5-42-UEXT-full\TCPIP\Demo App\BerkeleyTCPClientDemo.c
     SerializedMACAddress   0x015c2b    program     static F:\PIC-web\c18\PIC-WEB-5-42-UEXT-full\TCPIP\Demo App\MainDemo.c
            HTML_UP_ARROW   0x015c31    program     extern F:\PIC-web\c18\PIC-WEB-5-42-UEXT-full\TCPIP\Demo App\CustomHTTPApp.c
          HTML_DOWN_ARROW   0x015c34    program     extern F:\PIC-web\c18\PIC-WEB-5-42-UEXT-full\TCPIP\Demo App\CustomHTTPApp.c
                   __init   0x015c38    program     extern E:\3.46\pic18-lt\cxx-framework\src\traditional\stdclib\__init.c
               __config_0   0x01fff8    program     static F:\PIC-web\c18\PIC-WEB-5-42-UEXT-full\TCPIP\Demo App\MainDemo.c
               __config_1   0x01fffa    program     static F:\PIC-web\c18\PIC-WEB-5-42-UEXT-full\TCPIP\Demo App\MainDemo.c
               __config_2   0x01fffd    program     static F:\PIC-web\c18\PIC-WEB-5-42-UEXT-full\TCPIP\Demo App\MainDemo.c
                  __tmp_0   0x000000       data     static F:\PIC-web\c18\PIC-WEB-5-42-UEXT-full\Microchip\TCPIP Stack\UDP.c
                  __tmp_0   0x000000       data     static F:\PIC-web\c18\PIC-WEB-5-42-UEXT-full\Microchip\TCPIP Stack\UART2TCPBridge.c
                  __tmp_0   0x000000       data     static F:\PIC-web\c18\PIC-WEB-5-42-UEXT-full\Microchip\TCPIP Stack\DHCPs.c
                  __tmp_0   0x000000       data     static F:\PIC-web\c18\PIC-WEB-5-42-UEXT-full\Microchip\TCPIP Stack\DHCP.c
                  __tmp_0   0x000000       data     static F:\PIC-web\c18\PIC-WEB-5-42-UEXT-full\Microchip\TCPIP Stack\Announce.c
                  __tmp_0   0x000000       data     static F:\PIC-web\c18\PIC-WEB-5-42-UEXT-full\TCPIP\Demo App\GenericTCPClient.c
                  __tmp_0   0x000000       data     static F:\PIC-web\c18\PIC-WEB-5-42-UEXT-full\Microchip\TCPIP Stack\Hashes.c
                  __tmp_0   0x000000       data     static F:\PIC-web\c18\PIC-WEB-5-42-UEXT-full\TCPIP\Demo App\BerkeleyUDPClientDemo.c
                  __tmp_0   0x000000       data     static F:\PIC-web\c18\PIC-WEB-5-42-UEXT-full\Microchip\TCPIP Stack\StackTsk.c
                  __tmp_0   0x000000       data     static E:\3.46\pic18-lt\cxx-framework\src\traditional\stdclib\frexp.c
                  __tmp_0   0x000000       data     static F:\PIC-web\c18\PIC-WEB-5-42-UEXT-full\TCPIP\Demo App\CustomHTTPApp.c
                  __tmp_0   0x000000       data     static F:\PIC-web\c18\PIC-WEB-5-42-UEXT-full\Microchip\TCPIP Stack\SPIFlash.c
                  __tmp_0   0x000000       data     static F:\PIC-web\c18\PIC-WEB-5-42-UEXT-full\Microchip\TCPIP Stack\ETH97J60.c
                  __tmp_0   0x000000       data     static F:\PIC-web\c18\PIC-WEB-5-42-UEXT-full\Microchip\TCPIP Stack\ARP.c
                  __tmp_0   0x000000       data     static E:\3.46\pic18-lt\cxx-framework\src\traditional\stdclib\UnpkMath.c
                  __tmp_0   0x000000       data     static F:\PIC-web\c18\PIC-WEB-5-42-UEXT-full\Microchip\TCPIP Stack\MPFS2.c
                  __tmp_0   0x000000       data     static F:\PIC-web\c18\PIC-WEB-5-42-UEXT-full\Microchip\TCPIP Stack\SMTP.c
                  __tmp_0   0x000000       data     static F:\PIC-web\c18\PIC-WEB-5-42-UEXT-full\TCPIP\Demo App\BerkeleyTCPServerDemo.c
                  __tmp_0   0x000000       data     static F:\PIC-web\c18\PIC-WEB-5-42-UEXT-full\TCPIP\Demo App\Olimex_Demo_Files\Misc_Functions.c
                  __tmp_0   0x000000       data     static F:\PIC-web\c18\PIC-WEB-5-42-UEXT-full\Microchip\TCPIP Stack\Reboot.c
                  __tmp_0   0x000000       data     static F:\PIC-web\c18\PIC-WEB-5-42-UEXT-full\TCPIP\Demo App\BerkeleyTCPClientDemo.c
                  __tmp_0   0x000000       data     static F:\PIC-web\c18\PIC-WEB-5-42-UEXT-full\Microchip\TCPIP Stack\NBNS.c
                  __tmp_0   0x000000       data     static E:\3.46\pic18-lt\cxx-framework\src\traditional\stdclib\log.c
                  __tmp_0   0x000000       data     static F:\PIC-web\c18\PIC-WEB-5-42-UEXT-full\Microchip\TCPIP Stack\SNTP.c
                  __tmp_0   0x000000       data     static F:\PIC-web\c18\PIC-WEB-5-42-UEXT-full\TCPIP\Demo App\UARTConfig.c
                  __tmp_0   0x000000       data     static F:\PIC-web\c18\PIC-WEB-5-42-UEXT-full\Microchip\TCPIP Stack\IP.c
                  __tmp_0   0x000000       data     static F:\PIC-web\c18\PIC-WEB-5-42-UEXT-full\Microchip\TCPIP Stack\Telnet.c
                  __tmp_0   0x000000       data     static F:\PIC-web\c18\PIC-WEB-5-42-UEXT-full\Microchip\TCPIP Stack\ICMP.c
                  __tmp_0   0x000000       data     static F:\PIC-web\c18\PIC-WEB-5-42-UEXT-full\TCPIP\Demo App\SMTPDemo.c
                  __tmp_0   0x000000       data     static F:\PIC-web\c18\PIC-WEB-5-42-UEXT-full\TCPIP\Demo App\Olimex_Demo_Files\Custom_I2C.c
                  __tmp_0   0x000000       data     static F:\PIC-web\c18\PIC-WEB-5-42-UEXT-full\Microchip\TCPIP Stack\BerkeleyAPI.c
                  __tmp_0   0x000000       data     static F:\PIC-web\c18\PIC-WEB-5-42-UEXT-full\TCPIP\Demo App\Olimex_Demo_Files\Custom_I2C_Low.c
                  __tmp_0   0x000000       data     static F:\PIC-web\c18\PIC-WEB-5-42-UEXT-full\Microchip\TCPIP Stack\HTTP2.c
                  __tmp_0   0x000000       data     static E:\3.46\pic18-lt\cxx-framework\src\pmc_common\SW_I2C\swgtci2c.c
                  __tmp_0   0x000000       data     static F:\PIC-web\c18\PIC-WEB-5-42-UEXT-full\Microchip\TCPIP Stack\TCPPerformanceTest.c
                  __tmp_0   0x000000       data     static F:\PIC-web\c18\PIC-WEB-5-42-UEXT-full\Microchip\TCPIP Stack\TCP.c
                  __tmp_0   0x000000       data     static F:\PIC-web\c18\PIC-WEB-5-42-UEXT-full\Microchip\TCPIP Stack\AutoIP.c
                  __tmp_0   0x000000       data     static F:\PIC-web\c18\PIC-WEB-5-42-UEXT-full\TCPIP\Demo App\Olimex_Demo_Files\Custom_UART.c
                  __tmp_0   0x000000       data     static F:\PIC-web\c18\PIC-WEB-5-42-UEXT-full\Microchip\TCPIP Stack\Helpers.c
                  __tmp_0   0x000000       data     static F:\PIC-web\c18\PIC-WEB-5-42-UEXT-full\Microchip\TCPIP Stack\DNS.c
                  __tmp_0   0x000000       data     static E:\3.46\pic18-lt\cxx-framework\src\traditional\stdclib\PackMath.c
                  __tmp_0   0x000000       data     static F:\PIC-web\c18\PIC-WEB-5-42-UEXT-full\TCPIP\Demo App\MainDemo.c
                  __tmp_0   0x000000       data     static F:\PIC-web\c18\PIC-WEB-5-42-UEXT-full\TCPIP\Demo App\GenericTCPServer.c
                  __tmp_0   0x000000       data     static F:\PIC-web\c18\PIC-WEB-5-42-UEXT-full\TCPIP\Demo App\PingDemo.c
                  __tmp_0   0x000000       data     static F:\PIC-web\c18\PIC-WEB-5-42-UEXT-full\TCPIP\Demo App\Olimex_Demo_Files\Custom_UART_Low.c
                     SIGN   0x000020       data     extern E:\3.46\pic18-lt\cxx-framework\src\traditional\math\cmath18.asm
            __FPFLAGSbits   0x000021       data     extern E:\3.46\pic18-lt\cxx-framework\src\traditional\math\cmath18.asm
                __FPFLAGS   0x000021       data     extern E:\3.46\pic18-lt\cxx-framework\src\traditional\math\cmath18.asm
                  __REMB3   0x000022       data     extern E:\3.46\pic18-lt\cxx-framework\src\traditional\math\aarg.asm
                 __AARGB7   0x000022       data     extern E:\3.46\pic18-lt\cxx-framework\src\traditional\math\aarg.asm
                  __REMB2   0x000023       data     extern E:\3.46\pic18-lt\cxx-framework\src\traditional\math\aarg.asm
                 __AARGB6   0x000023       data     extern E:\3.46\pic18-lt\cxx-framework\src\traditional\math\aarg.asm
                  __REMB1   0x000024       data     extern E:\3.46\pic18-lt\cxx-framework\src\traditional\math\aarg.asm
                 __AARGB5   0x000024       data     extern E:\3.46\pic18-lt\cxx-framework\src\traditional\math\aarg.asm
                 __AARGB4   0x000025       data     extern E:\3.46\pic18-lt\cxx-framework\src\traditional\math\aarg.asm
                  __REMB0   0x000025       data     extern E:\3.46\pic18-lt\cxx-framework\src\traditional\math\aarg.asm
                 __AARGB3   0x000026       data     extern E:\3.46\pic18-lt\cxx-framework\src\traditional\math\aarg.asm
                 __AARGB2   0x000027       data     extern E:\3.46\pic18-lt\cxx-framework\src\traditional\math\aarg.asm
                 __AARGB1   0x000028       data     extern E:\3.46\pic18-lt\cxx-framework\src\traditional\math\aarg.asm
                 __AARGB0   0x000029       data     extern E:\3.46\pic18-lt\cxx-framework\src\traditional\math\aarg.asm
                   __AEXP   0x00002a       data     extern E:\3.46\pic18-lt\cxx-framework\src\traditional\math\aarg.asm
                 __BARGB3   0x00002b       data     extern E:\3.46\pic18-lt\cxx-framework\src\traditional\math\barg.asm
                 __BARGB2   0x00002c       data     extern E:\3.46\pic18-lt\cxx-framework\src\traditional\math\barg.asm
                 __BARGB1   0x00002d       data     extern E:\3.46\pic18-lt\cxx-framework\src\traditional\math\barg.asm
                 __BARGB0   0x00002e       data     extern E:\3.46\pic18-lt\cxx-framework\src\traditional\math\barg.asm
                   __BEXP   0x00002f       data     extern E:\3.46\pic18-lt\cxx-framework\src\traditional\math\barg.asm
                 __TEMPB3   0x000030       data     extern E:\3.46\pic18-lt\cxx-framework\src\traditional\math\temparg.asm
                 __TEMPB2   0x000031       data     extern E:\3.46\pic18-lt\cxx-framework\src\traditional\math\temparg.asm
                 __TEMPB1   0x000032       data     extern E:\3.46\pic18-lt\cxx-framework\src\traditional\math\temparg.asm
                   __TEMP   0x000033       data     extern E:\3.46\pic18-lt\cxx-framework\src\traditional\math\temparg.asm
                 __TEMPB0   0x000033       data     extern E:\3.46\pic18-lt\cxx-framework\src\traditional\math\temparg.asm
            DelayCounter1   0x000034       data     extern E:\3.46\pic18-lt\cxx-framework\src\traditional\delays\delayd1.asm
                MPFSStubs   0x000060       data     static F:\PIC-web\c18\PIC-WEB-5-42-UEXT-full\Microchip\TCPIP Stack\MPFS2.c
             isMPFSLocked   0x0000b0       data     static F:\PIC-web\c18\PIC-WEB-5-42-UEXT-full\Microchip\TCPIP Stack\MPFS2.c
                 fatCache   0x0000b1       data     static F:\PIC-web\c18\PIC-WEB-5-42-UEXT-full\Microchip\TCPIP Stack\MPFS2.c
               fatCacheID   0x0000c7       data     static F:\PIC-web\c18\PIC-WEB-5-42-UEXT-full\Microchip\TCPIP Stack\MPFS2.c
                 numFiles   0x0000c9       data     static F:\PIC-web\c18\PIC-WEB-5-42-UEXT-full\Microchip\TCPIP Stack\MPFS2.c
                    cFile   0x0000cb       data     static F:\PIC-web\c18\PIC-WEB-5-42-UEXT-full\Microchip\TCPIP Stack\MPFS2.c
             __MPFSOpen:0   0x0000cb       data     extern F:\PIC-web\c18\PIC-WEB-5-42-UEXT-full\Microchip\TCPIP Stack\MPFS2.c
                    cFile   0x0000cd       data     static F:\PIC-web\c18\PIC-WEB-5-42-UEXT-full\Microchip\TCPIP Stack\MPFS2.c
          __MPFSOpenROM:0   0x0000cd       data     extern F:\PIC-web\c18\PIC-WEB-5-42-UEXT-full\Microchip\TCPIP Stack\MPFS2.c
           __MPFSOpenID:0   0x0000d0       data     extern F:\PIC-web\c18\PIC-WEB-5-42-UEXT-full\Microchip\TCPIP Stack\MPFS2.c
                   hFatID   0x0000d0       data     static F:\PIC-web\c18\PIC-WEB-5-42-UEXT-full\Microchip\TCPIP Stack\MPFS2.c
            __MPFSClose:0   0x0000d2       data     extern F:\PIC-web\c18\PIC-WEB-5-42-UEXT-full\Microchip\TCPIP Stack\MPFS2.c
                    hMPFS   0x0000d2       data     static F:\PIC-web\c18\PIC-WEB-5-42-UEXT-full\Microchip\TCPIP Stack\MPFS2.c
                    hMPFS   0x0000d3       data     static F:\PIC-web\c18\PIC-WEB-5-42-UEXT-full\Microchip\TCPIP Stack\MPFS2.c
              __MPFSGet:0   0x0000d3       data     extern F:\PIC-web\c18\PIC-WEB-5-42-UEXT-full\Microchip\TCPIP Stack\MPFS2.c
              __MPFSGet:1   0x0000d4       data     extern F:\PIC-web\c18\PIC-WEB-5-42-UEXT-full\Microchip\TCPIP Stack\MPFS2.c
                        c   0x0000d4       data     static F:\PIC-web\c18\PIC-WEB-5-42-UEXT-full\Microchip\TCPIP Stack\MPFS2.c
                    hMPFS   0x0000d6       data     static F:\PIC-web\c18\PIC-WEB-5-42-UEXT-full\Microchip\TCPIP Stack\MPFS2.c
         __MPFSGetArray:0   0x0000d6       data     extern F:\PIC-web\c18\PIC-WEB-5-42-UEXT-full\Microchip\TCPIP Stack\MPFS2.c
         __MPFSGetArray:1   0x0000d7       data     extern F:\PIC-web\c18\PIC-WEB-5-42-UEXT-full\Microchip\TCPIP Stack\MPFS2.c
                    cData   0x0000d7       data     static F:\PIC-web\c18\PIC-WEB-5-42-UEXT-full\Microchip\TCPIP Stack\MPFS2.c
         __MPFSGetArray:2   0x0000d9       data     extern F:\PIC-web\c18\PIC-WEB-5-42-UEXT-full\Microchip\TCPIP Stack\MPFS2.c
                     wLen   0x0000d9       data     static F:\PIC-web\c18\PIC-WEB-5-42-UEXT-full\Microchip\TCPIP Stack\MPFS2.c
          __MPFSGetLong:0   0x0000db       data     extern F:\PIC-web\c18\PIC-WEB-5-42-UEXT-full\Microchip\TCPIP Stack\MPFS2.c
                    hMPFS   0x0000db       data     static F:\PIC-web\c18\PIC-WEB-5-42-UEXT-full\Microchip\TCPIP Stack\MPFS2.c
                       ul   0x0000dc       data     static F:\PIC-web\c18\PIC-WEB-5-42-UEXT-full\Microchip\TCPIP Stack\MPFS2.c
          __MPFSGetLong:1   0x0000dc       data     extern F:\PIC-web\c18\PIC-WEB-5-42-UEXT-full\Microchip\TCPIP Stack\MPFS2.c
                    hMPFS   0x0000de       data     static F:\PIC-web\c18\PIC-WEB-5-42-UEXT-full\Microchip\TCPIP Stack\MPFS2.c
             __MPFSSeek:0   0x0000de       data     extern F:\PIC-web\c18\PIC-WEB-5-42-UEXT-full\Microchip\TCPIP Stack\MPFS2.c
             __MPFSSeek:1   0x0000df       data     extern F:\PIC-web\c18\PIC-WEB-5-42-UEXT-full\Microchip\TCPIP Stack\MPFS2.c
                 dwOffset   0x0000df       data     static F:\PIC-web\c18\PIC-WEB-5-42-UEXT-full\Microchip\TCPIP Stack\MPFS2.c
             __MPFSSeek:2   0x0000e3       data     extern F:\PIC-web\c18\PIC-WEB-5-42-UEXT-full\Microchip\TCPIP Stack\MPFS2.c
                    tMode   0x0000e3       data     static F:\PIC-web\c18\PIC-WEB-5-42-UEXT-full\Microchip\TCPIP Stack\MPFS2.c
         __MPFSPutArray:0   0x0000e4       data     extern F:\PIC-web\c18\PIC-WEB-5-42-UEXT-full\Microchip\TCPIP Stack\MPFS2.c
                    hMPFS   0x0000e4       data     static F:\PIC-web\c18\PIC-WEB-5-42-UEXT-full\Microchip\TCPIP Stack\MPFS2.c
         __MPFSPutArray:1   0x0000e5       data     extern F:\PIC-web\c18\PIC-WEB-5-42-UEXT-full\Microchip\TCPIP Stack\MPFS2.c
                    cData   0x0000e5       data     static F:\PIC-web\c18\PIC-WEB-5-42-UEXT-full\Microchip\TCPIP Stack\MPFS2.c
         __MPFSPutArray:2   0x0000e7       data     extern F:\PIC-web\c18\PIC-WEB-5-42-UEXT-full\Microchip\TCPIP Stack\MPFS2.c
                     wLen   0x0000e7       data     static F:\PIC-web\c18\PIC-WEB-5-42-UEXT-full\Microchip\TCPIP Stack\MPFS2.c
                    final   0x0000e9       data     static F:\PIC-web\c18\PIC-WEB-5-42-UEXT-full\Microchip\TCPIP Stack\MPFS2.c
           __MPFSPutEnd:0   0x0000e9       data     extern F:\PIC-web\c18\PIC-WEB-5-42-UEXT-full\Microchip\TCPIP Stack\MPFS2.c
                    fatID   0x0000ea       data     static F:\PIC-web\c18\PIC-WEB-5-42-UEXT-full\Microchip\TCPIP Stack\MPFS2.c
       ___LoadFATRecord:0   0x0000ea       data     static F:\PIC-web\c18\PIC-WEB-5-42-UEXT-full\Microchip\TCPIP Stack\MPFS2.c
     __MPFSGetTimestamp:0   0x0000ec       data     extern F:\PIC-web\c18\PIC-WEB-5-42-UEXT-full\Microchip\TCPIP Stack\MPFS2.c
                    hMPFS   0x0000ec       data     static F:\PIC-web\c18\PIC-WEB-5-42-UEXT-full\Microchip\TCPIP Stack\MPFS2.c
                    hMPFS   0x0000ed       data     static F:\PIC-web\c18\PIC-WEB-5-42-UEXT-full\Microchip\TCPIP Stack\MPFS2.c
     __MPFSGetMicrotime:0   0x0000ed       data     extern F:\PIC-web\c18\PIC-WEB-5-42-UEXT-full\Microchip\TCPIP Stack\MPFS2.c
         __MPFSGetFlags:0   0x0000ee       data     extern F:\PIC-web\c18\PIC-WEB-5-42-UEXT-full\Microchip\TCPIP Stack\MPFS2.c
                    hMPFS   0x0000ee       data     static F:\PIC-web\c18\PIC-WEB-5-42-UEXT-full\Microchip\TCPIP Stack\MPFS2.c
                    hMPFS   0x0000ef       data     static F:\PIC-web\c18\PIC-WEB-5-42-UEXT-full\Microchip\TCPIP Stack\MPFS2.c
          __MPFSGetSize:0   0x0000ef       data     extern F:\PIC-web\c18\PIC-WEB-5-42-UEXT-full\Microchip\TCPIP Stack\MPFS2.c
      __MPFSGetBytesRem:0   0x0000f0       data     extern F:\PIC-web\c18\PIC-WEB-5-42-UEXT-full\Microchip\TCPIP Stack\MPFS2.c
                    hMPFS   0x0000f0       data     static F:\PIC-web\c18\PIC-WEB-5-42-UEXT-full\Microchip\TCPIP Stack\MPFS2.c
     __MPFSGetStartAddr:0   0x0000f1       data     extern F:\PIC-web\c18\PIC-WEB-5-42-UEXT-full\Microchip\TCPIP Stack\MPFS2.c
                    hMPFS   0x0000f1       data     static F:\PIC-web\c18\PIC-WEB-5-42-UEXT-full\Microchip\TCPIP Stack\MPFS2.c
       __MPFSGetEndAddr:0   0x0000f2       data     extern F:\PIC-web\c18\PIC-WEB-5-42-UEXT-full\Microchip\TCPIP Stack\MPFS2.c
                    hMPFS   0x0000f2       data     static F:\PIC-web\c18\PIC-WEB-5-42-UEXT-full\Microchip\TCPIP Stack\MPFS2.c
                    hMPFS   0x0000f3       data     static F:\PIC-web\c18\PIC-WEB-5-42-UEXT-full\Microchip\TCPIP Stack\MPFS2.c
      __MPFSGetFilename:0   0x0000f3       data     extern F:\PIC-web\c18\PIC-WEB-5-42-UEXT-full\Microchip\TCPIP Stack\MPFS2.c
                    cName   0x0000f4       data     static F:\PIC-web\c18\PIC-WEB-5-42-UEXT-full\Microchip\TCPIP Stack\MPFS2.c
      __MPFSGetFilename:1   0x0000f4       data     extern F:\PIC-web\c18\PIC-WEB-5-42-UEXT-full\Microchip\TCPIP Stack\MPFS2.c
                     wLen   0x0000f6       data     static F:\PIC-web\c18\PIC-WEB-5-42-UEXT-full\Microchip\TCPIP Stack\MPFS2.c
      __MPFSGetFilename:2   0x0000f6       data     extern F:\PIC-web\c18\PIC-WEB-5-42-UEXT-full\Microchip\TCPIP Stack\MPFS2.c
      __MPFSGetPosition:0   0x0000f8       data     extern F:\PIC-web\c18\PIC-WEB-5-42-UEXT-full\Microchip\TCPIP Stack\MPFS2.c
                    hMPFS   0x0000f8       data     static F:\PIC-web\c18\PIC-WEB-5-42-UEXT-full\Microchip\TCPIP Stack\MPFS2.c
                    hMPFS   0x0000f9       data     static F:\PIC-web\c18\PIC-WEB-5-42-UEXT-full\Microchip\TCPIP Stack\MPFS2.c
            __MPFSGetID:0   0x0000f9       data     extern F:\PIC-web\c18\PIC-WEB-5-42-UEXT-full\Microchip\TCPIP Stack\MPFS2.c
           hTelnetSockets   0x0000fa       data     static F:\PIC-web\c18\PIC-WEB-5-42-UEXT-full\Microchip\TCPIP Stack\Telnet.c
            vTelnetStates   0x0000fb       data     static F:\PIC-web\c18\PIC-WEB-5-42-UEXT-full\Microchip\TCPIP Stack\Telnet.c
                   dwTime   0x0000fc       data     static F:\PIC-web\c18\PIC-WEB-5-42-UEXT-full\Microchip\TCPIP Stack\Telnet.c
                 TCBStubs   0x000100       data     static F:\PIC-web\c18\PIC-WEB-5-42-UEXT-full\Microchip\TCPIP Stack\TCP.c
                  dwTimer   0x0001fc       data     static F:\PIC-web\c18\PIC-WEB-5-42-UEXT-full\Microchip\TCPIP Stack\SNTP.c
            UDPSocketInfo   0x000200       data     extern F:\PIC-web\c18\PIC-WEB-5-42-UEXT-full\Microchip\TCPIP Stack\UDP.c
          activeUDPSocket   0x0002b8       data     extern F:\PIC-web\c18\PIC-WEB-5-42-UEXT-full\Microchip\TCPIP Stack\UDP.c
               UDPTxCount   0x0002b9       data     extern F:\PIC-web\c18\PIC-WEB-5-42-UEXT-full\Microchip\TCPIP Stack\UDP.c
               UDPRxCount   0x0002bb       data     extern F:\PIC-web\c18\PIC-WEB-5-42-UEXT-full\Microchip\TCPIP Stack\UDP.c
               wPutOffset   0x0002bd       data     static F:\PIC-web\c18\PIC-WEB-5-42-UEXT-full\Microchip\TCPIP Stack\UDP.c
               wGetOffset   0x0002bf       data     static F:\PIC-web\c18\PIC-WEB-5-42-UEXT-full\Microchip\TCPIP Stack\UDP.c
                    Flags   0x0002c1       data     static F:\PIC-web\c18\PIC-WEB-5-42-UEXT-full\Microchip\TCPIP Stack\UDP.c
            __UDPOpenEx:0   0x0002c2       data     extern F:\PIC-web\c18\PIC-WEB-5-42-UEXT-full\Microchip\TCPIP Stack\UDP.c
               remoteHost   0x0002c2       data     static F:\PIC-web\c18\PIC-WEB-5-42-UEXT-full\Microchip\TCPIP Stack\UDP.c
            __UDPOpenEx:1   0x0002c6       data     extern F:\PIC-web\c18\PIC-WEB-5-42-UEXT-full\Microchip\TCPIP Stack\UDP.c
           remoteHostType   0x0002c6       data     static F:\PIC-web\c18\PIC-WEB-5-42-UEXT-full\Microchip\TCPIP Stack\UDP.c
                localPort   0x0002c7       data     static F:\PIC-web\c18\PIC-WEB-5-42-UEXT-full\Microchip\TCPIP Stack\UDP.c
            __UDPOpenEx:2   0x0002c7       data     extern F:\PIC-web\c18\PIC-WEB-5-42-UEXT-full\Microchip\TCPIP Stack\UDP.c
            __UDPOpenEx:3   0x0002c9       data     extern F:\PIC-web\c18\PIC-WEB-5-42-UEXT-full\Microchip\TCPIP Stack\UDP.c
               remotePort   0x0002c9       data     static F:\PIC-web\c18\PIC-WEB-5-42-UEXT-full\Microchip\TCPIP Stack\UDP.c
                 NextPort   0x0002cb       data     static F:\PIC-web\c18\PIC-WEB-5-42-UEXT-full\Microchip\TCPIP Stack\UDP.c
          __UDPIsOpened:0   0x0002cd       data     extern F:\PIC-web\c18\PIC-WEB-5-42-UEXT-full\Microchip\TCPIP Stack\UDP.c
                   socket   0x0002cd       data     static F:\PIC-web\c18\PIC-WEB-5-42-UEXT-full\Microchip\TCPIP Stack\UDP.c
                        s   0x0002ce       data     static F:\PIC-web\c18\PIC-WEB-5-42-UEXT-full\Microchip\TCPIP Stack\UDP.c
             __UDPClose:0   0x0002ce       data     extern F:\PIC-web\c18\PIC-WEB-5-42-UEXT-full\Microchip\TCPIP Stack\UDP.c
                  wOffset   0x0002cf       data     static F:\PIC-web\c18\PIC-WEB-5-42-UEXT-full\Microchip\TCPIP Stack\UDP.c
       __UDPSetTxBuffer:0   0x0002cf       data     extern F:\PIC-web\c18\PIC-WEB-5-42-UEXT-full\Microchip\TCPIP Stack\UDP.c
                  wOffset   0x0002d1       data     static F:\PIC-web\c18\PIC-WEB-5-42-UEXT-full\Microchip\TCPIP Stack\UDP.c
       __UDPSetRxBuffer:0   0x0002d1       data     extern F:\PIC-web\c18\PIC-WEB-5-42-UEXT-full\Microchip\TCPIP Stack\UDP.c
                        s   0x0002d3       data     static F:\PIC-web\c18\PIC-WEB-5-42-UEXT-full\Microchip\TCPIP Stack\UDP.c
        __UDPIsPutReady:0   0x0002d3       data     extern F:\PIC-web\c18\PIC-WEB-5-42-UEXT-full\Microchip\TCPIP Stack\UDP.c
                        v   0x0002d4       data     static F:\PIC-web\c18\PIC-WEB-5-42-UEXT-full\Microchip\TCPIP Stack\UDP.c
               __UDPPut:0   0x0002d4       data     extern F:\PIC-web\c18\PIC-WEB-5-42-UEXT-full\Microchip\TCPIP Stack\UDP.c
                    cData   0x0002d5       data     static F:\PIC-web\c18\PIC-WEB-5-42-UEXT-full\Microchip\TCPIP Stack\UDP.c
          __UDPPutArray:0   0x0002d5       data     extern F:\PIC-web\c18\PIC-WEB-5-42-UEXT-full\Microchip\TCPIP Stack\UDP.c
                 wDataLen   0x0002d7       data     static F:\PIC-web\c18\PIC-WEB-5-42-UEXT-full\Microchip\TCPIP Stack\UDP.c
          __UDPPutArray:1   0x0002d7       data     extern F:\PIC-web\c18\PIC-WEB-5-42-UEXT-full\Microchip\TCPIP Stack\UDP.c
                    cData   0x0002d9       data     static F:\PIC-web\c18\PIC-WEB-5-42-UEXT-full\Microchip\TCPIP Stack\UDP.c
       __UDPPutROMArray:0   0x0002d9       data     extern F:\PIC-web\c18\PIC-WEB-5-42-UEXT-full\Microchip\TCPIP Stack\UDP.c
                 wDataLen   0x0002dc       data     static F:\PIC-web\c18\PIC-WEB-5-42-UEXT-full\Microchip\TCPIP Stack\UDP.c
       __UDPPutROMArray:1   0x0002dc       data     extern F:\PIC-web\c18\PIC-WEB-5-42-UEXT-full\Microchip\TCPIP Stack\UDP.c
                  strData   0x0002de       data     static F:\PIC-web\c18\PIC-WEB-5-42-UEXT-full\Microchip\TCPIP Stack\UDP.c
         __UDPPutString:0   0x0002de       data     extern F:\PIC-web\c18\PIC-WEB-5-42-UEXT-full\Microchip\TCPIP Stack\UDP.c
                  strData   0x0002e0       data     static F:\PIC-web\c18\PIC-WEB-5-42-UEXT-full\Microchip\TCPIP Stack\UDP.c
      __UDPPutROMString:0   0x0002e0       data     extern F:\PIC-web\c18\PIC-WEB-5-42-UEXT-full\Microchip\TCPIP Stack\UDP.c
        __UDPIsGetReady:0   0x0002e3       data     extern F:\PIC-web\c18\PIC-WEB-5-42-UEXT-full\Microchip\TCPIP Stack\UDP.c
                        s   0x0002e3       data     static F:\PIC-web\c18\PIC-WEB-5-42-UEXT-full\Microchip\TCPIP Stack\UDP.c
                        v   0x0002e4       data     static F:\PIC-web\c18\PIC-WEB-5-42-UEXT-full\Microchip\TCPIP Stack\UDP.c
               __UDPGet:0   0x0002e4       data     extern F:\PIC-web\c18\PIC-WEB-5-42-UEXT-full\Microchip\TCPIP Stack\UDP.c
                    cData   0x0002e6       data     static F:\PIC-web\c18\PIC-WEB-5-42-UEXT-full\Microchip\TCPIP Stack\UDP.c
          __UDPGetArray:0   0x0002e6       data     extern F:\PIC-web\c18\PIC-WEB-5-42-UEXT-full\Microchip\TCPIP Stack\UDP.c
                 wDataLen   0x0002e8       data     static F:\PIC-web\c18\PIC-WEB-5-42-UEXT-full\Microchip\TCPIP Stack\UDP.c
          __UDPGetArray:1   0x0002e8       data     extern F:\PIC-web\c18\PIC-WEB-5-42-UEXT-full\Microchip\TCPIP Stack\UDP.c
               remoteNode   0x0002ea       data     static F:\PIC-web\c18\PIC-WEB-5-42-UEXT-full\Microchip\TCPIP Stack\UDP.c
           __UDPProcess:0   0x0002ea       data     extern F:\PIC-web\c18\PIC-WEB-5-42-UEXT-full\Microchip\TCPIP Stack\UDP.c
           __UDPProcess:1   0x0002ec       data     extern F:\PIC-web\c18\PIC-WEB-5-42-UEXT-full\Microchip\TCPIP Stack\UDP.c
                  localIP   0x0002ec       data     static F:\PIC-web\c18\PIC-WEB-5-42-UEXT-full\Microchip\TCPIP Stack\UDP.c
           __UDPProcess:2   0x0002ee       data     extern F:\PIC-web\c18\PIC-WEB-5-42-UEXT-full\Microchip\TCPIP Stack\UDP.c
                      len   0x0002ee       data     static F:\PIC-web\c18\PIC-WEB-5-42-UEXT-full\Microchip\TCPIP Stack\UDP.c
                        h   0x0002f0       data     static F:\PIC-web\c18\PIC-WEB-5-42-UEXT-full\Microchip\TCPIP Stack\UDP.c
   __FindMatchingSocket:0   0x0002f0       data     static F:\PIC-web\c18\PIC-WEB-5-42-UEXT-full\Microchip\TCPIP Stack\UDP.c
               remoteNode   0x0002f2       data     static F:\PIC-web\c18\PIC-WEB-5-42-UEXT-full\Microchip\TCPIP Stack\UDP.c
   __FindMatchingSocket:1   0x0002f2       data     static F:\PIC-web\c18\PIC-WEB-5-42-UEXT-full\Microchip\TCPIP Stack\UDP.c
                  localIP   0x0002f4       data     static F:\PIC-web\c18\PIC-WEB-5-42-UEXT-full\Microchip\TCPIP Stack\UDP.c
   __FindMatchingSocket:2   0x0002f4       data     static F:\PIC-web\c18\PIC-WEB-5-42-UEXT-full\Microchip\TCPIP Stack\UDP.c
                     prom   0x0002f6       data     static E:\3.46\pic18-lt\cxx-framework\src\traditional\startup\c018i.c
                curr_byte   0x0002f9       data     static E:\3.46\pic18-lt\cxx-framework\src\traditional\startup\c018i.c
               curr_entry   0x0002fb       data     static E:\3.46\pic18-lt\cxx-framework\src\traditional\startup\c018i.c
                 data_ptr   0x0002fd       data     static E:\3.46\pic18-lt\cxx-framework\src\traditional\startup\c018i.c
                 NextPort   0x000300       data     static F:\PIC-web\c18\PIC-WEB-5-42-UEXT-full\Microchip\TCPIP Stack\TCP.c
                    MyTCB   0x000302       data     static F:\PIC-web\c18\PIC-WEB-5-42-UEXT-full\Microchip\TCPIP Stack\TCP.c
                MyTCBStub   0x000329       data     static F:\PIC-web\c18\PIC-WEB-5-42-UEXT-full\Microchip\TCPIP Stack\TCP.c
          __SyncTCBStub:0   0x000345       data     static F:\PIC-web\c18\PIC-WEB-5-42-UEXT-full\Microchip\TCPIP Stack\TCP.c
                     hTCP   0x000345       data     static F:\PIC-web\c18\PIC-WEB-5-42-UEXT-full\Microchip\TCPIP Stack\TCP.c
             dwRemoteHost   0x000346       data     static F:\PIC-web\c18\PIC-WEB-5-42-UEXT-full\Microchip\TCPIP Stack\TCP.c
              __TCPOpen:0   0x000346       data     extern F:\PIC-web\c18\PIC-WEB-5-42-UEXT-full\Microchip\TCPIP Stack\TCP.c
          vRemoteHostType   0x00034a       data     static F:\PIC-web\c18\PIC-WEB-5-42-UEXT-full\Microchip\TCPIP Stack\TCP.c
              __TCPOpen:1   0x00034a       data     extern F:\PIC-web\c18\PIC-WEB-5-42-UEXT-full\Microchip\TCPIP Stack\TCP.c
                    wPort   0x00034b       data     static F:\PIC-web\c18\PIC-WEB-5-42-UEXT-full\Microchip\TCPIP Stack\TCP.c
              __TCPOpen:2   0x00034b       data     extern F:\PIC-web\c18\PIC-WEB-5-42-UEXT-full\Microchip\TCPIP Stack\TCP.c
           vSocketPurpose   0x00034d       data     static F:\PIC-web\c18\PIC-WEB-5-42-UEXT-full\Microchip\TCPIP Stack\TCP.c
              __TCPOpen:3   0x00034d       data     extern F:\PIC-web\c18\PIC-WEB-5-42-UEXT-full\Microchip\TCPIP Stack\TCP.c
                     hTCP   0x00034e       data     static F:\PIC-web\c18\PIC-WEB-5-42-UEXT-full\Microchip\TCPIP Stack\TCP.c
          __TCPWasReset:0   0x00034e       data     extern F:\PIC-web\c18\PIC-WEB-5-42-UEXT-full\Microchip\TCPIP Stack\TCP.c
       __TCPIsConnected:0   0x00034f       data     extern F:\PIC-web\c18\PIC-WEB-5-42-UEXT-full\Microchip\TCPIP Stack\TCP.c
                     hTCP   0x00034f       data     static F:\PIC-web\c18\PIC-WEB-5-42-UEXT-full\Microchip\TCPIP Stack\TCP.c
                     hTCP   0x000350       data     static F:\PIC-web\c18\PIC-WEB-5-42-UEXT-full\Microchip\TCPIP Stack\TCP.c
        __TCPDisconnect:0   0x000350       data     extern F:\PIC-web\c18\PIC-WEB-5-42-UEXT-full\Microchip\TCPIP Stack\TCP.c
                     hTCP   0x000351       data     static F:\PIC-web\c18\PIC-WEB-5-42-UEXT-full\Microchip\TCPIP Stack\TCP.c
             __TCPClose:0   0x000351       data     extern F:\PIC-web\c18\PIC-WEB-5-42-UEXT-full\Microchip\TCPIP Stack\TCP.c
                     hTCP   0x000352       data     static F:\PIC-web\c18\PIC-WEB-5-42-UEXT-full\Microchip\TCPIP Stack\TCP.c
     __TCPGetRemoteInfo:0   0x000352       data     extern F:\PIC-web\c18\PIC-WEB-5-42-UEXT-full\Microchip\TCPIP Stack\TCP.c
               RemoteInfo   0x000353       data     static F:\PIC-web\c18\PIC-WEB-5-42-UEXT-full\Microchip\TCPIP Stack\TCP.c
                     hTCP   0x00035f       data     static F:\PIC-web\c18\PIC-WEB-5-42-UEXT-full\Microchip\TCPIP Stack\TCP.c
             __TCPFlush:0   0x00035f       data     extern F:\PIC-web\c18\PIC-WEB-5-42-UEXT-full\Microchip\TCPIP Stack\TCP.c
                     hTCP   0x000360       data     static F:\PIC-web\c18\PIC-WEB-5-42-UEXT-full\Microchip\TCPIP Stack\TCP.c
        __TCPIsPutReady:0   0x000360       data     extern F:\PIC-web\c18\PIC-WEB-5-42-UEXT-full\Microchip\TCPIP Stack\TCP.c
                     hTCP   0x000361       data     static F:\PIC-web\c18\PIC-WEB-5-42-UEXT-full\Microchip\TCPIP Stack\TCP.c
               __TCPPut:0   0x000361       data     extern F:\PIC-web\c18\PIC-WEB-5-42-UEXT-full\Microchip\TCPIP Stack\TCP.c
                     byte   0x000362       data     static F:\PIC-web\c18\PIC-WEB-5-42-UEXT-full\Microchip\TCPIP Stack\TCP.c
               __TCPPut:1   0x000362       data     extern F:\PIC-web\c18\PIC-WEB-5-42-UEXT-full\Microchip\TCPIP Stack\TCP.c
                     hTCP   0x000363       data     static F:\PIC-web\c18\PIC-WEB-5-42-UEXT-full\Microchip\TCPIP Stack\TCP.c
          __TCPPutArray:0   0x000363       data     extern F:\PIC-web\c18\PIC-WEB-5-42-UEXT-full\Microchip\TCPIP Stack\TCP.c
          __TCPPutArray:1   0x000364       data     extern F:\PIC-web\c18\PIC-WEB-5-42-UEXT-full\Microchip\TCPIP Stack\TCP.c
                     data   0x000364       data     static F:\PIC-web\c18\PIC-WEB-5-42-UEXT-full\Microchip\TCPIP Stack\TCP.c
                      len   0x000366       data     static F:\PIC-web\c18\PIC-WEB-5-42-UEXT-full\Microchip\TCPIP Stack\TCP.c
          __TCPPutArray:2   0x000366       data     extern F:\PIC-web\c18\PIC-WEB-5-42-UEXT-full\Microchip\TCPIP Stack\TCP.c
       __TCPPutROMArray:0   0x000368       data     extern F:\PIC-web\c18\PIC-WEB-5-42-UEXT-full\Microchip\TCPIP Stack\TCP.c
                     hTCP   0x000368       data     static F:\PIC-web\c18\PIC-WEB-5-42-UEXT-full\Microchip\TCPIP Stack\TCP.c
                     data   0x000369       data     static F:\PIC-web\c18\PIC-WEB-5-42-UEXT-full\Microchip\TCPIP Stack\TCP.c
       __TCPPutROMArray:1   0x000369       data     extern F:\PIC-web\c18\PIC-WEB-5-42-UEXT-full\Microchip\TCPIP Stack\TCP.c
                      len   0x00036c       data     static F:\PIC-web\c18\PIC-WEB-5-42-UEXT-full\Microchip\TCPIP Stack\TCP.c
       __TCPPutROMArray:2   0x00036c       data     extern F:\PIC-web\c18\PIC-WEB-5-42-UEXT-full\Microchip\TCPIP Stack\TCP.c
         __TCPPutString:0   0x00036e       data     extern F:\PIC-web\c18\PIC-WEB-5-42-UEXT-full\Microchip\TCPIP Stack\TCP.c
                     hTCP   0x00036e       data     static F:\PIC-web\c18\PIC-WEB-5-42-UEXT-full\Microchip\TCPIP Stack\TCP.c
         __TCPPutString:1   0x00036f       data     extern F:\PIC-web\c18\PIC-WEB-5-42-UEXT-full\Microchip\TCPIP Stack\TCP.c
                     data   0x00036f       data     static F:\PIC-web\c18\PIC-WEB-5-42-UEXT-full\Microchip\TCPIP Stack\TCP.c
                     hTCP   0x000371       data     static F:\PIC-web\c18\PIC-WEB-5-42-UEXT-full\Microchip\TCPIP Stack\TCP.c
      __TCPPutROMString:0   0x000371       data     extern F:\PIC-web\c18\PIC-WEB-5-42-UEXT-full\Microchip\TCPIP Stack\TCP.c
                     data   0x000372       data     static F:\PIC-web\c18\PIC-WEB-5-42-UEXT-full\Microchip\TCPIP Stack\TCP.c
      __TCPPutROMString:1   0x000372       data     extern F:\PIC-web\c18\PIC-WEB-5-42-UEXT-full\Microchip\TCPIP Stack\TCP.c
                     hTCP   0x000375       data     static F:\PIC-web\c18\PIC-WEB-5-42-UEXT-full\Microchip\TCPIP Stack\TCP.c
     __TCPGetTxFIFOFull:0   0x000375       data     extern F:\PIC-web\c18\PIC-WEB-5-42-UEXT-full\Microchip\TCPIP Stack\TCP.c
                     hTCP   0x000376       data     static F:\PIC-web\c18\PIC-WEB-5-42-UEXT-full\Microchip\TCPIP Stack\TCP.c
           __TCPDiscard:0   0x000376       data     extern F:\PIC-web\c18\PIC-WEB-5-42-UEXT-full\Microchip\TCPIP Stack\TCP.c
        __TCPIsGetReady:0   0x000377       data     extern F:\PIC-web\c18\PIC-WEB-5-42-UEXT-full\Microchip\TCPIP Stack\TCP.c
                     hTCP   0x000377       data     static F:\PIC-web\c18\PIC-WEB-5-42-UEXT-full\Microchip\TCPIP Stack\TCP.c
               __TCPGet:0   0x000378       data     extern F:\PIC-web\c18\PIC-WEB-5-42-UEXT-full\Microchip\TCPIP Stack\TCP.c
                     hTCP   0x000378       data     static F:\PIC-web\c18\PIC-WEB-5-42-UEXT-full\Microchip\TCPIP Stack\TCP.c
               __TCPGet:1   0x000379       data     extern F:\PIC-web\c18\PIC-WEB-5-42-UEXT-full\Microchip\TCPIP Stack\TCP.c
                     byte   0x000379       data     static F:\PIC-web\c18\PIC-WEB-5-42-UEXT-full\Microchip\TCPIP Stack\TCP.c
                     hTCP   0x00037b       data     static F:\PIC-web\c18\PIC-WEB-5-42-UEXT-full\Microchip\TCPIP Stack\TCP.c
          __TCPGetArray:0   0x00037b       data     extern F:\PIC-web\c18\PIC-WEB-5-42-UEXT-full\Microchip\TCPIP Stack\TCP.c
                   buffer   0x00037c       data     static F:\PIC-web\c18\PIC-WEB-5-42-UEXT-full\Microchip\TCPIP Stack\TCP.c
          __TCPGetArray:1   0x00037c       data     extern F:\PIC-web\c18\PIC-WEB-5-42-UEXT-full\Microchip\TCPIP Stack\TCP.c
                      len   0x00037e       data     static F:\PIC-web\c18\PIC-WEB-5-42-UEXT-full\Microchip\TCPIP Stack\TCP.c
          __TCPGetArray:2   0x00037e       data     extern F:\PIC-web\c18\PIC-WEB-5-42-UEXT-full\Microchip\TCPIP Stack\TCP.c
     __TCPGetRxFIFOFree:0   0x000380       data     extern F:\PIC-web\c18\PIC-WEB-5-42-UEXT-full\Microchip\TCPIP Stack\TCP.c
                     hTCP   0x000380       data     static F:\PIC-web\c18\PIC-WEB-5-42-UEXT-full\Microchip\TCPIP Stack\TCP.c
                     hTCP   0x000381       data     static F:\PIC-web\c18\PIC-WEB-5-42-UEXT-full\Microchip\TCPIP Stack\TCP.c
         __TCPPeekArray:0   0x000381       data     extern F:\PIC-web\c18\PIC-WEB-5-42-UEXT-full\Microchip\TCPIP Stack\TCP.c
         __TCPPeekArray:1   0x000382       data     extern F:\PIC-web\c18\PIC-WEB-5-42-UEXT-full\Microchip\TCPIP Stack\TCP.c
                  vBuffer   0x000382       data     static F:\PIC-web\c18\PIC-WEB-5-42-UEXT-full\Microchip\TCPIP Stack\TCP.c
                     wLen   0x000384       data     static F:\PIC-web\c18\PIC-WEB-5-42-UEXT-full\Microchip\TCPIP Stack\TCP.c
         __TCPPeekArray:2   0x000384       data     extern F:\PIC-web\c18\PIC-WEB-5-42-UEXT-full\Microchip\TCPIP Stack\TCP.c
                   wStart   0x000386       data     static F:\PIC-web\c18\PIC-WEB-5-42-UEXT-full\Microchip\TCPIP Stack\TCP.c
         __TCPPeekArray:3   0x000386       data     extern F:\PIC-web\c18\PIC-WEB-5-42-UEXT-full\Microchip\TCPIP Stack\TCP.c
              __TCPPeek:0   0x000388       data     extern F:\PIC-web\c18\PIC-WEB-5-42-UEXT-full\Microchip\TCPIP Stack\TCP.c
                     hTCP   0x000388       data     static F:\PIC-web\c18\PIC-WEB-5-42-UEXT-full\Microchip\TCPIP Stack\TCP.c
              __TCPPeek:1   0x000389       data     extern F:\PIC-web\c18\PIC-WEB-5-42-UEXT-full\Microchip\TCPIP Stack\TCP.c
                   wStart   0x000389       data     static F:\PIC-web\c18\PIC-WEB-5-42-UEXT-full\Microchip\TCPIP Stack\TCP.c
       __TCPFindArrayEx:0   0x00038b       data     extern F:\PIC-web\c18\PIC-WEB-5-42-UEXT-full\Microchip\TCPIP Stack\TCP.c
                     hTCP   0x00038b       data     static F:\PIC-web\c18\PIC-WEB-5-42-UEXT-full\Microchip\TCPIP Stack\TCP.c
               cFindArray   0x00038c       data     static F:\PIC-web\c18\PIC-WEB-5-42-UEXT-full\Microchip\TCPIP Stack\TCP.c
       __TCPFindArrayEx:1   0x00038c       data     extern F:\PIC-web\c18\PIC-WEB-5-42-UEXT-full\Microchip\TCPIP Stack\TCP.c
                     wLen   0x00038e       data     static F:\PIC-web\c18\PIC-WEB-5-42-UEXT-full\Microchip\TCPIP Stack\TCP.c
       __TCPFindArrayEx:2   0x00038e       data     extern F:\PIC-web\c18\PIC-WEB-5-42-UEXT-full\Microchip\TCPIP Stack\TCP.c
       __TCPFindArrayEx:3   0x000390       data     extern F:\PIC-web\c18\PIC-WEB-5-42-UEXT-full\Microchip\TCPIP Stack\TCP.c
                   wStart   0x000390       data     static F:\PIC-web\c18\PIC-WEB-5-42-UEXT-full\Microchip\TCPIP Stack\TCP.c
               wSearchLen   0x000392       data     static F:\PIC-web\c18\PIC-WEB-5-42-UEXT-full\Microchip\TCPIP Stack\TCP.c
       __TCPFindArrayEx:4   0x000392       data     extern F:\PIC-web\c18\PIC-WEB-5-42-UEXT-full\Microchip\TCPIP Stack\TCP.c
             bTextCompare   0x000394       data     static F:\PIC-web\c18\PIC-WEB-5-42-UEXT-full\Microchip\TCPIP Stack\TCP.c
       __TCPFindArrayEx:5   0x000394       data     extern F:\PIC-web\c18\PIC-WEB-5-42-UEXT-full\Microchip\TCPIP Stack\TCP.c
    __TCPFindROMArrayEx:0   0x000395       data     extern F:\PIC-web\c18\PIC-WEB-5-42-UEXT-full\Microchip\TCPIP Stack\TCP.c
                     hTCP   0x000395       data     static F:\PIC-web\c18\PIC-WEB-5-42-UEXT-full\Microchip\TCPIP Stack\TCP.c
               cFindArray   0x000396       data     static F:\PIC-web\c18\PIC-WEB-5-42-UEXT-full\Microchip\TCPIP Stack\TCP.c
    __TCPFindROMArrayEx:1   0x000396       data     extern F:\PIC-web\c18\PIC-WEB-5-42-UEXT-full\Microchip\TCPIP Stack\TCP.c
    __TCPFindROMArrayEx:2   0x000399       data     extern F:\PIC-web\c18\PIC-WEB-5-42-UEXT-full\Microchip\TCPIP Stack\TCP.c
                     wLen   0x000399       data     static F:\PIC-web\c18\PIC-WEB-5-42-UEXT-full\Microchip\TCPIP Stack\TCP.c
                   wStart   0x00039b       data     static F:\PIC-web\c18\PIC-WEB-5-42-UEXT-full\Microchip\TCPIP Stack\TCP.c
    __TCPFindROMArrayEx:3   0x00039b       data     extern F:\PIC-web\c18\PIC-WEB-5-42-UEXT-full\Microchip\TCPIP Stack\TCP.c
               wSearchLen   0x00039d       data     static F:\PIC-web\c18\PIC-WEB-5-42-UEXT-full\Microchip\TCPIP Stack\TCP.c
    __TCPFindROMArrayEx:4   0x00039d       data     extern F:\PIC-web\c18\PIC-WEB-5-42-UEXT-full\Microchip\TCPIP Stack\TCP.c
             bTextCompare   0x00039f       data     static F:\PIC-web\c18\PIC-WEB-5-42-UEXT-full\Microchip\TCPIP Stack\TCP.c
    __TCPFindROMArrayEx:5   0x00039f       data     extern F:\PIC-web\c18\PIC-WEB-5-42-UEXT-full\Microchip\TCPIP Stack\TCP.c
            __TCPFindEx:0   0x0003a0       data     extern F:\PIC-web\c18\PIC-WEB-5-42-UEXT-full\Microchip\TCPIP Stack\TCP.c
                     hTCP   0x0003a0       data     static F:\PIC-web\c18\PIC-WEB-5-42-UEXT-full\Microchip\TCPIP Stack\TCP.c
                    cFind   0x0003a1       data     static F:\PIC-web\c18\PIC-WEB-5-42-UEXT-full\Microchip\TCPIP Stack\TCP.c
            __TCPFindEx:1   0x0003a1       data     extern F:\PIC-web\c18\PIC-WEB-5-42-UEXT-full\Microchip\TCPIP Stack\TCP.c
                   wStart   0x0003a2       data     static F:\PIC-web\c18\PIC-WEB-5-42-UEXT-full\Microchip\TCPIP Stack\TCP.c
            __TCPFindEx:2   0x0003a2       data     extern F:\PIC-web\c18\PIC-WEB-5-42-UEXT-full\Microchip\TCPIP Stack\TCP.c
            __TCPFindEx:3   0x0003a4       data     extern F:\PIC-web\c18\PIC-WEB-5-42-UEXT-full\Microchip\TCPIP Stack\TCP.c
               wSearchLen   0x0003a4       data     static F:\PIC-web\c18\PIC-WEB-5-42-UEXT-full\Microchip\TCPIP Stack\TCP.c
             bTextCompare   0x0003a6       data     static F:\PIC-web\c18\PIC-WEB-5-42-UEXT-full\Microchip\TCPIP Stack\TCP.c
            __TCPFindEx:4   0x0003a6       data     extern F:\PIC-web\c18\PIC-WEB-5-42-UEXT-full\Microchip\TCPIP Stack\TCP.c
                   remote   0x0003a7       data     static F:\PIC-web\c18\PIC-WEB-5-42-UEXT-full\Microchip\TCPIP Stack\TCP.c
           __TCPProcess:0   0x0003a7       data     extern F:\PIC-web\c18\PIC-WEB-5-42-UEXT-full\Microchip\TCPIP Stack\TCP.c
           __TCPProcess:1   0x0003a9       data     extern F:\PIC-web\c18\PIC-WEB-5-42-UEXT-full\Microchip\TCPIP Stack\TCP.c
                  localIP   0x0003a9       data     static F:\PIC-web\c18\PIC-WEB-5-42-UEXT-full\Microchip\TCPIP Stack\TCP.c
           __TCPProcess:2   0x0003ab       data     extern F:\PIC-web\c18\PIC-WEB-5-42-UEXT-full\Microchip\TCPIP Stack\TCP.c
                      len   0x0003ab       data     static F:\PIC-web\c18\PIC-WEB-5-42-UEXT-full\Microchip\TCPIP Stack\TCP.c
              __SendTCP:0   0x0003ad       data     static F:\PIC-web\c18\PIC-WEB-5-42-UEXT-full\Microchip\TCPIP Stack\TCP.c
                vTCPFlags   0x0003ad       data     static F:\PIC-web\c18\PIC-WEB-5-42-UEXT-full\Microchip\TCPIP Stack\TCP.c
              __SendTCP:1   0x0003ae       data     static F:\PIC-web\c18\PIC-WEB-5-42-UEXT-full\Microchip\TCPIP Stack\TCP.c
               vSendFlags   0x0003ae       data     static F:\PIC-web\c18\PIC-WEB-5-42-UEXT-full\Microchip\TCPIP Stack\TCP.c
   __FindMatchingSocket:0   0x0003af       data     static F:\PIC-web\c18\PIC-WEB-5-42-UEXT-full\Microchip\TCPIP Stack\TCP.c
                        h   0x0003af       data     static F:\PIC-web\c18\PIC-WEB-5-42-UEXT-full\Microchip\TCPIP Stack\TCP.c
   __FindMatchingSocket:1   0x0003b1       data     static F:\PIC-web\c18\PIC-WEB-5-42-UEXT-full\Microchip\TCPIP Stack\TCP.c
                   remote   0x0003b1       data     static F:\PIC-web\c18\PIC-WEB-5-42-UEXT-full\Microchip\TCPIP Stack\TCP.c
        __SwapTCPHeader:0   0x0003b3       data     static F:\PIC-web\c18\PIC-WEB-5-42-UEXT-full\Microchip\TCPIP Stack\TCP.c
                   header   0x0003b3       data     static F:\PIC-web\c18\PIC-WEB-5-42-UEXT-full\Microchip\TCPIP Stack\TCP.c
                        h   0x0003b5       data     static F:\PIC-web\c18\PIC-WEB-5-42-UEXT-full\Microchip\TCPIP Stack\TCP.c
         __HandleTCPSeg:0   0x0003b5       data     static F:\PIC-web\c18\PIC-WEB-5-42-UEXT-full\Microchip\TCPIP Stack\TCP.c
         __HandleTCPSeg:1   0x0003b7       data     static F:\PIC-web\c18\PIC-WEB-5-42-UEXT-full\Microchip\TCPIP Stack\TCP.c
                      len   0x0003b7       data     static F:\PIC-web\c18\PIC-WEB-5-42-UEXT-full\Microchip\TCPIP Stack\TCP.c
    __TCPAdjustFIFOSize:0   0x0003b9       data     extern F:\PIC-web\c18\PIC-WEB-5-42-UEXT-full\Microchip\TCPIP Stack\TCP.c
                     hTCP   0x0003b9       data     static F:\PIC-web\c18\PIC-WEB-5-42-UEXT-full\Microchip\TCPIP Stack\TCP.c
               wMinRXSize   0x0003ba       data     static F:\PIC-web\c18\PIC-WEB-5-42-UEXT-full\Microchip\TCPIP Stack\TCP.c
    __TCPAdjustFIFOSize:1   0x0003ba       data     extern F:\PIC-web\c18\PIC-WEB-5-42-UEXT-full\Microchip\TCPIP Stack\TCP.c
               wMinTXSize   0x0003bc       data     static F:\PIC-web\c18\PIC-WEB-5-42-UEXT-full\Microchip\TCPIP Stack\TCP.c
    __TCPAdjustFIFOSize:2   0x0003bc       data     extern F:\PIC-web\c18\PIC-WEB-5-42-UEXT-full\Microchip\TCPIP Stack\TCP.c
                   vFlags   0x0003be       data     static F:\PIC-web\c18\PIC-WEB-5-42-UEXT-full\Microchip\TCPIP Stack\TCP.c
    __TCPAdjustFIFOSize:3   0x0003be       data     extern F:\PIC-web\c18\PIC-WEB-5-42-UEXT-full\Microchip\TCPIP Stack\TCP.c
                  ptrDest   0x0003bf       data     static F:\PIC-web\c18\PIC-WEB-5-42-UEXT-full\Microchip\TCPIP Stack\TCP.c
           __TCPRAMCopy:0   0x0003bf       data     static F:\PIC-web\c18\PIC-WEB-5-42-UEXT-full\Microchip\TCPIP Stack\TCP.c
           __TCPRAMCopy:1   0x0003c1       data     static F:\PIC-web\c18\PIC-WEB-5-42-UEXT-full\Microchip\TCPIP Stack\TCP.c
                vDestType   0x0003c1       data     static F:\PIC-web\c18\PIC-WEB-5-42-UEXT-full\Microchip\TCPIP Stack\TCP.c
                ptrSource   0x0003c2       data     static F:\PIC-web\c18\PIC-WEB-5-42-UEXT-full\Microchip\TCPIP Stack\TCP.c
           __TCPRAMCopy:2   0x0003c2       data     static F:\PIC-web\c18\PIC-WEB-5-42-UEXT-full\Microchip\TCPIP Stack\TCP.c
           __TCPRAMCopy:3   0x0003c4       data     static F:\PIC-web\c18\PIC-WEB-5-42-UEXT-full\Microchip\TCPIP Stack\TCP.c
              vSourceType   0x0003c4       data     static F:\PIC-web\c18\PIC-WEB-5-42-UEXT-full\Microchip\TCPIP Stack\TCP.c
           __TCPRAMCopy:4   0x0003c5       data     static F:\PIC-web\c18\PIC-WEB-5-42-UEXT-full\Microchip\TCPIP Stack\TCP.c
                  wLength   0x0003c5       data     static F:\PIC-web\c18\PIC-WEB-5-42-UEXT-full\Microchip\TCPIP Stack\TCP.c
        __TCPRAMCopyROM:0   0x0003c7       data     static F:\PIC-web\c18\PIC-WEB-5-42-UEXT-full\Microchip\TCPIP Stack\TCP.c
                    wDest   0x0003c7       data     static F:\PIC-web\c18\PIC-WEB-5-42-UEXT-full\Microchip\TCPIP Stack\TCP.c
        __TCPRAMCopyROM:1   0x0003c9       data     static F:\PIC-web\c18\PIC-WEB-5-42-UEXT-full\Microchip\TCPIP Stack\TCP.c
                wDestType   0x0003c9       data     static F:\PIC-web\c18\PIC-WEB-5-42-UEXT-full\Microchip\TCPIP Stack\TCP.c
                  wSource   0x0003ca       data     static F:\PIC-web\c18\PIC-WEB-5-42-UEXT-full\Microchip\TCPIP Stack\TCP.c
        __TCPRAMCopyROM:2   0x0003ca       data     static F:\PIC-web\c18\PIC-WEB-5-42-UEXT-full\Microchip\TCPIP Stack\TCP.c
        __TCPRAMCopyROM:3   0x0003cd       data     static F:\PIC-web\c18\PIC-WEB-5-42-UEXT-full\Microchip\TCPIP Stack\TCP.c
                  wLength   0x0003cd       data     static F:\PIC-web\c18\PIC-WEB-5-42-UEXT-full\Microchip\TCPIP Stack\TCP.c
               DHCPClient   0x0003cf       data     static F:\PIC-web\c18\PIC-WEB-5-42-UEXT-full\Microchip\TCPIP Stack\DHCP.c
             __DHCPInit:0   0x0003f7       data     extern F:\PIC-web\c18\PIC-WEB-5-42-UEXT-full\Microchip\TCPIP Stack\DHCP.c
               vInterface   0x0003f7       data     static F:\PIC-web\c18\PIC-WEB-5-42-UEXT-full\Microchip\TCPIP Stack\DHCP.c
               vInterface   0x0003f8       data     static F:\PIC-web\c18\PIC-WEB-5-42-UEXT-full\Microchip\TCPIP Stack\DHCP.c
          __DHCPDisable:0   0x0003f8       data     extern F:\PIC-web\c18\PIC-WEB-5-42-UEXT-full\Microchip\TCPIP Stack\DHCP.c
           __DHCPEnable:0   0x0003f9       data     extern F:\PIC-web\c18\PIC-WEB-5-42-UEXT-full\Microchip\TCPIP Stack\DHCP.c
               vInterface   0x0003f9       data     static F:\PIC-web\c18\PIC-WEB-5-42-UEXT-full\Microchip\TCPIP Stack\DHCP.c
        __DHCPIsEnabled:0   0x0003fa       data     extern F:\PIC-web\c18\PIC-WEB-5-42-UEXT-full\Microchip\TCPIP Stack\DHCP.c
               vInterface   0x0003fa       data     static F:\PIC-web\c18\PIC-WEB-5-42-UEXT-full\Microchip\TCPIP Stack\DHCP.c
          __DHCPIsBound:0   0x0003fb       data     extern F:\PIC-web\c18\PIC-WEB-5-42-UEXT-full\Microchip\TCPIP Stack\DHCP.c
               vInterface   0x0003fb       data     static F:\PIC-web\c18\PIC-WEB-5-42-UEXT-full\Microchip\TCPIP Stack\DHCP.c
     __DHCPStateChanged:0   0x0003fc       data     extern F:\PIC-web\c18\PIC-WEB-5-42-UEXT-full\Microchip\TCPIP Stack\DHCP.c
               vInterface   0x0003fc       data     static F:\PIC-web\c18\PIC-WEB-5-42-UEXT-full\Microchip\TCPIP Stack\DHCP.c
 __DHCPIsServerDetected:0   0x0003fd       data     extern F:\PIC-web\c18\PIC-WEB-5-42-UEXT-full\Microchip\TCPIP Stack\DHCP.c
               vInterface   0x0003fd       data     static F:\PIC-web\c18\PIC-WEB-5-42-UEXT-full\Microchip\TCPIP Stack\DHCP.c
              messageType   0x0003fe       data     static F:\PIC-web\c18\PIC-WEB-5-42-UEXT-full\Microchip\TCPIP Stack\DHCP.c
            ___DHCPSend:0   0x0003fe       data     static F:\PIC-web\c18\PIC-WEB-5-42-UEXT-full\Microchip\TCPIP Stack\DHCP.c
                bRenewing   0x0003ff       data     static F:\PIC-web\c18\PIC-WEB-5-42-UEXT-full\Microchip\TCPIP Stack\DHCP.c
            ___DHCPSend:1   0x0003ff       data     static F:\PIC-web\c18\PIC-WEB-5-42-UEXT-full\Microchip\TCPIP Stack\DHCP.c
                  curHTTP   0x000400       data     extern F:\PIC-web\c18\PIC-WEB-5-42-UEXT-full\Microchip\TCPIP Stack\HTTP2.c
                httpStubs   0x00047f       data     extern F:\PIC-web\c18\PIC-WEB-5-42-UEXT-full\Microchip\TCPIP Stack\HTTP2.c
                curHTTPID   0x000483       data     extern F:\PIC-web\c18\PIC-WEB-5-42-UEXT-full\Microchip\TCPIP Stack\HTTP2.c
               DhcpIpPool   0x000484       data     extern F:\PIC-web\c18\PIC-WEB-5-42-UEXT-full\Microchip\TCPIP Stack\DHCPs.c
            DHCPNextLease   0x0004de       data     static F:\PIC-web\c18\PIC-WEB-5-42-UEXT-full\Microchip\TCPIP Stack\DHCPs.c
                   Header   0x0004e2       data     static F:\PIC-web\c18\PIC-WEB-5-42-UEXT-full\Microchip\TCPIP Stack\DHCPs.c
 __DHCPReplyToDiscovery:0   0x0004e2       data     static F:\PIC-web\c18\PIC-WEB-5-42-UEXT-full\Microchip\TCPIP Stack\DHCPs.c
                   Header   0x0004e4       data     static F:\PIC-web\c18\PIC-WEB-5-42-UEXT-full\Microchip\TCPIP Stack\DHCPs.c
   __DHCPReplyToRequest:0   0x0004e4       data     static F:\PIC-web\c18\PIC-WEB-5-42-UEXT-full\Microchip\TCPIP Stack\DHCPs.c
   __DHCPReplyToRequest:1   0x0004e6       data     static F:\PIC-web\c18\PIC-WEB-5-42-UEXT-full\Microchip\TCPIP Stack\DHCPs.c
                  bAccept   0x0004e6       data     static F:\PIC-web\c18\PIC-WEB-5-42-UEXT-full\Microchip\TCPIP Stack\DHCPs.c
   __DHCPReplyToRequest:2   0x0004e7       data     static F:\PIC-web\c18\PIC-WEB-5-42-UEXT-full\Microchip\TCPIP Stack\DHCPs.c
                   bRenew   0x0004e7       data     static F:\PIC-web\c18\PIC-WEB-5-42-UEXT-full\Microchip\TCPIP Stack\DHCPs.c
__getIndexByMacaddr_DhcpPool:0   0x0004e8       data     static F:\PIC-web\c18\PIC-WEB-5-42-UEXT-full\Microchip\TCPIP Stack\DHCPs.c
                  MacAddr   0x0004e8       data     static F:\PIC-web\c18\PIC-WEB-5-42-UEXT-full\Microchip\TCPIP Stack\DHCPs.c
                   ipaddr   0x0004ea       data     static F:\PIC-web\c18\PIC-WEB-5-42-UEXT-full\Microchip\TCPIP Stack\DHCPs.c
       __isIpAddrInPool:0   0x0004ea       data     static F:\PIC-web\c18\PIC-WEB-5-42-UEXT-full\Microchip\TCPIP Stack\DHCPs.c
                    index   0x0004ee       data     static F:\PIC-web\c18\PIC-WEB-5-42-UEXT-full\Microchip\TCPIP Stack\DHCPs.c
__GetIPAddrFromIndex_DhcpPool:0   0x0004ee       data     static F:\PIC-web\c18\PIC-WEB-5-42-UEXT-full\Microchip\TCPIP Stack\DHCPs.c
     __Compare_MAC_addr:0   0x0004ef       data     static F:\PIC-web\c18\PIC-WEB-5-42-UEXT-full\Microchip\TCPIP Stack\DHCPs.c
                 macAddr1   0x0004ef       data     static F:\PIC-web\c18\PIC-WEB-5-42-UEXT-full\Microchip\TCPIP Stack\DHCPs.c
     __Compare_MAC_addr:1   0x0004f1       data     static F:\PIC-web\c18\PIC-WEB-5-42-UEXT-full\Microchip\TCPIP Stack\DHCPs.c
                 macAddr2   0x0004f1       data     static F:\PIC-web\c18\PIC-WEB-5-42-UEXT-full\Microchip\TCPIP Stack\DHCPs.c
                  macAddr   0x0004f3       data     static F:\PIC-web\c18\PIC-WEB-5-42-UEXT-full\Microchip\TCPIP Stack\DHCPs.c
  __isMacAddr_Effective:0   0x0004f3       data     static F:\PIC-web\c18\PIC-WEB-5-42-UEXT-full\Microchip\TCPIP Stack\DHCPs.c
                   Header   0x0004f5       data     static F:\PIC-web\c18\PIC-WEB-5-42-UEXT-full\Microchip\TCPIP Stack\DHCPs.c
__preAssign_ToDHCPClient_FromPool:0   0x0004f5       data     static F:\PIC-web\c18\PIC-WEB-5-42-UEXT-full\Microchip\TCPIP Stack\DHCPs.c
                  macAddr   0x0004f7       data     static F:\PIC-web\c18\PIC-WEB-5-42-UEXT-full\Microchip\TCPIP Stack\DHCPs.c
__postAssign_ToDHCPClient_FromPool:0   0x0004f7       data     static F:\PIC-web\c18\PIC-WEB-5-42-UEXT-full\Microchip\TCPIP Stack\DHCPs.c
                 ipv4Addr   0x0004f9       data     static F:\PIC-web\c18\PIC-WEB-5-42-UEXT-full\Microchip\TCPIP Stack\DHCPs.c
__postAssign_ToDHCPClient_FromPool:1   0x0004f9       data     static F:\PIC-web\c18\PIC-WEB-5-42-UEXT-full\Microchip\TCPIP Stack\DHCPs.c
                 MySocket   0x0004fb       data     static F:\PIC-web\c18\PIC-WEB-5-42-UEXT-full\Microchip\TCPIP Stack\NBNS.c
                   String   0x0004fc       data     static F:\PIC-web\c18\PIC-WEB-5-42-UEXT-full\Microchip\TCPIP Stack\NBNS.c
          __NBNSPutName:0   0x0004fc       data     static F:\PIC-web\c18\PIC-WEB-5-42-UEXT-full\Microchip\TCPIP Stack\NBNS.c
                   String   0x0004fe       data     static F:\PIC-web\c18\PIC-WEB-5-42-UEXT-full\Microchip\TCPIP Stack\NBNS.c
          __NBNSGetName:0   0x0004fe       data     static F:\PIC-web\c18\PIC-WEB-5-42-UEXT-full\Microchip\TCPIP Stack\NBNS.c
              sendRequest   0x000500       data     static F:\PIC-web\c18\PIC-WEB-5-42-UEXT-full\TCPIP\Demo App\BerkeleyTCPClientDemo.c
           BSDClientState   0x00056d       data     static F:\PIC-web\c18\PIC-WEB-5-42-UEXT-full\TCPIP\Demo App\BerkeleyTCPClientDemo.c
                lastBlock   0x00056e       data     extern F:\PIC-web\c18\PIC-WEB-5-42-UEXT-full\Microchip\TCPIP Stack\Hashes.c
          __HashAddData:0   0x0005ae       data     extern F:\PIC-web\c18\PIC-WEB-5-42-UEXT-full\Microchip\TCPIP Stack\Hashes.c
                   theSum   0x0005ae       data     static F:\PIC-web\c18\PIC-WEB-5-42-UEXT-full\Microchip\TCPIP Stack\Hashes.c
          __HashAddData:1   0x0005b0       data     extern F:\PIC-web\c18\PIC-WEB-5-42-UEXT-full\Microchip\TCPIP Stack\Hashes.c
                     data   0x0005b0       data     static F:\PIC-web\c18\PIC-WEB-5-42-UEXT-full\Microchip\TCPIP Stack\Hashes.c
                      len   0x0005b2       data     static F:\PIC-web\c18\PIC-WEB-5-42-UEXT-full\Microchip\TCPIP Stack\Hashes.c
          __HashAddData:2   0x0005b2       data     extern F:\PIC-web\c18\PIC-WEB-5-42-UEXT-full\Microchip\TCPIP Stack\Hashes.c
       __HashAddROMData:0   0x0005b4       data     extern F:\PIC-web\c18\PIC-WEB-5-42-UEXT-full\Microchip\TCPIP Stack\Hashes.c
                   theSum   0x0005b4       data     static F:\PIC-web\c18\PIC-WEB-5-42-UEXT-full\Microchip\TCPIP Stack\Hashes.c
                     data   0x0005b6       data     static F:\PIC-web\c18\PIC-WEB-5-42-UEXT-full\Microchip\TCPIP Stack\Hashes.c
       __HashAddROMData:1   0x0005b6       data     extern F:\PIC-web\c18\PIC-WEB-5-42-UEXT-full\Microchip\TCPIP Stack\Hashes.c
       __HashAddROMData:2   0x0005b9       data     extern F:\PIC-web\c18\PIC-WEB-5-42-UEXT-full\Microchip\TCPIP Stack\Hashes.c
                      len   0x0005b9       data     static F:\PIC-web\c18\PIC-WEB-5-42-UEXT-full\Microchip\TCPIP Stack\Hashes.c
                   theSum   0x0005bb       data     static F:\PIC-web\c18\PIC-WEB-5-42-UEXT-full\Microchip\TCPIP Stack\Hashes.c
        __MD5Initialize:0   0x0005bb       data     extern F:\PIC-web\c18\PIC-WEB-5-42-UEXT-full\Microchip\TCPIP Stack\Hashes.c
                   theSum   0x0005bd       data     static F:\PIC-web\c18\PIC-WEB-5-42-UEXT-full\Microchip\TCPIP Stack\Hashes.c
           __MD5AddData:0   0x0005bd       data     extern F:\PIC-web\c18\PIC-WEB-5-42-UEXT-full\Microchip\TCPIP Stack\Hashes.c
                     data   0x0005bf       data     static F:\PIC-web\c18\PIC-WEB-5-42-UEXT-full\Microchip\TCPIP Stack\Hashes.c
           __MD5AddData:1   0x0005bf       data     extern F:\PIC-web\c18\PIC-WEB-5-42-UEXT-full\Microchip\TCPIP Stack\Hashes.c
                      len   0x0005c1       data     static F:\PIC-web\c18\PIC-WEB-5-42-UEXT-full\Microchip\TCPIP Stack\Hashes.c
           __MD5AddData:2   0x0005c1       data     extern F:\PIC-web\c18\PIC-WEB-5-42-UEXT-full\Microchip\TCPIP Stack\Hashes.c
                   theSum   0x0005c3       data     static F:\PIC-web\c18\PIC-WEB-5-42-UEXT-full\Microchip\TCPIP Stack\Hashes.c
        __MD5AddROMData:0   0x0005c3       data     extern F:\PIC-web\c18\PIC-WEB-5-42-UEXT-full\Microchip\TCPIP Stack\Hashes.c
                     data   0x0005c5       data     static F:\PIC-web\c18\PIC-WEB-5-42-UEXT-full\Microchip\TCPIP Stack\Hashes.c
        __MD5AddROMData:1   0x0005c5       data     extern F:\PIC-web\c18\PIC-WEB-5-42-UEXT-full\Microchip\TCPIP Stack\Hashes.c
        __MD5AddROMData:2   0x0005c8       data     extern F:\PIC-web\c18\PIC-WEB-5-42-UEXT-full\Microchip\TCPIP Stack\Hashes.c
                      len   0x0005c8       data     static F:\PIC-web\c18\PIC-WEB-5-42-UEXT-full\Microchip\TCPIP Stack\Hashes.c
         __MD5HashBlock:0   0x0005ca       data     static F:\PIC-web\c18\PIC-WEB-5-42-UEXT-full\Microchip\TCPIP Stack\Hashes.c
                     data   0x0005ca       data     static F:\PIC-web\c18\PIC-WEB-5-42-UEXT-full\Microchip\TCPIP Stack\Hashes.c
                       h0   0x0005cc       data     static F:\PIC-web\c18\PIC-WEB-5-42-UEXT-full\Microchip\TCPIP Stack\Hashes.c
         __MD5HashBlock:1   0x0005cc       data     static F:\PIC-web\c18\PIC-WEB-5-42-UEXT-full\Microchip\TCPIP Stack\Hashes.c
                       h1   0x0005ce       data     static F:\PIC-web\c18\PIC-WEB-5-42-UEXT-full\Microchip\TCPIP Stack\Hashes.c
         __MD5HashBlock:2   0x0005ce       data     static F:\PIC-web\c18\PIC-WEB-5-42-UEXT-full\Microchip\TCPIP Stack\Hashes.c
                       h2   0x0005d0       data     static F:\PIC-web\c18\PIC-WEB-5-42-UEXT-full\Microchip\TCPIP Stack\Hashes.c
         __MD5HashBlock:3   0x0005d0       data     static F:\PIC-web\c18\PIC-WEB-5-42-UEXT-full\Microchip\TCPIP Stack\Hashes.c
                       h3   0x0005d2       data     static F:\PIC-web\c18\PIC-WEB-5-42-UEXT-full\Microchip\TCPIP Stack\Hashes.c
         __MD5HashBlock:4   0x0005d2       data     static F:\PIC-web\c18\PIC-WEB-5-42-UEXT-full\Microchip\TCPIP Stack\Hashes.c
         __MD5Calculate:0   0x0005d4       data     extern F:\PIC-web\c18\PIC-WEB-5-42-UEXT-full\Microchip\TCPIP Stack\Hashes.c
                   theSum   0x0005d4       data     static F:\PIC-web\c18\PIC-WEB-5-42-UEXT-full\Microchip\TCPIP Stack\Hashes.c
         __MD5Calculate:1   0x0005d6       data     extern F:\PIC-web\c18\PIC-WEB-5-42-UEXT-full\Microchip\TCPIP Stack\Hashes.c
                   result   0x0005d6       data     static F:\PIC-web\c18\PIC-WEB-5-42-UEXT-full\Microchip\TCPIP Stack\Hashes.c
                    Cache   0x0005d8       data     static F:\PIC-web\c18\PIC-WEB-5-42-UEXT-full\Microchip\TCPIP Stack\ARP.c
           __ARPSendPkt:0   0x0005e2       data     extern F:\PIC-web\c18\PIC-WEB-5-42-UEXT-full\Microchip\TCPIP Stack\ARP.c
                SrcIPAddr   0x0005e2       data     static F:\PIC-web\c18\PIC-WEB-5-42-UEXT-full\Microchip\TCPIP Stack\ARP.c
               DestIPAddr   0x0005e6       data     static F:\PIC-web\c18\PIC-WEB-5-42-UEXT-full\Microchip\TCPIP Stack\ARP.c
           __ARPSendPkt:1   0x0005e6       data     extern F:\PIC-web\c18\PIC-WEB-5-42-UEXT-full\Microchip\TCPIP Stack\ARP.c
           __ARPSendPkt:2   0x0005ea       data     extern F:\PIC-web\c18\PIC-WEB-5-42-UEXT-full\Microchip\TCPIP Stack\ARP.c
                   op_req   0x0005ea       data     static F:\PIC-web\c18\PIC-WEB-5-42-UEXT-full\Microchip\TCPIP Stack\ARP.c
                   packet   0x0005eb       data     static F:\PIC-web\c18\PIC-WEB-5-42-UEXT-full\Microchip\TCPIP Stack\ARP.c
               __ARPPut:0   0x0005eb       data     static F:\PIC-web\c18\PIC-WEB-5-42-UEXT-full\Microchip\TCPIP Stack\ARP.c
                   Target   0x0005ed       data     static F:\PIC-web\c18\PIC-WEB-5-42-UEXT-full\Microchip\TCPIP Stack\ARP.c
           __ARPResolve:0   0x0005f7       data     extern F:\PIC-web\c18\PIC-WEB-5-42-UEXT-full\Microchip\TCPIP Stack\ARP.c
                   IPAddr   0x0005f7       data     static F:\PIC-web\c18\PIC-WEB-5-42-UEXT-full\Microchip\TCPIP Stack\ARP.c
        __ARPIsResolved:0   0x0005f9       data     extern F:\PIC-web\c18\PIC-WEB-5-42-UEXT-full\Microchip\TCPIP Stack\ARP.c
                   IPAddr   0x0005f9       data     static F:\PIC-web\c18\PIC-WEB-5-42-UEXT-full\Microchip\TCPIP Stack\ARP.c
        __ARPIsResolved:1   0x0005fb       data     extern F:\PIC-web\c18\PIC-WEB-5-42-UEXT-full\Microchip\TCPIP Stack\ARP.c
                  MACAddr   0x0005fb       data     static F:\PIC-web\c18\PIC-WEB-5-42-UEXT-full\Microchip\TCPIP Stack\ARP.c
                        p   0x0005fd       data     static F:\PIC-web\c18\PIC-WEB-5-42-UEXT-full\Microchip\TCPIP Stack\ARP.c
        __SwapARPPacket:0   0x0005fd       data     extern F:\PIC-web\c18\PIC-WEB-5-42-UEXT-full\Microchip\TCPIP Stack\ARP.c
                 MySocket   0x0005ff       data     static F:\PIC-web\c18\PIC-WEB-5-42-UEXT-full\TCPIP\Demo App\GenericTCPServer.c
              vUARTRXFIFO   0x000600       data     static F:\PIC-web\c18\PIC-WEB-5-42-UEXT-full\Microchip\TCPIP Stack\UART2TCPBridge.c
              vUARTTXFIFO   0x000641       data     static F:\PIC-web\c18\PIC-WEB-5-42-UEXT-full\Microchip\TCPIP Stack\UART2TCPBridge.c
                        i   0x000652       data     static F:\PIC-web\c18\PIC-WEB-5-42-UEXT-full\Microchip\TCPIP Stack\UART2TCPBridge.c
           BSDSocketArray   0x000653       data     static F:\PIC-web\c18\PIC-WEB-5-42-UEXT-full\Microchip\TCPIP Stack\BerkeleyAPI.c
                   dwSeed   0x00069e       data     static F:\PIC-web\c18\PIC-WEB-5-42-UEXT-full\Microchip\TCPIP Stack\Helpers.c
         __LFSRSeedRand:0   0x00069e       data     extern F:\PIC-web\c18\PIC-WEB-5-42-UEXT-full\Microchip\TCPIP Stack\Helpers.c
                      str   0x0006a2       data     static F:\PIC-web\c18\PIC-WEB-5-42-UEXT-full\Microchip\TCPIP Stack\Helpers.c
    __StringToIPAddress:0   0x0006a2       data     extern F:\PIC-web\c18\PIC-WEB-5-42-UEXT-full\Microchip\TCPIP Stack\Helpers.c
                IPAddress   0x0006a4       data     static F:\PIC-web\c18\PIC-WEB-5-42-UEXT-full\Microchip\TCPIP Stack\Helpers.c
    __StringToIPAddress:1   0x0006a4       data     extern F:\PIC-web\c18\PIC-WEB-5-42-UEXT-full\Microchip\TCPIP Stack\Helpers.c
                      str   0x0006a6       data     static F:\PIC-web\c18\PIC-WEB-5-42-UEXT-full\Microchip\TCPIP Stack\Helpers.c
 __ROMStringToIPAddress:0   0x0006a6       data     extern F:\PIC-web\c18\PIC-WEB-5-42-UEXT-full\Microchip\TCPIP Stack\Helpers.c
                IPAddress   0x0006a9       data     static F:\PIC-web\c18\PIC-WEB-5-42-UEXT-full\Microchip\TCPIP Stack\Helpers.c
 __ROMStringToIPAddress:1   0x0006a9       data     extern F:\PIC-web\c18\PIC-WEB-5-42-UEXT-full\Microchip\TCPIP Stack\Helpers.c
              cSourceData   0x0006ab       data     static F:\PIC-web\c18\PIC-WEB-5-42-UEXT-full\Microchip\TCPIP Stack\Helpers.c
         __Base64Decode:0   0x0006ab       data     extern F:\PIC-web\c18\PIC-WEB-5-42-UEXT-full\Microchip\TCPIP Stack\Helpers.c
         __Base64Decode:1   0x0006ad       data     extern F:\PIC-web\c18\PIC-WEB-5-42-UEXT-full\Microchip\TCPIP Stack\Helpers.c
               wSourceLen   0x0006ad       data     static F:\PIC-web\c18\PIC-WEB-5-42-UEXT-full\Microchip\TCPIP Stack\Helpers.c
         __Base64Decode:2   0x0006af       data     extern F:\PIC-web\c18\PIC-WEB-5-42-UEXT-full\Microchip\TCPIP Stack\Helpers.c
                cDestData   0x0006af       data     static F:\PIC-web\c18\PIC-WEB-5-42-UEXT-full\Microchip\TCPIP Stack\Helpers.c
                 wDestLen   0x0006b1       data     static F:\PIC-web\c18\PIC-WEB-5-42-UEXT-full\Microchip\TCPIP Stack\Helpers.c
         __Base64Decode:3   0x0006b1       data     extern F:\PIC-web\c18\PIC-WEB-5-42-UEXT-full\Microchip\TCPIP Stack\Helpers.c
         __Base64Encode:0   0x0006b3       data     extern F:\PIC-web\c18\PIC-WEB-5-42-UEXT-full\Microchip\TCPIP Stack\Helpers.c
              cSourceData   0x0006b3       data     static F:\PIC-web\c18\PIC-WEB-5-42-UEXT-full\Microchip\TCPIP Stack\Helpers.c
         __Base64Encode:1   0x0006b5       data     extern F:\PIC-web\c18\PIC-WEB-5-42-UEXT-full\Microchip\TCPIP Stack\Helpers.c
               wSourceLen   0x0006b5       data     static F:\PIC-web\c18\PIC-WEB-5-42-UEXT-full\Microchip\TCPIP Stack\Helpers.c
         __Base64Encode:2   0x0006b7       data     extern F:\PIC-web\c18\PIC-WEB-5-42-UEXT-full\Microchip\TCPIP Stack\Helpers.c
                cDestData   0x0006b7       data     static F:\PIC-web\c18\PIC-WEB-5-42-UEXT-full\Microchip\TCPIP Stack\Helpers.c
                 wDestLen   0x0006b9       data     static F:\PIC-web\c18\PIC-WEB-5-42-UEXT-full\Microchip\TCPIP Stack\Helpers.c
         __Base64Encode:3   0x0006b9       data     extern F:\PIC-web\c18\PIC-WEB-5-42-UEXT-full\Microchip\TCPIP Stack\Helpers.c
                    Value   0x0006bb       data     static F:\PIC-web\c18\PIC-WEB-5-42-UEXT-full\Microchip\TCPIP Stack\Helpers.c
                __uitoa:0   0x0006bb       data     extern F:\PIC-web\c18\PIC-WEB-5-42-UEXT-full\Microchip\TCPIP Stack\Helpers.c
                   Buffer   0x0006bd       data     static F:\PIC-web\c18\PIC-WEB-5-42-UEXT-full\Microchip\TCPIP Stack\Helpers.c
                __uitoa:1   0x0006bd       data     extern F:\PIC-web\c18\PIC-WEB-5-42-UEXT-full\Microchip\TCPIP Stack\Helpers.c
               AsciiChars   0x0006bf       data     static F:\PIC-web\c18\PIC-WEB-5-42-UEXT-full\Microchip\TCPIP Stack\Helpers.c
              __hexatob:0   0x0006bf       data     extern F:\PIC-web\c18\PIC-WEB-5-42-UEXT-full\Microchip\TCPIP Stack\Helpers.c
         __btohexa_high:0   0x0006c1       data     extern F:\PIC-web\c18\PIC-WEB-5-42-UEXT-full\Microchip\TCPIP Stack\Helpers.c
                        b   0x0006c1       data     static F:\PIC-web\c18\PIC-WEB-5-42-UEXT-full\Microchip\TCPIP Stack\Helpers.c
                        b   0x0006c2       data     static F:\PIC-web\c18\PIC-WEB-5-42-UEXT-full\Microchip\TCPIP Stack\Helpers.c
          __btohexa_low:0   0x0006c2       data     extern F:\PIC-web\c18\PIC-WEB-5-42-UEXT-full\Microchip\TCPIP Stack\Helpers.c
       __stricmppgm2ram:0   0x0006c3       data     extern F:\PIC-web\c18\PIC-WEB-5-42-UEXT-full\Microchip\TCPIP Stack\Helpers.c
                        a   0x0006c3       data     static F:\PIC-web\c18\PIC-WEB-5-42-UEXT-full\Microchip\TCPIP Stack\Helpers.c
       __stricmppgm2ram:1   0x0006c5       data     extern F:\PIC-web\c18\PIC-WEB-5-42-UEXT-full\Microchip\TCPIP Stack\Helpers.c
                        b   0x0006c5       data     static F:\PIC-web\c18\PIC-WEB-5-42-UEXT-full\Microchip\TCPIP Stack\Helpers.c
                        v   0x0006c8       data     static F:\PIC-web\c18\PIC-WEB-5-42-UEXT-full\Microchip\TCPIP Stack\Helpers.c
                __swaps:0   0x0006c8       data     extern F:\PIC-web\c18\PIC-WEB-5-42-UEXT-full\Microchip\TCPIP Stack\Helpers.c
                        v   0x0006ca       data     static F:\PIC-web\c18\PIC-WEB-5-42-UEXT-full\Microchip\TCPIP Stack\Helpers.c
                __swapl:0   0x0006ca       data     extern F:\PIC-web\c18\PIC-WEB-5-42-UEXT-full\Microchip\TCPIP Stack\Helpers.c
       __CalcIPChecksum:0   0x0006ce       data     extern F:\PIC-web\c18\PIC-WEB-5-42-UEXT-full\Microchip\TCPIP Stack\Helpers.c
                   buffer   0x0006ce       data     static F:\PIC-web\c18\PIC-WEB-5-42-UEXT-full\Microchip\TCPIP Stack\Helpers.c
       __CalcIPChecksum:1   0x0006d0       data     extern F:\PIC-web\c18\PIC-WEB-5-42-UEXT-full\Microchip\TCPIP Stack\Helpers.c
                    count   0x0006d0       data     static F:\PIC-web\c18\PIC-WEB-5-42-UEXT-full\Microchip\TCPIP Stack\Helpers.c
                 toRotate   0x0006d2       data     extern F:\PIC-web\c18\PIC-WEB-5-42-UEXT-full\Microchip\TCPIP Stack\Helpers.c
                      val   0x0006d6       data     static F:\PIC-web\c18\PIC-WEB-5-42-UEXT-full\Microchip\TCPIP Stack\Helpers.c
      __leftRotateDWORD:0   0x0006d6       data     extern F:\PIC-web\c18\PIC-WEB-5-42-UEXT-full\Microchip\TCPIP Stack\Helpers.c
      __leftRotateDWORD:1   0x0006da       data     extern F:\PIC-web\c18\PIC-WEB-5-42-UEXT-full\Microchip\TCPIP Stack\Helpers.c
                     bits   0x0006da       data     static F:\PIC-web\c18\PIC-WEB-5-42-UEXT-full\Microchip\TCPIP Stack\Helpers.c
                     Name   0x0006db       data     static F:\PIC-web\c18\PIC-WEB-5-42-UEXT-full\Microchip\TCPIP Stack\Helpers.c
    __FormatNetBIOSName:0   0x0006db       data     extern F:\PIC-web\c18\PIC-WEB-5-42-UEXT-full\Microchip\TCPIP Stack\Helpers.c
              __strnchr:0   0x0006dd       data     extern F:\PIC-web\c18\PIC-WEB-5-42-UEXT-full\Microchip\TCPIP Stack\Helpers.c
             searchString   0x0006dd       data     static F:\PIC-web\c18\PIC-WEB-5-42-UEXT-full\Microchip\TCPIP Stack\Helpers.c
              __strnchr:1   0x0006df       data     extern F:\PIC-web\c18\PIC-WEB-5-42-UEXT-full\Microchip\TCPIP Stack\Helpers.c
                    count   0x0006df       data     static F:\PIC-web\c18\PIC-WEB-5-42-UEXT-full\Microchip\TCPIP Stack\Helpers.c
              __strnchr:2   0x0006e1       data     extern F:\PIC-web\c18\PIC-WEB-5-42-UEXT-full\Microchip\TCPIP Stack\Helpers.c
                        c   0x0006e1       data     static F:\PIC-web\c18\PIC-WEB-5-42-UEXT-full\Microchip\TCPIP Stack\Helpers.c
            __strncpy_m:0   0x0006e2       data     extern F:\PIC-web\c18\PIC-WEB-5-42-UEXT-full\Microchip\TCPIP Stack\Helpers.c
                  destStr   0x0006e2       data     static F:\PIC-web\c18\PIC-WEB-5-42-UEXT-full\Microchip\TCPIP Stack\Helpers.c
            __strncpy_m:1   0x0006e4       data     extern F:\PIC-web\c18\PIC-WEB-5-42-UEXT-full\Microchip\TCPIP Stack\Helpers.c
                 destSize   0x0006e4       data     static F:\PIC-web\c18\PIC-WEB-5-42-UEXT-full\Microchip\TCPIP Stack\Helpers.c
                 nStrings   0x0006e6       data     static F:\PIC-web\c18\PIC-WEB-5-42-UEXT-full\Microchip\TCPIP Stack\Helpers.c
            __strncpy_m:2   0x0006e6       data     extern F:\PIC-web\c18\PIC-WEB-5-42-UEXT-full\Microchip\TCPIP Stack\Helpers.c
               ServerName   0x0006e8       data     static F:\PIC-web\c18\PIC-WEB-5-42-UEXT-full\TCPIP\Demo App\GenericTCPClient.c
               ServerPort   0x0006f7       data     static F:\PIC-web\c18\PIC-WEB-5-42-UEXT-full\TCPIP\Demo App\GenericTCPClient.c
                 MySocket   0x0006f9       data     static F:\PIC-web\c18\PIC-WEB-5-42-UEXT-full\TCPIP\Demo App\GenericTCPClient.c
   GenericTCPExampleState   0x0006fa       data     static F:\PIC-web\c18\PIC-WEB-5-42-UEXT-full\TCPIP\Demo App\GenericTCPClient.c
                 BaudRate   0x0006fb       data     static F:\PIC-web\c18\PIC-WEB-5-42-UEXT-full\TCPIP\Demo App\Olimex_Demo_Files\Custom_UART_Low.c
            __UART_Init:0   0x0006fb       data     extern F:\PIC-web\c18\PIC-WEB-5-42-UEXT-full\TCPIP\Demo App\Olimex_Demo_Files\Custom_UART_Low.c
        __UART_Transmit:0   0x0006ff       data     extern F:\PIC-web\c18\PIC-WEB-5-42-UEXT-full\TCPIP\Demo App\Olimex_Demo_Files\Custom_UART_Low.c
                     data   0x0006ff       data     static F:\PIC-web\c18\PIC-WEB-5-42-UEXT-full\TCPIP\Demo App\Olimex_Demo_Files\Custom_UART_Low.c
                MailState   0x000700       data     static F:\PIC-web\c18\PIC-WEB-5-42-UEXT-full\TCPIP\Demo App\SMTPDemo.c
              RAMStringTo   0x000701       data     static F:\PIC-web\c18\PIC-WEB-5-42-UEXT-full\TCPIP\Demo App\SMTPDemo.c
            RAMStringBody   0x000715       data     static F:\PIC-web\c18\PIC-WEB-5-42-UEXT-full\TCPIP\Demo App\SMTPDemo.c
                       af   0x000748       data     static F:\PIC-web\c18\PIC-WEB-5-42-UEXT-full\Microchip\TCPIP Stack\BerkeleyAPI.c
               __socket:0   0x000748       data     extern F:\PIC-web\c18\PIC-WEB-5-42-UEXT-full\Microchip\TCPIP Stack\BerkeleyAPI.c
                     type   0x00074a       data     static F:\PIC-web\c18\PIC-WEB-5-42-UEXT-full\Microchip\TCPIP Stack\BerkeleyAPI.c
               __socket:1   0x00074a       data     extern F:\PIC-web\c18\PIC-WEB-5-42-UEXT-full\Microchip\TCPIP Stack\BerkeleyAPI.c
               __socket:2   0x00074c       data     extern F:\PIC-web\c18\PIC-WEB-5-42-UEXT-full\Microchip\TCPIP Stack\BerkeleyAPI.c
                 protocol   0x00074c       data     static F:\PIC-web\c18\PIC-WEB-5-42-UEXT-full\Microchip\TCPIP Stack\BerkeleyAPI.c
                 __bind:0   0x00074e       data     extern F:\PIC-web\c18\PIC-WEB-5-42-UEXT-full\Microchip\TCPIP Stack\BerkeleyAPI.c
                        s   0x00074e       data     static F:\PIC-web\c18\PIC-WEB-5-42-UEXT-full\Microchip\TCPIP Stack\BerkeleyAPI.c
                 __bind:1   0x00074f       data     extern F:\PIC-web\c18\PIC-WEB-5-42-UEXT-full\Microchip\TCPIP Stack\BerkeleyAPI.c
                     name   0x00074f       data     static F:\PIC-web\c18\PIC-WEB-5-42-UEXT-full\Microchip\TCPIP Stack\BerkeleyAPI.c
                 __bind:2   0x000751       data     extern F:\PIC-web\c18\PIC-WEB-5-42-UEXT-full\Microchip\TCPIP Stack\BerkeleyAPI.c
                  namelen   0x000751       data     static F:\PIC-web\c18\PIC-WEB-5-42-UEXT-full\Microchip\TCPIP Stack\BerkeleyAPI.c
                        s   0x000753       data     static F:\PIC-web\c18\PIC-WEB-5-42-UEXT-full\Microchip\TCPIP Stack\BerkeleyAPI.c
               __listen:0   0x000753       data     extern F:\PIC-web\c18\PIC-WEB-5-42-UEXT-full\Microchip\TCPIP Stack\BerkeleyAPI.c
                  backlog   0x000754       data     static F:\PIC-web\c18\PIC-WEB-5-42-UEXT-full\Microchip\TCPIP Stack\BerkeleyAPI.c
               __listen:1   0x000754       data     extern F:\PIC-web\c18\PIC-WEB-5-42-UEXT-full\Microchip\TCPIP Stack\BerkeleyAPI.c
               __accept:0   0x000756       data     extern F:\PIC-web\c18\PIC-WEB-5-42-UEXT-full\Microchip\TCPIP Stack\BerkeleyAPI.c
                        s   0x000756       data     static F:\PIC-web\c18\PIC-WEB-5-42-UEXT-full\Microchip\TCPIP Stack\BerkeleyAPI.c
               __accept:1   0x000757       data     extern F:\PIC-web\c18\PIC-WEB-5-42-UEXT-full\Microchip\TCPIP Stack\BerkeleyAPI.c
                     addr   0x000757       data     static F:\PIC-web\c18\PIC-WEB-5-42-UEXT-full\Microchip\TCPIP Stack\BerkeleyAPI.c
                  addrlen   0x000759       data     static F:\PIC-web\c18\PIC-WEB-5-42-UEXT-full\Microchip\TCPIP Stack\BerkeleyAPI.c
               __accept:2   0x000759       data     extern F:\PIC-web\c18\PIC-WEB-5-42-UEXT-full\Microchip\TCPIP Stack\BerkeleyAPI.c
              __connect:0   0x00075b       data     extern F:\PIC-web\c18\PIC-WEB-5-42-UEXT-full\Microchip\TCPIP Stack\BerkeleyAPI.c
                        s   0x00075b       data     static F:\PIC-web\c18\PIC-WEB-5-42-UEXT-full\Microchip\TCPIP Stack\BerkeleyAPI.c
                     name   0x00075c       data     static F:\PIC-web\c18\PIC-WEB-5-42-UEXT-full\Microchip\TCPIP Stack\BerkeleyAPI.c
              __connect:1   0x00075c       data     extern F:\PIC-web\c18\PIC-WEB-5-42-UEXT-full\Microchip\TCPIP Stack\BerkeleyAPI.c
                  namelen   0x00075e       data     static F:\PIC-web\c18\PIC-WEB-5-42-UEXT-full\Microchip\TCPIP Stack\BerkeleyAPI.c
              __connect:2   0x00075e       data     extern F:\PIC-web\c18\PIC-WEB-5-42-UEXT-full\Microchip\TCPIP Stack\BerkeleyAPI.c
                 __send:0   0x000760       data     extern F:\PIC-web\c18\PIC-WEB-5-42-UEXT-full\Microchip\TCPIP Stack\BerkeleyAPI.c
                        s   0x000760       data     static F:\PIC-web\c18\PIC-WEB-5-42-UEXT-full\Microchip\TCPIP Stack\BerkeleyAPI.c
                 __send:1   0x000761       data     extern F:\PIC-web\c18\PIC-WEB-5-42-UEXT-full\Microchip\TCPIP Stack\BerkeleyAPI.c
                      buf   0x000761       data     static F:\PIC-web\c18\PIC-WEB-5-42-UEXT-full\Microchip\TCPIP Stack\BerkeleyAPI.c
                 __send:2   0x000763       data     extern F:\PIC-web\c18\PIC-WEB-5-42-UEXT-full\Microchip\TCPIP Stack\BerkeleyAPI.c
                      len   0x000763       data     static F:\PIC-web\c18\PIC-WEB-5-42-UEXT-full\Microchip\TCPIP Stack\BerkeleyAPI.c
                    flags   0x000765       data     static F:\PIC-web\c18\PIC-WEB-5-42-UEXT-full\Microchip\TCPIP Stack\BerkeleyAPI.c
                 __send:3   0x000765       data     extern F:\PIC-web\c18\PIC-WEB-5-42-UEXT-full\Microchip\TCPIP Stack\BerkeleyAPI.c
                        s   0x000767       data     static F:\PIC-web\c18\PIC-WEB-5-42-UEXT-full\Microchip\TCPIP Stack\BerkeleyAPI.c
               __sendto:0   0x000767       data     extern F:\PIC-web\c18\PIC-WEB-5-42-UEXT-full\Microchip\TCPIP Stack\BerkeleyAPI.c
                      buf   0x000768       data     static F:\PIC-web\c18\PIC-WEB-5-42-UEXT-full\Microchip\TCPIP Stack\BerkeleyAPI.c
               __sendto:1   0x000768       data     extern F:\PIC-web\c18\PIC-WEB-5-42-UEXT-full\Microchip\TCPIP Stack\BerkeleyAPI.c
               __sendto:2   0x00076a       data     extern F:\PIC-web\c18\PIC-WEB-5-42-UEXT-full\Microchip\TCPIP Stack\BerkeleyAPI.c
                      len   0x00076a       data     static F:\PIC-web\c18\PIC-WEB-5-42-UEXT-full\Microchip\TCPIP Stack\BerkeleyAPI.c
                    flags   0x00076c       data     static F:\PIC-web\c18\PIC-WEB-5-42-UEXT-full\Microchip\TCPIP Stack\BerkeleyAPI.c
               __sendto:3   0x00076c       data     extern F:\PIC-web\c18\PIC-WEB-5-42-UEXT-full\Microchip\TCPIP Stack\BerkeleyAPI.c
                       to   0x00076e       data     static F:\PIC-web\c18\PIC-WEB-5-42-UEXT-full\Microchip\TCPIP Stack\BerkeleyAPI.c
               __sendto:4   0x00076e       data     extern F:\PIC-web\c18\PIC-WEB-5-42-UEXT-full\Microchip\TCPIP Stack\BerkeleyAPI.c
                    tolen   0x000770       data     static F:\PIC-web\c18\PIC-WEB-5-42-UEXT-full\Microchip\TCPIP Stack\BerkeleyAPI.c
               __sendto:5   0x000770       data     extern F:\PIC-web\c18\PIC-WEB-5-42-UEXT-full\Microchip\TCPIP Stack\BerkeleyAPI.c
                startTick   0x000772       data     static F:\PIC-web\c18\PIC-WEB-5-42-UEXT-full\Microchip\TCPIP Stack\BerkeleyAPI.c
                 __recv:0   0x000776       data     extern F:\PIC-web\c18\PIC-WEB-5-42-UEXT-full\Microchip\TCPIP Stack\BerkeleyAPI.c
                        s   0x000776       data     static F:\PIC-web\c18\PIC-WEB-5-42-UEXT-full\Microchip\TCPIP Stack\BerkeleyAPI.c
                      buf   0x000777       data     static F:\PIC-web\c18\PIC-WEB-5-42-UEXT-full\Microchip\TCPIP Stack\BerkeleyAPI.c
                 __recv:1   0x000777       data     extern F:\PIC-web\c18\PIC-WEB-5-42-UEXT-full\Microchip\TCPIP Stack\BerkeleyAPI.c
                 __recv:2   0x000779       data     extern F:\PIC-web\c18\PIC-WEB-5-42-UEXT-full\Microchip\TCPIP Stack\BerkeleyAPI.c
                      len   0x000779       data     static F:\PIC-web\c18\PIC-WEB-5-42-UEXT-full\Microchip\TCPIP Stack\BerkeleyAPI.c
                 __recv:3   0x00077b       data     extern F:\PIC-web\c18\PIC-WEB-5-42-UEXT-full\Microchip\TCPIP Stack\BerkeleyAPI.c
                    flags   0x00077b       data     static F:\PIC-web\c18\PIC-WEB-5-42-UEXT-full\Microchip\TCPIP Stack\BerkeleyAPI.c
                        s   0x00077d       data     static F:\PIC-web\c18\PIC-WEB-5-42-UEXT-full\Microchip\TCPIP Stack\BerkeleyAPI.c
             __recvfrom:0   0x00077d       data     extern F:\PIC-web\c18\PIC-WEB-5-42-UEXT-full\Microchip\TCPIP Stack\BerkeleyAPI.c
                      buf   0x00077e       data     static F:\PIC-web\c18\PIC-WEB-5-42-UEXT-full\Microchip\TCPIP Stack\BerkeleyAPI.c
             __recvfrom:1   0x00077e       data     extern F:\PIC-web\c18\PIC-WEB-5-42-UEXT-full\Microchip\TCPIP Stack\BerkeleyAPI.c
                      len   0x000780       data     static F:\PIC-web\c18\PIC-WEB-5-42-UEXT-full\Microchip\TCPIP Stack\BerkeleyAPI.c
             __recvfrom:2   0x000780       data     extern F:\PIC-web\c18\PIC-WEB-5-42-UEXT-full\Microchip\TCPIP Stack\BerkeleyAPI.c
             __recvfrom:3   0x000782       data     extern F:\PIC-web\c18\PIC-WEB-5-42-UEXT-full\Microchip\TCPIP Stack\BerkeleyAPI.c
                    flags   0x000782       data     static F:\PIC-web\c18\PIC-WEB-5-42-UEXT-full\Microchip\TCPIP Stack\BerkeleyAPI.c
                     from   0x000784       data     static F:\PIC-web\c18\PIC-WEB-5-42-UEXT-full\Microchip\TCPIP Stack\BerkeleyAPI.c
             __recvfrom:4   0x000784       data     extern F:\PIC-web\c18\PIC-WEB-5-42-UEXT-full\Microchip\TCPIP Stack\BerkeleyAPI.c
                  fromlen   0x000786       data     static F:\PIC-web\c18\PIC-WEB-5-42-UEXT-full\Microchip\TCPIP Stack\BerkeleyAPI.c
             __recvfrom:5   0x000786       data     extern F:\PIC-web\c18\PIC-WEB-5-42-UEXT-full\Microchip\TCPIP Stack\BerkeleyAPI.c
          __gethostname:0   0x000788       data     extern F:\PIC-web\c18\PIC-WEB-5-42-UEXT-full\Microchip\TCPIP Stack\BerkeleyAPI.c
                     name   0x000788       data     static F:\PIC-web\c18\PIC-WEB-5-42-UEXT-full\Microchip\TCPIP Stack\BerkeleyAPI.c
          __gethostname:1   0x00078a       data     extern F:\PIC-web\c18\PIC-WEB-5-42-UEXT-full\Microchip\TCPIP Stack\BerkeleyAPI.c
                  namelen   0x00078a       data     static F:\PIC-web\c18\PIC-WEB-5-42-UEXT-full\Microchip\TCPIP Stack\BerkeleyAPI.c
          __closesocket:0   0x00078c       data     extern F:\PIC-web\c18\PIC-WEB-5-42-UEXT-full\Microchip\TCPIP Stack\BerkeleyAPI.c
                        s   0x00078c       data     static F:\PIC-web\c18\PIC-WEB-5-42-UEXT-full\Microchip\TCPIP Stack\BerkeleyAPI.c
                        s   0x00078d       data     static F:\PIC-web\c18\PIC-WEB-5-42-UEXT-full\Microchip\TCPIP Stack\BerkeleyAPI.c
__HandlePossibleTCPDisconnection:0   0x00078d       data     static F:\PIC-web\c18\PIC-WEB-5-42-UEXT-full\Microchip\TCPIP Stack\BerkeleyAPI.c
                AppConfig   0x00078e       data     extern F:\PIC-web\c18\PIC-WEB-5-42-UEXT-full\TCPIP\Demo App\MainDemo.c
wOriginalAppConfigChecksum   0x0007c1       data     static F:\PIC-web\c18\PIC-WEB-5-42-UEXT-full\TCPIP\Demo App\MainDemo.c
                AN0String   0x0007c3       data     extern F:\PIC-web\c18\PIC-WEB-5-42-UEXT-full\TCPIP\Demo App\MainDemo.c
                    IPVal   0x0007cb       data     static F:\PIC-web\c18\PIC-WEB-5-42-UEXT-full\TCPIP\Demo App\MainDemo.c
       __DisplayIPValue:0   0x0007cb       data     extern F:\PIC-web\c18\PIC-WEB-5-42-UEXT-full\TCPIP\Demo App\MainDemo.c
        __SaveAppConfig:0   0x0007cf       data     extern F:\PIC-web\c18\PIC-WEB-5-42-UEXT-full\TCPIP\Demo App\MainDemo.c
             ptrAppConfig   0x0007cf       data     static F:\PIC-web\c18\PIC-WEB-5-42-UEXT-full\TCPIP\Demo App\MainDemo.c
              DNSHostName   0x0007d1       data     static F:\PIC-web\c18\PIC-WEB-5-42-UEXT-full\Microchip\TCPIP Stack\DNS.c
           DNSHostNameROM   0x0007d3       data     static F:\PIC-web\c18\PIC-WEB-5-42-UEXT-full\Microchip\TCPIP Stack\DNS.c
               RecordType   0x0007d6       data     static F:\PIC-web\c18\PIC-WEB-5-42-UEXT-full\Microchip\TCPIP Stack\DNS.c
             ResolvedInfo   0x0007d7       data     static F:\PIC-web\c18\PIC-WEB-5-42-UEXT-full\Microchip\TCPIP Stack\DNS.c
                 Hostname   0x0007e1       data     static F:\PIC-web\c18\PIC-WEB-5-42-UEXT-full\Microchip\TCPIP Stack\DNS.c
           __DNSResolve:0   0x0007e1       data     extern F:\PIC-web\c18\PIC-WEB-5-42-UEXT-full\Microchip\TCPIP Stack\DNS.c
                     Type   0x0007e3       data     static F:\PIC-web\c18\PIC-WEB-5-42-UEXT-full\Microchip\TCPIP Stack\DNS.c
           __DNSResolve:1   0x0007e3       data     extern F:\PIC-web\c18\PIC-WEB-5-42-UEXT-full\Microchip\TCPIP Stack\DNS.c
                 Hostname   0x0007e4       data     static F:\PIC-web\c18\PIC-WEB-5-42-UEXT-full\Microchip\TCPIP Stack\DNS.c
        __DNSResolveROM:0   0x0007e4       data     extern F:\PIC-web\c18\PIC-WEB-5-42-UEXT-full\Microchip\TCPIP Stack\DNS.c
                     Type   0x0007e7       data     static F:\PIC-web\c18\PIC-WEB-5-42-UEXT-full\Microchip\TCPIP Stack\DNS.c
        __DNSResolveROM:1   0x0007e7       data     extern F:\PIC-web\c18\PIC-WEB-5-42-UEXT-full\Microchip\TCPIP Stack\DNS.c
                   HostIP   0x0007e8       data     static F:\PIC-web\c18\PIC-WEB-5-42-UEXT-full\Microchip\TCPIP Stack\DNS.c
        __DNSIsResolved:0   0x0007e8       data     extern F:\PIC-web\c18\PIC-WEB-5-42-UEXT-full\Microchip\TCPIP Stack\DNS.c
                StartTime   0x0007ea       data     static F:\PIC-web\c18\PIC-WEB-5-42-UEXT-full\Microchip\TCPIP Stack\DNS.c
        SentTransactionID   0x0007ee       data     static F:\PIC-web\c18\PIC-WEB-5-42-UEXT-full\Microchip\TCPIP Stack\DNS.c
         vARPAttemptCount   0x0007f0       data     static F:\PIC-web\c18\PIC-WEB-5-42-UEXT-full\Microchip\TCPIP Stack\DNS.c
         vDNSAttemptCount   0x0007f1       data     static F:\PIC-web\c18\PIC-WEB-5-42-UEXT-full\Microchip\TCPIP Stack\DNS.c
         __DNSPutString:0   0x0007f2       data     static F:\PIC-web\c18\PIC-WEB-5-42-UEXT-full\Microchip\TCPIP Stack\DNS.c
                   String   0x0007f2       data     static F:\PIC-web\c18\PIC-WEB-5-42-UEXT-full\Microchip\TCPIP Stack\DNS.c
      __DNSPutROMString:0   0x0007f4       data     static F:\PIC-web\c18\PIC-WEB-5-42-UEXT-full\Microchip\TCPIP Stack\DNS.c
                   String   0x0007f4       data     static F:\PIC-web\c18\PIC-WEB-5-42-UEXT-full\Microchip\TCPIP Stack\DNS.c
                 data_out   0x0007f7       data     static F:\PIC-web\c18\PIC-WEB-5-42-UEXT-full\TCPIP\Demo App\Olimex_Demo_Files\Custom_SPI_Low.c
            __WriteSPI1:0   0x0007f7       data     extern F:\PIC-web\c18\PIC-WEB-5-42-UEXT-full\TCPIP\Demo App\Olimex_Demo_Files\Custom_SPI_Low.c
                    rdptr   0x0007f8       data     static F:\PIC-web\c18\PIC-WEB-5-42-UEXT-full\TCPIP\Demo App\Olimex_Demo_Files\Custom_SPI_Low.c
             __getsSPI1:0   0x0007f8       data     extern F:\PIC-web\c18\PIC-WEB-5-42-UEXT-full\TCPIP\Demo App\Olimex_Demo_Files\Custom_SPI_Low.c
             __getsSPI1:1   0x0007fa       data     extern F:\PIC-web\c18\PIC-WEB-5-42-UEXT-full\TCPIP\Demo App\Olimex_Demo_Files\Custom_SPI_Low.c
                   length   0x0007fa       data     static F:\PIC-web\c18\PIC-WEB-5-42-UEXT-full\TCPIP\Demo App\Olimex_Demo_Files\Custom_SPI_Low.c
                    wrptr   0x0007fb       data     static F:\PIC-web\c18\PIC-WEB-5-42-UEXT-full\TCPIP\Demo App\Olimex_Demo_Files\Custom_SPI_Low.c
             __putsSPI1:0   0x0007fb       data     extern F:\PIC-web\c18\PIC-WEB-5-42-UEXT-full\TCPIP\Demo App\Olimex_Demo_Files\Custom_SPI_Low.c
                sync_mode   0x0007fd       data     static F:\PIC-web\c18\PIC-WEB-5-42-UEXT-full\TCPIP\Demo App\Olimex_Demo_Files\Custom_SPI_Low.c
             __OpenSPI1:0   0x0007fd       data     extern F:\PIC-web\c18\PIC-WEB-5-42-UEXT-full\TCPIP\Demo App\Olimex_Demo_Files\Custom_SPI_Low.c
             __OpenSPI1:1   0x0007fe       data     extern F:\PIC-web\c18\PIC-WEB-5-42-UEXT-full\TCPIP\Demo App\Olimex_Demo_Files\Custom_SPI_Low.c
                 bus_mode   0x0007fe       data     static F:\PIC-web\c18\PIC-WEB-5-42-UEXT-full\TCPIP\Demo App\Olimex_Demo_Files\Custom_SPI_Low.c
             __OpenSPI1:2   0x0007ff       data     extern F:\PIC-web\c18\PIC-WEB-5-42-UEXT-full\TCPIP\Demo App\Olimex_Demo_Files\Custom_SPI_Low.c
                smp_phase   0x0007ff       data     static F:\PIC-web\c18\PIC-WEB-5-42-UEXT-full\TCPIP\Demo App\Olimex_Demo_Files\Custom_SPI_Low.c
                 SYNQueue   0x000800       data     static F:\PIC-web\c18\PIC-WEB-5-42-UEXT-full\Microchip\TCPIP Stack\TCP.c
             AutoIPClient   0x00083c       data     static F:\PIC-web\c18\PIC-WEB-5-42-UEXT-full\Microchip\TCPIP Stack\AutoIP.c
           __AutoIPInit:0   0x00086b       data     extern F:\PIC-web\c18\PIC-WEB-5-42-UEXT-full\Microchip\TCPIP Stack\AutoIP.c
               vInterface   0x00086b       data     static F:\PIC-web\c18\PIC-WEB-5-42-UEXT-full\Microchip\TCPIP Stack\AutoIP.c
               vInterface   0x00086c       data     static F:\PIC-web\c18\PIC-WEB-5-42-UEXT-full\Microchip\TCPIP Stack\AutoIP.c
   __AutoIPIsConfigured:0   0x00086c       data     extern F:\PIC-web\c18\PIC-WEB-5-42-UEXT-full\Microchip\TCPIP Stack\AutoIP.c
               vInterface   0x00086d       data     static F:\PIC-web\c18\PIC-WEB-5-42-UEXT-full\Microchip\TCPIP Stack\AutoIP.c
__AutoIPConfigIsInProgress:0   0x00086d       data     extern F:\PIC-web\c18\PIC-WEB-5-42-UEXT-full\Microchip\TCPIP Stack\AutoIP.c
       __AutoIPConflict:0   0x00086e       data     extern F:\PIC-web\c18\PIC-WEB-5-42-UEXT-full\Microchip\TCPIP Stack\AutoIP.c
               vInterface   0x00086e       data     static F:\PIC-web\c18\PIC-WEB-5-42-UEXT-full\Microchip\TCPIP Stack\AutoIP.c
               vInterface   0x00086f       data     static F:\PIC-web\c18\PIC-WEB-5-42-UEXT-full\Microchip\TCPIP Stack\AutoIP.c
        __AutoIPDisable:0   0x00086f       data     extern F:\PIC-web\c18\PIC-WEB-5-42-UEXT-full\Microchip\TCPIP Stack\AutoIP.c
               vInterface   0x000870       data     static F:\PIC-web\c18\PIC-WEB-5-42-UEXT-full\Microchip\TCPIP Stack\AutoIP.c
         __AutoIPEnable:0   0x000870       data     extern F:\PIC-web\c18\PIC-WEB-5-42-UEXT-full\Microchip\TCPIP Stack\AutoIP.c
               vInterface   0x000871       data     static F:\PIC-web\c18\PIC-WEB-5-42-UEXT-full\Microchip\TCPIP Stack\AutoIP.c
     __AutoIPIsDisabled:0   0x000871       data     extern F:\PIC-web\c18\PIC-WEB-5-42-UEXT-full\Microchip\TCPIP Stack\AutoIP.c
                     seed   0x000872       data     static F:\PIC-web\c18\PIC-WEB-5-42-UEXT-full\Microchip\TCPIP Stack\AutoIP.c
       __AutoIPRandSeed:0   0x000872       data     extern F:\PIC-web\c18\PIC-WEB-5-42-UEXT-full\Microchip\TCPIP Stack\AutoIP.c
               vInterface   0x000876       data     static F:\PIC-web\c18\PIC-WEB-5-42-UEXT-full\Microchip\TCPIP Stack\AutoIP.c
       __AutoIPRandSeed:1   0x000876       data     extern F:\PIC-web\c18\PIC-WEB-5-42-UEXT-full\Microchip\TCPIP Stack\AutoIP.c
               vInterface   0x000877       data     static F:\PIC-web\c18\PIC-WEB-5-42-UEXT-full\Microchip\TCPIP Stack\AutoIP.c
           __AutoIPRand:0   0x000877       data     extern F:\PIC-web\c18\PIC-WEB-5-42-UEXT-full\Microchip\TCPIP Stack\AutoIP.c
           FLASHReadyFlag   0x000878       data     extern F:\PIC-web\c18\PIC-WEB-5-42-UEXT-full\Microchip\TCPIP Stack\SPIFlash.c
           FLASHBufferPtr   0x000879       data     extern F:\PIC-web\c18\PIC-WEB-5-42-UEXT-full\Microchip\TCPIP Stack\SPIFlash.c
              FLASHBuffer   0x00087b       data     extern F:\PIC-web\c18\PIC-WEB-5-42-UEXT-full\Microchip\TCPIP Stack\SPIFlash.c
             FLASHAddress   0x000887       data     extern F:\PIC-web\c18\PIC-WEB-5-42-UEXT-full\Microchip\TCPIP Stack\SPIFlash.c
                   inbyte   0x00088b       data     static F:\PIC-web\c18\PIC-WEB-5-42-UEXT-full\Microchip\TCPIP Stack\SPIFlash.c
          __SPITransfer:0   0x00088b       data     extern F:\PIC-web\c18\PIC-WEB-5-42-UEXT-full\Microchip\TCPIP Stack\SPIFlash.c
    __SPIFlashBeginRead:0   0x00088c       data     extern F:\PIC-web\c18\PIC-WEB-5-42-UEXT-full\Microchip\TCPIP Stack\SPIFlash.c
                  address   0x00088c       data     static F:\PIC-web\c18\PIC-WEB-5-42-UEXT-full\Microchip\TCPIP Stack\SPIFlash.c
                  address   0x000890       data     static F:\PIC-web\c18\PIC-WEB-5-42-UEXT-full\Microchip\TCPIP Stack\SPIFlash.c
    __SPIFlashReadArray:0   0x000890       data     extern F:\PIC-web\c18\PIC-WEB-5-42-UEXT-full\Microchip\TCPIP Stack\SPIFlash.c
    __SPIFlashReadArray:1   0x000894       data     extern F:\PIC-web\c18\PIC-WEB-5-42-UEXT-full\Microchip\TCPIP Stack\SPIFlash.c
                   buffer   0x000894       data     static F:\PIC-web\c18\PIC-WEB-5-42-UEXT-full\Microchip\TCPIP Stack\SPIFlash.c
    __SPIFlashReadArray:2   0x000896       data     extern F:\PIC-web\c18\PIC-WEB-5-42-UEXT-full\Microchip\TCPIP Stack\SPIFlash.c
                   length   0x000896       data     static F:\PIC-web\c18\PIC-WEB-5-42-UEXT-full\Microchip\TCPIP Stack\SPIFlash.c
   __SPIFlashBeginWrite:0   0x000898       data     extern F:\PIC-web\c18\PIC-WEB-5-42-UEXT-full\Microchip\TCPIP Stack\SPIFlash.c
                  address   0x000898       data     static F:\PIC-web\c18\PIC-WEB-5-42-UEXT-full\Microchip\TCPIP Stack\SPIFlash.c
        __SPIFlashWrite:0   0x00089c       data     extern F:\PIC-web\c18\PIC-WEB-5-42-UEXT-full\Microchip\TCPIP Stack\SPIFlash.c
                      val   0x00089c       data     static F:\PIC-web\c18\PIC-WEB-5-42-UEXT-full\Microchip\TCPIP Stack\SPIFlash.c
   __SPIFlashWriteArray:0   0x00089d       data     extern F:\PIC-web\c18\PIC-WEB-5-42-UEXT-full\Microchip\TCPIP Stack\SPIFlash.c
                      val   0x00089d       data     static F:\PIC-web\c18\PIC-WEB-5-42-UEXT-full\Microchip\TCPIP Stack\SPIFlash.c
   __SPIFlashWriteArray:1   0x00089f       data     extern F:\PIC-web\c18\PIC-WEB-5-42-UEXT-full\Microchip\TCPIP Stack\SPIFlash.c
                     wLen   0x00089f       data     static F:\PIC-web\c18\PIC-WEB-5-42-UEXT-full\Microchip\TCPIP Stack\SPIFlash.c
__WriteBufferToMainMemory:0   0x0008a1       data     extern F:\PIC-web\c18\PIC-WEB-5-42-UEXT-full\Microchip\TCPIP Stack\SPIFlash.c
                  address   0x0008a1       data     static F:\PIC-web\c18\PIC-WEB-5-42-UEXT-full\Microchip\TCPIP Stack\SPIFlash.c
                  address   0x0008a5       data     static F:\PIC-web\c18\PIC-WEB-5-42-UEXT-full\Microchip\TCPIP Stack\SPIFlash.c
__ReadBufferFromMainMemory:0   0x0008a5       data     extern F:\PIC-web\c18\PIC-WEB-5-42-UEXT-full\Microchip\TCPIP Stack\SPIFlash.c
                     byte   0x0008a9       data     static F:\PIC-web\c18\PIC-WEB-5-42-UEXT-full\Microchip\TCPIP Stack\SPIFlash.c
         __ByteToBuffer:0   0x0008a9       data     extern F:\PIC-web\c18\PIC-WEB-5-42-UEXT-full\Microchip\TCPIP Stack\SPIFlash.c
                  address   0x0008ab       data     static F:\PIC-web\c18\PIC-WEB-5-42-UEXT-full\Microchip\TCPIP Stack\SPIFlash.c
         __ByteToBuffer:1   0x0008ab       data     extern F:\PIC-web\c18\PIC-WEB-5-42-UEXT-full\Microchip\TCPIP Stack\SPIFlash.c
       NextPacketLocation   0x0008af       data     static F:\PIC-web\c18\PIC-WEB-5-42-UEXT-full\Microchip\TCPIP Stack\ETH97J60.c
    CurrentPacketLocation   0x0008b1       data     static F:\PIC-web\c18\PIC-WEB-5-42-UEXT-full\Microchip\TCPIP Stack\ETH97J60.c
                    flags   0x0008b3       data     static F:\PIC-web\c18\PIC-WEB-5-42-UEXT-full\Microchip\TCPIP Stack\ETH97J60.c
              wTXWatchdog   0x0008b4       data     static F:\PIC-web\c18\PIC-WEB-5-42-UEXT-full\Microchip\TCPIP Stack\ETH97J60.c
         __MACGetHeader:0   0x0008b6       data     extern F:\PIC-web\c18\PIC-WEB-5-42-UEXT-full\Microchip\TCPIP Stack\ETH97J60.c
                   remote   0x0008b6       data     static F:\PIC-web\c18\PIC-WEB-5-42-UEXT-full\Microchip\TCPIP Stack\ETH97J60.c
                     type   0x0008b8       data     static F:\PIC-web\c18\PIC-WEB-5-42-UEXT-full\Microchip\TCPIP Stack\ETH97J60.c
         __MACGetHeader:1   0x0008b8       data     extern F:\PIC-web\c18\PIC-WEB-5-42-UEXT-full\Microchip\TCPIP Stack\ETH97J60.c
         __MACPutHeader:0   0x0008ba       data     extern F:\PIC-web\c18\PIC-WEB-5-42-UEXT-full\Microchip\TCPIP Stack\ETH97J60.c
                   remote   0x0008ba       data     static F:\PIC-web\c18\PIC-WEB-5-42-UEXT-full\Microchip\TCPIP Stack\ETH97J60.c
         __MACPutHeader:1   0x0008bc       data     extern F:\PIC-web\c18\PIC-WEB-5-42-UEXT-full\Microchip\TCPIP Stack\ETH97J60.c
                     type   0x0008bc       data     static F:\PIC-web\c18\PIC-WEB-5-42-UEXT-full\Microchip\TCPIP Stack\ETH97J60.c
         __MACPutHeader:2   0x0008bd       data     extern F:\PIC-web\c18\PIC-WEB-5-42-UEXT-full\Microchip\TCPIP Stack\ETH97J60.c
                  dataLen   0x0008bd       data     static F:\PIC-web\c18\PIC-WEB-5-42-UEXT-full\Microchip\TCPIP Stack\ETH97J60.c
    __MACSetReadPtrInRx:0   0x0008bf       data     extern F:\PIC-web\c18\PIC-WEB-5-42-UEXT-full\Microchip\TCPIP Stack\ETH97J60.c
                   offset   0x0008bf       data     static F:\PIC-web\c18\PIC-WEB-5-42-UEXT-full\Microchip\TCPIP Stack\ETH97J60.c
                  address   0x0008c1       data     static F:\PIC-web\c18\PIC-WEB-5-42-UEXT-full\Microchip\TCPIP Stack\ETH97J60.c
       __MACSetWritePtr:0   0x0008c1       data     extern F:\PIC-web\c18\PIC-WEB-5-42-UEXT-full\Microchip\TCPIP Stack\ETH97J60.c
        __MACSetReadPtr:0   0x0008c3       data     extern F:\PIC-web\c18\PIC-WEB-5-42-UEXT-full\Microchip\TCPIP Stack\ETH97J60.c
                  address   0x0008c3       data     static F:\PIC-web\c18\PIC-WEB-5-42-UEXT-full\Microchip\TCPIP Stack\ETH97J60.c
    __MACCalcRxChecksum:0   0x0008c5       data     extern F:\PIC-web\c18\PIC-WEB-5-42-UEXT-full\Microchip\TCPIP Stack\ETH97J60.c
                   offset   0x0008c5       data     static F:\PIC-web\c18\PIC-WEB-5-42-UEXT-full\Microchip\TCPIP Stack\ETH97J60.c
                      len   0x0008c7       data     static F:\PIC-web\c18\PIC-WEB-5-42-UEXT-full\Microchip\TCPIP Stack\ETH97J60.c
    __MACCalcRxChecksum:1   0x0008c7       data     extern F:\PIC-web\c18\PIC-WEB-5-42-UEXT-full\Microchip\TCPIP Stack\ETH97J60.c
                      len   0x0008c9       data     static F:\PIC-web\c18\PIC-WEB-5-42-UEXT-full\Microchip\TCPIP Stack\ETH97J60.c
 __CalcIPBufferChecksum:0   0x0008c9       data     extern F:\PIC-web\c18\PIC-WEB-5-42-UEXT-full\Microchip\TCPIP Stack\ETH97J60.c
                 destAddr   0x0008cb       data     static F:\PIC-web\c18\PIC-WEB-5-42-UEXT-full\Microchip\TCPIP Stack\ETH97J60.c
      __MACMemCopyAsync:0   0x0008cb       data     extern F:\PIC-web\c18\PIC-WEB-5-42-UEXT-full\Microchip\TCPIP Stack\ETH97J60.c
      __MACMemCopyAsync:1   0x0008cd       data     extern F:\PIC-web\c18\PIC-WEB-5-42-UEXT-full\Microchip\TCPIP Stack\ETH97J60.c
               sourceAddr   0x0008cd       data     static F:\PIC-web\c18\PIC-WEB-5-42-UEXT-full\Microchip\TCPIP Stack\ETH97J60.c
                      len   0x0008cf       data     static F:\PIC-web\c18\PIC-WEB-5-42-UEXT-full\Microchip\TCPIP Stack\ETH97J60.c
      __MACMemCopyAsync:2   0x0008cf       data     extern F:\PIC-web\c18\PIC-WEB-5-42-UEXT-full\Microchip\TCPIP Stack\ETH97J60.c
          __MACGetArray:0   0x0008d1       data     extern F:\PIC-web\c18\PIC-WEB-5-42-UEXT-full\Microchip\TCPIP Stack\ETH97J60.c
                      val   0x0008d1       data     static F:\PIC-web\c18\PIC-WEB-5-42-UEXT-full\Microchip\TCPIP Stack\ETH97J60.c
          __MACGetArray:1   0x0008d3       data     extern F:\PIC-web\c18\PIC-WEB-5-42-UEXT-full\Microchip\TCPIP Stack\ETH97J60.c
                      len   0x0008d3       data     static F:\PIC-web\c18\PIC-WEB-5-42-UEXT-full\Microchip\TCPIP Stack\ETH97J60.c
               __MACPut:0   0x0008d5       data     extern F:\PIC-web\c18\PIC-WEB-5-42-UEXT-full\Microchip\TCPIP Stack\ETH97J60.c
                      val   0x0008d5       data     static F:\PIC-web\c18\PIC-WEB-5-42-UEXT-full\Microchip\TCPIP Stack\ETH97J60.c
          __MACPutArray:0   0x0008d6       data     extern F:\PIC-web\c18\PIC-WEB-5-42-UEXT-full\Microchip\TCPIP Stack\ETH97J60.c
                      val   0x0008d6       data     static F:\PIC-web\c18\PIC-WEB-5-42-UEXT-full\Microchip\TCPIP Stack\ETH97J60.c
          __MACPutArray:1   0x0008d8       data     extern F:\PIC-web\c18\PIC-WEB-5-42-UEXT-full\Microchip\TCPIP Stack\ETH97J60.c
                      len   0x0008d8       data     static F:\PIC-web\c18\PIC-WEB-5-42-UEXT-full\Microchip\TCPIP Stack\ETH97J60.c
                      val   0x0008da       data     static F:\PIC-web\c18\PIC-WEB-5-42-UEXT-full\Microchip\TCPIP Stack\ETH97J60.c
       __MACPutROMArray:0   0x0008da       data     extern F:\PIC-web\c18\PIC-WEB-5-42-UEXT-full\Microchip\TCPIP Stack\ETH97J60.c
       __MACPutROMArray:1   0x0008dd       data     extern F:\PIC-web\c18\PIC-WEB-5-42-UEXT-full\Microchip\TCPIP Stack\ETH97J60.c
                      len   0x0008dd       data     static F:\PIC-web\c18\PIC-WEB-5-42-UEXT-full\Microchip\TCPIP Stack\ETH97J60.c
           __ReadPHYReg:0   0x0008df       data     extern F:\PIC-web\c18\PIC-WEB-5-42-UEXT-full\Microchip\TCPIP Stack\ETH97J60.c
                 Register   0x0008df       data     static F:\PIC-web\c18\PIC-WEB-5-42-UEXT-full\Microchip\TCPIP Stack\ETH97J60.c
          __WritePHYReg:0   0x0008e0       data     extern F:\PIC-web\c18\PIC-WEB-5-42-UEXT-full\Microchip\TCPIP Stack\ETH97J60.c
                 Register   0x0008e0       data     static F:\PIC-web\c18\PIC-WEB-5-42-UEXT-full\Microchip\TCPIP Stack\ETH97J60.c
                     Data   0x0008e1       data     static F:\PIC-web\c18\PIC-WEB-5-42-UEXT-full\Microchip\TCPIP Stack\ETH97J60.c
          __WritePHYReg:1   0x0008e1       data     extern F:\PIC-web\c18\PIC-WEB-5-42-UEXT-full\Microchip\TCPIP Stack\ETH97J60.c
               I2C_String   0x0008e3       data     extern F:\PIC-web\c18\PIC-WEB-5-42-UEXT-full\TCPIP\Demo App\CustomHTTPApp.c
               SPI_String   0x0008ef       data     extern F:\PIC-web\c18\PIC-WEB-5-42-UEXT-full\TCPIP\Demo App\CustomHTTPApp.c
              lastSuccess   0x0008fb       data     static F:\PIC-web\c18\PIC-WEB-5-42-UEXT-full\TCPIP\Demo App\CustomHTTPApp.c
              lastFailure   0x0008fc       data     static F:\PIC-web\c18\PIC-WEB-5-42-UEXT-full\TCPIP\Demo App\CustomHTTPApp.c
                 MySocket   0x0008fd       data     static F:\PIC-web\c18\PIC-WEB-5-42-UEXT-full\Microchip\TCPIP Stack\SMTP.c
           TransportState   0x0008fe       data     static F:\PIC-web\c18\PIC-WEB-5-42-UEXT-full\Microchip\TCPIP Stack\SMTP.c
                SMTPFlags   0x0008ff       data     static F:\PIC-web\c18\PIC-WEB-5-42-UEXT-full\Microchip\TCPIP Stack\SMTP.c
               callbackID   0x000900       data     static F:\PIC-web\c18\PIC-WEB-5-42-UEXT-full\TCPIP\Demo App\HTTPPrint.h
            __HTTPPrint:0   0x000900       data     extern F:\PIC-web\c18\PIC-WEB-5-42-UEXT-full\TCPIP\Demo App\HTTPPrint.h
                    hHTTP   0x000904       data     static F:\PIC-web\c18\PIC-WEB-5-42-UEXT-full\Microchip\TCPIP Stack\HTTP2.c
         __HTTPLoadConn:0   0x000904       data     static F:\PIC-web\c18\PIC-WEB-5-42-UEXT-full\Microchip\TCPIP Stack\HTTP2.c
__HTTPHeaderParseLookup:0   0x000905       data     static F:\PIC-web\c18\PIC-WEB-5-42-UEXT-full\Microchip\TCPIP Stack\HTTP2.c
                        i   0x000905       data     static F:\PIC-web\c18\PIC-WEB-5-42-UEXT-full\Microchip\TCPIP Stack\HTTP2.c
                    cData   0x000906       data     static F:\PIC-web\c18\PIC-WEB-5-42-UEXT-full\Microchip\TCPIP Stack\HTTP2.c
        __HTTPURLDecode:0   0x000906       data     extern F:\PIC-web\c18\PIC-WEB-5-42-UEXT-full\Microchip\TCPIP Stack\HTTP2.c
           __HTTPGetArg:0   0x000908       data     extern F:\PIC-web\c18\PIC-WEB-5-42-UEXT-full\Microchip\TCPIP Stack\HTTP2.c
                    cData   0x000908       data     static F:\PIC-web\c18\PIC-WEB-5-42-UEXT-full\Microchip\TCPIP Stack\HTTP2.c
                     cArg   0x00090a       data     static F:\PIC-web\c18\PIC-WEB-5-42-UEXT-full\Microchip\TCPIP Stack\HTTP2.c
           __HTTPGetArg:1   0x00090a       data     extern F:\PIC-web\c18\PIC-WEB-5-42-UEXT-full\Microchip\TCPIP Stack\HTTP2.c
        __HTTPGetROMArg:0   0x00090c       data     extern F:\PIC-web\c18\PIC-WEB-5-42-UEXT-full\Microchip\TCPIP Stack\HTTP2.c
                    cData   0x00090c       data     static F:\PIC-web\c18\PIC-WEB-5-42-UEXT-full\Microchip\TCPIP Stack\HTTP2.c
        __HTTPGetROMArg:1   0x00090e       data     extern F:\PIC-web\c18\PIC-WEB-5-42-UEXT-full\Microchip\TCPIP Stack\HTTP2.c
                     cArg   0x00090e       data     static F:\PIC-web\c18\PIC-WEB-5-42-UEXT-full\Microchip\TCPIP Stack\HTTP2.c
     __HTTPReadPostName:0   0x000911       data     extern F:\PIC-web\c18\PIC-WEB-5-42-UEXT-full\Microchip\TCPIP Stack\HTTP2.c
                    cData   0x000911       data     static F:\PIC-web\c18\PIC-WEB-5-42-UEXT-full\Microchip\TCPIP Stack\HTTP2.c
                     wLen   0x000913       data     static F:\PIC-web\c18\PIC-WEB-5-42-UEXT-full\Microchip\TCPIP Stack\HTTP2.c
     __HTTPReadPostName:1   0x000913       data     extern F:\PIC-web\c18\PIC-WEB-5-42-UEXT-full\Microchip\TCPIP Stack\HTTP2.c
    __HTTPReadPostValue:0   0x000915       data     extern F:\PIC-web\c18\PIC-WEB-5-42-UEXT-full\Microchip\TCPIP Stack\HTTP2.c
                    cData   0x000915       data     static F:\PIC-web\c18\PIC-WEB-5-42-UEXT-full\Microchip\TCPIP Stack\HTTP2.c
                     wLen   0x000917       data     static F:\PIC-web\c18\PIC-WEB-5-42-UEXT-full\Microchip\TCPIP Stack\HTTP2.c
    __HTTPReadPostValue:1   0x000917       data     extern F:\PIC-web\c18\PIC-WEB-5-42-UEXT-full\Microchip\TCPIP Stack\HTTP2.c
                   cDelim   0x000919       data     static F:\PIC-web\c18\PIC-WEB-5-42-UEXT-full\Microchip\TCPIP Stack\HTTP2.c
           __HTTPReadTo:0   0x000919       data     static F:\PIC-web\c18\PIC-WEB-5-42-UEXT-full\Microchip\TCPIP Stack\HTTP2.c
           __HTTPReadTo:1   0x00091a       data     static F:\PIC-web\c18\PIC-WEB-5-42-UEXT-full\Microchip\TCPIP Stack\HTTP2.c
                    cData   0x00091a       data     static F:\PIC-web\c18\PIC-WEB-5-42-UEXT-full\Microchip\TCPIP Stack\HTTP2.c
                     wLen   0x00091c       data     static F:\PIC-web\c18\PIC-WEB-5-42-UEXT-full\Microchip\TCPIP Stack\HTTP2.c
           __HTTPReadTo:2   0x00091c       data     static F:\PIC-web\c18\PIC-WEB-5-42-UEXT-full\Microchip\TCPIP Stack\HTTP2.c
          __HTTPIncFile:0   0x00091e       data     extern F:\PIC-web\c18\PIC-WEB-5-42-UEXT-full\Microchip\TCPIP Stack\HTTP2.c
                    cFile   0x00091e       data     static F:\PIC-web\c18\PIC-WEB-5-42-UEXT-full\Microchip\TCPIP Stack\HTTP2.c
              dwTimeStart   0x000921       data     static F:\PIC-web\c18\PIC-WEB-5-42-UEXT-full\Microchip\TCPIP Stack\TCPPerformanceTest.c
              dwBytesSent   0x000925       data     static F:\PIC-web\c18\PIC-WEB-5-42-UEXT-full\Microchip\TCPIP Stack\TCPPerformanceTest.c
                  dwVLine   0x000929       data     static F:\PIC-web\c18\PIC-WEB-5-42-UEXT-full\Microchip\TCPIP Stack\TCPPerformanceTest.c
          vBytesPerSecond   0x00092d       data     static F:\PIC-web\c18\PIC-WEB-5-42-UEXT-full\Microchip\TCPIP Stack\TCPPerformanceTest.c
              dwTimeStart   0x000939       data     static F:\PIC-web\c18\PIC-WEB-5-42-UEXT-full\Microchip\TCPIP Stack\TCPPerformanceTest.c
              dwBytesRead   0x00093d       data     static F:\PIC-web\c18\PIC-WEB-5-42-UEXT-full\Microchip\TCPIP Stack\TCPPerformanceTest.c
      wICMPSequenceNumber   0x000941       data     static F:\PIC-web\c18\PIC-WEB-5-42-UEXT-full\Microchip\TCPIP Stack\ICMP.c
                ICMPTimer   0x000943       data     static F:\PIC-web\c18\PIC-WEB-5-42-UEXT-full\Microchip\TCPIP Stack\ICMP.c
               StaticVars   0x000947       data     static F:\PIC-web\c18\PIC-WEB-5-42-UEXT-full\Microchip\TCPIP Stack\ICMP.c
                ICMPState   0x000951       data     static F:\PIC-web\c18\PIC-WEB-5-42-UEXT-full\Microchip\TCPIP Stack\ICMP.c
                   remote   0x000952       data     static F:\PIC-web\c18\PIC-WEB-5-42-UEXT-full\Microchip\TCPIP Stack\ICMP.c
          __ICMPProcess:0   0x000952       data     extern F:\PIC-web\c18\PIC-WEB-5-42-UEXT-full\Microchip\TCPIP Stack\ICMP.c
                      len   0x000954       data     static F:\PIC-web\c18\PIC-WEB-5-42-UEXT-full\Microchip\TCPIP Stack\ICMP.c
          __ICMPProcess:1   0x000954       data     extern F:\PIC-web\c18\PIC-WEB-5-42-UEXT-full\Microchip\TCPIP Stack\ICMP.c
         __ICMPSendPing:0   0x000956       data     extern F:\PIC-web\c18\PIC-WEB-5-42-UEXT-full\Microchip\TCPIP Stack\ICMP.c
               dwRemoteIP   0x000956       data     static F:\PIC-web\c18\PIC-WEB-5-42-UEXT-full\Microchip\TCPIP Stack\ICMP.c
   __ICMPSendPingToHost:0   0x00095a       data     extern F:\PIC-web\c18\PIC-WEB-5-42-UEXT-full\Microchip\TCPIP Stack\ICMP.c
             szRemoteHost   0x00095a       data     static F:\PIC-web\c18\PIC-WEB-5-42-UEXT-full\Microchip\TCPIP Stack\ICMP.c
__ICMPSendPingToHostROM:0   0x00095c       data     extern F:\PIC-web\c18\PIC-WEB-5-42-UEXT-full\Microchip\TCPIP Stack\ICMP.c
             szRemoteHost   0x00095c       data     static F:\PIC-web\c18\PIC-WEB-5-42-UEXT-full\Microchip\TCPIP Stack\ICMP.c
               dwServerIP   0x00095f       data     static F:\PIC-web\c18\PIC-WEB-5-42-UEXT-full\TCPIP\Demo App\BerkeleyUDPClientDemo.c
                  dwTimer   0x000963       data     static F:\PIC-web\c18\PIC-WEB-5-42-UEXT-full\TCPIP\Demo App\BerkeleyUDPClientDemo.c
             bsdUdpClient   0x000967       data     static F:\PIC-web\c18\PIC-WEB-5-42-UEXT-full\TCPIP\Demo App\BerkeleyUDPClientDemo.c
                  udpaddr   0x000968       data     static F:\PIC-web\c18\PIC-WEB-5-42-UEXT-full\TCPIP\Demo App\BerkeleyUDPClientDemo.c
              IPHeaderLen   0x000978       data     static F:\PIC-web\c18\PIC-WEB-5-42-UEXT-full\Microchip\TCPIP Stack\IP.c
                  localIP   0x000979       data     static F:\PIC-web\c18\PIC-WEB-5-42-UEXT-full\Microchip\TCPIP Stack\IP.c
          __IPGetHeader:0   0x000979       data     extern F:\PIC-web\c18\PIC-WEB-5-42-UEXT-full\Microchip\TCPIP Stack\IP.c
                   remote   0x00097b       data     static F:\PIC-web\c18\PIC-WEB-5-42-UEXT-full\Microchip\TCPIP Stack\IP.c
          __IPGetHeader:1   0x00097b       data     extern F:\PIC-web\c18\PIC-WEB-5-42-UEXT-full\Microchip\TCPIP Stack\IP.c
          __IPGetHeader:2   0x00097d       data     extern F:\PIC-web\c18\PIC-WEB-5-42-UEXT-full\Microchip\TCPIP Stack\IP.c
                 protocol   0x00097d       data     static F:\PIC-web\c18\PIC-WEB-5-42-UEXT-full\Microchip\TCPIP Stack\IP.c
                      len   0x00097f       data     static F:\PIC-web\c18\PIC-WEB-5-42-UEXT-full\Microchip\TCPIP Stack\IP.c
          __IPGetHeader:3   0x00097f       data     extern F:\PIC-web\c18\PIC-WEB-5-42-UEXT-full\Microchip\TCPIP Stack\IP.c
                   remote   0x000981       data     static F:\PIC-web\c18\PIC-WEB-5-42-UEXT-full\Microchip\TCPIP Stack\IP.c
          __IPPutHeader:0   0x000981       data     extern F:\PIC-web\c18\PIC-WEB-5-42-UEXT-full\Microchip\TCPIP Stack\IP.c
          __IPPutHeader:1   0x000983       data     extern F:\PIC-web\c18\PIC-WEB-5-42-UEXT-full\Microchip\TCPIP Stack\IP.c
                 protocol   0x000983       data     static F:\PIC-web\c18\PIC-WEB-5-42-UEXT-full\Microchip\TCPIP Stack\IP.c
                      len   0x000984       data     static F:\PIC-web\c18\PIC-WEB-5-42-UEXT-full\Microchip\TCPIP Stack\IP.c
          __IPPutHeader:2   0x000984       data     extern F:\PIC-web\c18\PIC-WEB-5-42-UEXT-full\Microchip\TCPIP Stack\IP.c
                   Offset   0x000986       data     static F:\PIC-web\c18\PIC-WEB-5-42-UEXT-full\Microchip\TCPIP Stack\IP.c
        __IPSetRxBuffer:0   0x000986       data     extern F:\PIC-web\c18\PIC-WEB-5-42-UEXT-full\Microchip\TCPIP Stack\IP.c
         __SwapIPHeader:0   0x000988       data     static F:\PIC-web\c18\PIC-WEB-5-42-UEXT-full\Microchip\TCPIP Stack\IP.c
                        h   0x000988       data     static F:\PIC-web\c18\PIC-WEB-5-42-UEXT-full\Microchip\TCPIP Stack\IP.c
          bsdClientSocket   0x00098a       data     static F:\PIC-web\c18\PIC-WEB-5-42-UEXT-full\TCPIP\Demo App\BerkeleyTCPClientDemo.c
                     addr   0x00098b       data     static F:\PIC-web\c18\PIC-WEB-5-42-UEXT-full\TCPIP\Demo App\BerkeleyTCPClientDemo.c
                  Address   0x00099b       data     static F:\PIC-web\c18\PIC-WEB-5-42-UEXT-full\TCPIP\Demo App\Olimex_Demo_Files\Custom_I2C.c
         __I2C_Transmit:0   0x00099b       data     extern F:\PIC-web\c18\PIC-WEB-5-42-UEXT-full\TCPIP\Demo App\Olimex_Demo_Files\Custom_I2C.c
         __I2C_Transmit:1   0x00099d       data     extern F:\PIC-web\c18\PIC-WEB-5-42-UEXT-full\TCPIP\Demo App\Olimex_Demo_Files\Custom_I2C.c
                  Command   0x00099d       data     static F:\PIC-web\c18\PIC-WEB-5-42-UEXT-full\TCPIP\Demo App\Olimex_Demo_Files\Custom_I2C.c
         __I2C_Transmit:2   0x00099f       data     extern F:\PIC-web\c18\PIC-WEB-5-42-UEXT-full\TCPIP\Demo App\Olimex_Demo_Files\Custom_I2C.c
                     Data   0x00099f       data     static F:\PIC-web\c18\PIC-WEB-5-42-UEXT-full\TCPIP\Demo App\Olimex_Demo_Files\Custom_I2C.c
          __I2C_Receive:0   0x0009a0       data     extern F:\PIC-web\c18\PIC-WEB-5-42-UEXT-full\TCPIP\Demo App\Olimex_Demo_Files\Custom_I2C.c
                  Address   0x0009a0       data     static F:\PIC-web\c18\PIC-WEB-5-42-UEXT-full\TCPIP\Demo App\Olimex_Demo_Files\Custom_I2C.c
                  Command   0x0009a2       data     static F:\PIC-web\c18\PIC-WEB-5-42-UEXT-full\TCPIP\Demo App\Olimex_Demo_Files\Custom_I2C.c
          __I2C_Receive:1   0x0009a2       data     extern F:\PIC-web\c18\PIC-WEB-5-42-UEXT-full\TCPIP\Demo App\Olimex_Demo_Files\Custom_I2C.c
          __I2C_Receive:2   0x0009a4       data     extern F:\PIC-web\c18\PIC-WEB-5-42-UEXT-full\TCPIP\Demo App\Olimex_Demo_Files\Custom_I2C.c
                     Data   0x0009a4       data     static F:\PIC-web\c18\PIC-WEB-5-42-UEXT-full\TCPIP\Demo App\Olimex_Demo_Files\Custom_I2C.c
                    Bytes   0x0009a6       data     static F:\PIC-web\c18\PIC-WEB-5-42-UEXT-full\TCPIP\Demo App\Olimex_Demo_Files\Custom_I2C.c
          __I2C_Receive:3   0x0009a6       data     extern F:\PIC-web\c18\PIC-WEB-5-42-UEXT-full\TCPIP\Demo App\Olimex_Demo_Files\Custom_I2C.c
                     Dest   0x0009a8       data     static F:\PIC-web\c18\PIC-WEB-5-42-UEXT-full\Microchip\TCPIP Stack\UART.c
       __ReadStringUART:0   0x0009a8       data     extern F:\PIC-web\c18\PIC-WEB-5-42-UEXT-full\Microchip\TCPIP Stack\UART.c
       __ReadStringUART:1   0x0009aa       data     extern F:\PIC-web\c18\PIC-WEB-5-42-UEXT-full\Microchip\TCPIP Stack\UART.c
                BufferLen   0x0009aa       data     static F:\PIC-web\c18\PIC-WEB-5-42-UEXT-full\Microchip\TCPIP Stack\UART.c
           __WriteUSART:0   0x0009ab       data     extern F:\PIC-web\c18\PIC-WEB-5-42-UEXT-full\Microchip\TCPIP Stack\UART.c
                     data   0x0009ab       data     static F:\PIC-web\c18\PIC-WEB-5-42-UEXT-full\Microchip\TCPIP Stack\UART.c
                   buffer   0x0009ac       data     static F:\PIC-web\c18\PIC-WEB-5-42-UEXT-full\Microchip\TCPIP Stack\UART.c
            __getsUSART:0   0x0009ac       data     extern F:\PIC-web\c18\PIC-WEB-5-42-UEXT-full\Microchip\TCPIP Stack\UART.c
                      len   0x0009ae       data     static F:\PIC-web\c18\PIC-WEB-5-42-UEXT-full\Microchip\TCPIP Stack\UART.c
            __getsUSART:1   0x0009ae       data     extern F:\PIC-web\c18\PIC-WEB-5-42-UEXT-full\Microchip\TCPIP Stack\UART.c
                     data   0x0009af       data     static F:\PIC-web\c18\PIC-WEB-5-42-UEXT-full\Microchip\TCPIP Stack\UART.c
            __putsUSART:0   0x0009af       data     extern F:\PIC-web\c18\PIC-WEB-5-42-UEXT-full\Microchip\TCPIP Stack\UART.c
                     data   0x0009b1       data     static F:\PIC-web\c18\PIC-WEB-5-42-UEXT-full\Microchip\TCPIP Stack\UART.c
           __putrsUSART:0   0x0009b1       data     extern F:\PIC-web\c18\PIC-WEB-5-42-UEXT-full\Microchip\TCPIP Stack\UART.c
                     Data   0x0009b4       data     static F:\PIC-web\c18\PIC-WEB-5-42-UEXT-full\TCPIP\Demo App\Olimex_Demo_Files\Custom_UART.c
    __UART_Write_String:0   0x0009b4       data     extern F:\PIC-web\c18\PIC-WEB-5-42-UEXT-full\TCPIP\Demo App\Olimex_Demo_Files\Custom_UART.c
     __UART_Write_Array:0   0x0009b6       data     extern F:\PIC-web\c18\PIC-WEB-5-42-UEXT-full\TCPIP\Demo App\Olimex_Demo_Files\Custom_UART.c
                     Data   0x0009b6       data     static F:\PIC-web\c18\PIC-WEB-5-42-UEXT-full\TCPIP\Demo App\Olimex_Demo_Files\Custom_UART.c
                    Bytes   0x0009b8       data     static F:\PIC-web\c18\PIC-WEB-5-42-UEXT-full\TCPIP\Demo App\Olimex_Demo_Files\Custom_UART.c
     __UART_Write_Array:1   0x0009b8       data     extern F:\PIC-web\c18\PIC-WEB-5-42-UEXT-full\TCPIP\Demo App\Olimex_Demo_Files\Custom_UART.c
     __UART_Read_String:0   0x0009ba       data     extern F:\PIC-web\c18\PIC-WEB-5-42-UEXT-full\TCPIP\Demo App\Olimex_Demo_Files\Custom_UART.c
                     Data   0x0009ba       data     static F:\PIC-web\c18\PIC-WEB-5-42-UEXT-full\TCPIP\Demo App\Olimex_Demo_Files\Custom_UART.c
      __UART_Read_Array:0   0x0009bc       data     extern F:\PIC-web\c18\PIC-WEB-5-42-UEXT-full\TCPIP\Demo App\Olimex_Demo_Files\Custom_UART.c
                     Data   0x0009bc       data     static F:\PIC-web\c18\PIC-WEB-5-42-UEXT-full\TCPIP\Demo App\Olimex_Demo_Files\Custom_UART.c
      __UART_Read_Array:1   0x0009be       data     extern F:\PIC-web\c18\PIC-WEB-5-42-UEXT-full\TCPIP\Demo App\Olimex_Demo_Files\Custom_UART.c
                    Bytes   0x0009be       data     static F:\PIC-web\c18\PIC-WEB-5-42-UEXT-full\TCPIP\Demo App\Olimex_Demo_Files\Custom_UART.c
             vTickReading   0x0009c0       data     static F:\PIC-web\c18\PIC-WEB-5-42-UEXT-full\Microchip\TCPIP Stack\Tick.c
              dwTickValue   0x0009c6       data     static F:\PIC-web\c18\PIC-WEB-5-42-UEXT-full\Microchip\TCPIP Stack\Tick.c
__TickConvertToMilliseconds:0   0x0009c6       data     extern F:\PIC-web\c18\PIC-WEB-5-42-UEXT-full\Microchip\TCPIP Stack\Tick.c
                RXHeadPtr   0x0009ca       data     static F:\PIC-web\c18\PIC-WEB-5-42-UEXT-full\Microchip\TCPIP Stack\UART2TCPBridge.c
                RXTailPtr   0x0009cc       data     static F:\PIC-web\c18\PIC-WEB-5-42-UEXT-full\Microchip\TCPIP Stack\UART2TCPBridge.c
                TXHeadPtr   0x0009ce       data     static F:\PIC-web\c18\PIC-WEB-5-42-UEXT-full\Microchip\TCPIP Stack\UART2TCPBridge.c
                TXTailPtr   0x0009d0       data     static F:\PIC-web\c18\PIC-WEB-5-42-UEXT-full\Microchip\TCPIP Stack\UART2TCPBridge.c
              BridgeState   0x0009d2       data     static F:\PIC-web\c18\PIC-WEB-5-42-UEXT-full\Microchip\TCPIP Stack\UART2TCPBridge.c
                 MySocket   0x0009d3       data     static F:\PIC-web\c18\PIC-WEB-5-42-UEXT-full\Microchip\TCPIP Stack\UART2TCPBridge.c
            dwSNTPSeconds   0x0009d4       data     static F:\PIC-web\c18\PIC-WEB-5-42-UEXT-full\Microchip\TCPIP Stack\SNTP.c
         dwLastUpdateTick   0x0009d8       data     static F:\PIC-web\c18\PIC-WEB-5-42-UEXT-full\Microchip\TCPIP Stack\SNTP.c
                 MySocket   0x0009dc       data     static F:\PIC-web\c18\PIC-WEB-5-42-UEXT-full\Microchip\TCPIP Stack\SNTP.c
                SNTPState   0x0009dd       data     static F:\PIC-web\c18\PIC-WEB-5-42-UEXT-full\Microchip\TCPIP Stack\SNTP.c
                  RCIndex   0x0009de       data     extern F:\PIC-web\c18\PIC-WEB-5-42-UEXT-full\TCPIP\Demo App\MainDemo.c
                  TCIndex   0x0009df       data     extern F:\PIC-web\c18\PIC-WEB-5-42-UEXT-full\TCPIP\Demo App\MainDemo.c
                        t   0x0009e0       data     static F:\PIC-web\c18\PIC-WEB-5-42-UEXT-full\TCPIP\Demo App\MainDemo.c
                 dwLastIP   0x0009e4       data     static F:\PIC-web\c18\PIC-WEB-5-42-UEXT-full\TCPIP\Demo App\MainDemo.c
                 MySocket   0x0009e8       data     static F:\PIC-web\c18\PIC-WEB-5-42-UEXT-full\Microchip\TCPIP Stack\DHCPs.c
       bDHCPServerEnabled   0x0009e9       data     extern F:\PIC-web\c18\PIC-WEB-5-42-UEXT-full\Microchip\TCPIP Stack\DHCPs.c
             smDHCPServer   0x0009ea       data     static F:\PIC-web\c18\PIC-WEB-5-42-UEXT-full\Microchip\TCPIP Stack\DHCPs.c
                flag_init   0x0009eb       data     static F:\PIC-web\c18\PIC-WEB-5-42-UEXT-full\Microchip\TCPIP Stack\DHCPs.c
               dhcp_timer   0x0009ec       data     static F:\PIC-web\c18\PIC-WEB-5-42-UEXT-full\Microchip\TCPIP Stack\DHCPs.c
 __ConvertArrayToString:0   0x0009f0       data     extern F:\PIC-web\c18\PIC-WEB-5-42-UEXT-full\TCPIP\Demo App\Olimex_Demo_Files\Misc_Functions.c
                   Source   0x0009f0       data     static F:\PIC-web\c18\PIC-WEB-5-42-UEXT-full\TCPIP\Demo App\Olimex_Demo_Files\Misc_Functions.c
 __ConvertArrayToString:1   0x0009f2       data     extern F:\PIC-web\c18\PIC-WEB-5-42-UEXT-full\TCPIP\Demo App\Olimex_Demo_Files\Misc_Functions.c
              Destination   0x0009f2       data     static F:\PIC-web\c18\PIC-WEB-5-42-UEXT-full\TCPIP\Demo App\Olimex_Demo_Files\Misc_Functions.c
                     Size   0x0009f4       data     static F:\PIC-web\c18\PIC-WEB-5-42-UEXT-full\TCPIP\Demo App\Olimex_Demo_Files\Misc_Functions.c
 __ConvertArrayToString:2   0x0009f4       data     extern F:\PIC-web\c18\PIC-WEB-5-42-UEXT-full\TCPIP\Demo App\Olimex_Demo_Files\Misc_Functions.c
                      Str   0x0009f5       data     static F:\PIC-web\c18\PIC-WEB-5-42-UEXT-full\TCPIP\Demo App\Olimex_Demo_Files\Misc_Functions.c
__Convert_String_to_Int:0   0x0009f5       data     extern F:\PIC-web\c18\PIC-WEB-5-42-UEXT-full\TCPIP\Demo App\Olimex_Demo_Files\Misc_Functions.c
         __SPI_Transmit:0   0x0009f7       data     extern F:\PIC-web\c18\PIC-WEB-5-42-UEXT-full\TCPIP\Demo App\Olimex_Demo_Files\Custom_SPI.c
                     Data   0x0009f7       data     static F:\PIC-web\c18\PIC-WEB-5-42-UEXT-full\TCPIP\Demo App\Olimex_Demo_Files\Custom_SPI.c
          __SPI_Receive:0   0x0009f8       data     extern F:\PIC-web\c18\PIC-WEB-5-42-UEXT-full\TCPIP\Demo App\Olimex_Demo_Files\Custom_SPI.c
                     Data   0x0009f8       data     static F:\PIC-web\c18\PIC-WEB-5-42-UEXT-full\TCPIP\Demo App\Olimex_Demo_Files\Custom_SPI.c
                    Bytes   0x0009fa       data     static F:\PIC-web\c18\PIC-WEB-5-42-UEXT-full\TCPIP\Demo App\Olimex_Demo_Files\Custom_SPI.c
          __SPI_Receive:1   0x0009fa       data     extern F:\PIC-web\c18\PIC-WEB-5-42-UEXT-full\TCPIP\Demo App\Olimex_Demo_Files\Custom_SPI.c
                 WaitTime   0x0009fc       data     static F:\PIC-web\c18\PIC-WEB-5-42-UEXT-full\TCPIP\Demo App\SMTPDemo.c
              UART_Buffer   0x000a00       data     extern F:\PIC-web\c18\PIC-WEB-5-42-UEXT-full\TCPIP\Demo App\MainDemo.c
                    Timer   0x000b00       data     static F:\PIC-web\c18\PIC-WEB-5-42-UEXT-full\TCPIP\Demo App\PingDemo.c
                    Timer   0x000b04       data     static F:\PIC-web\c18\PIC-WEB-5-42-UEXT-full\TCPIP\Demo App\GenericTCPClient.c
          bsdServerSocket   0x000b08       data     static F:\PIC-web\c18\PIC-WEB-5-42-UEXT-full\TCPIP\Demo App\BerkeleyTCPServerDemo.c
               ClientSock   0x000b09       data     static F:\PIC-web\c18\PIC-WEB-5-42-UEXT-full\TCPIP\Demo App\BerkeleyTCPServerDemo.c
          dwInternalTicks   0x000b0c       data     static F:\PIC-web\c18\PIC-WEB-5-42-UEXT-full\Microchip\TCPIP Stack\Tick.c
           dwLFSRRandSeed   0x000b10       data     static F:\PIC-web\c18\PIC-WEB-5-42-UEXT-full\Microchip\TCPIP Stack\Helpers.c
                 MySocket   0x000b14       data     static F:\PIC-web\c18\PIC-WEB-5-42-UEXT-full\Microchip\TCPIP Stack\DNS.c
                    Flags   0x000b15       data     static F:\PIC-web\c18\PIC-WEB-5-42-UEXT-full\Microchip\TCPIP Stack\DNS.c
                    smDNS   0x000b16       data     static F:\PIC-web\c18\PIC-WEB-5-42-UEXT-full\Microchip\TCPIP Stack\DNS.c
              tblptru_sav   0x000b17       data     static E:\3.46\pic18-lt\cxx-framework\src\traditional\stdclib\mcmpp2r.asm
              tblptru_sav   0x000b18       data     static E:\3.46\pic18-lt\cxx-framework\src\traditional\stdclib\mcpyp2r.asm
               I2C_BUFFER   0x000b19       data     extern E:\3.46\pic18-lt\cxx-framework\src\pmc_common\SW_I2C\swgtci2c.c
              BIT_COUNTER   0x000b1a       data     extern E:\3.46\pic18-lt\cxx-framework\src\pmc_common\SW_I2C\swgtci2c.c
                    errno   0x000b1b       data     extern E:\3.46\pic18-lt\cxx-framework\src\traditional\stdclib\errno.c
            LastPutSocket   0x000b1d       data     static F:\PIC-web\c18\PIC-WEB-5-42-UEXT-full\Microchip\TCPIP Stack\UDP.c
         SocketWithRxData   0x000b1e       data     static F:\PIC-web\c18\PIC-WEB-5-42-UEXT-full\Microchip\TCPIP Stack\UDP.c
                 MySocket   0x000b1f       data     static F:\PIC-web\c18\PIC-WEB-5-42-UEXT-full\Microchip\TCPIP Stack\TCPPerformanceTest.c
                 MySocket   0x000b20       data     static F:\PIC-web\c18\PIC-WEB-5-42-UEXT-full\Microchip\TCPIP Stack\TCPPerformanceTest.c
              hCurrentTCP   0x000b21       data     static F:\PIC-web\c18\PIC-WEB-5-42-UEXT-full\Microchip\TCPIP Stack\TCP.c
                 hLastTCB   0x000b22       data     static F:\PIC-web\c18\PIC-WEB-5-42-UEXT-full\Microchip\TCPIP Stack\TCP.c
                     once   0x000b23       data     static F:\PIC-web\c18\PIC-WEB-5-42-UEXT-full\Microchip\TCPIP Stack\StackTsk.c
           bLastLinkState   0x000b24       data     static F:\PIC-web\c18\PIC-WEB-5-42-UEXT-full\Microchip\TCPIP Stack\StackTsk.c
              _Identifier   0x000b25       data     static F:\PIC-web\c18\PIC-WEB-5-42-UEXT-full\Microchip\TCPIP Stack\IP.c
          gAutoPortNumber   0x000b27       data     static F:\PIC-web\c18\PIC-WEB-5-42-UEXT-full\Microchip\TCPIP Stack\BerkeleyAPI.c
    __Custom_SWWriteI2C:0   0x000b29       data     extern F:\PIC-web\c18\PIC-WEB-5-42-UEXT-full\TCPIP\Demo App\Olimex_Demo_Files\Custom_I2C_Low.c
                 data_out   0x000b29       data     static F:\PIC-web\c18\PIC-WEB-5-42-UEXT-full\TCPIP\Demo App\Olimex_Demo_Files\Custom_I2C_Low.c
                 MySocket   0x000b2a       data     static F:\PIC-web\c18\PIC-WEB-5-42-UEXT-full\Microchip\TCPIP Stack\Announce.c
             bInitialized   0x000b2b       data     static F:\PIC-web\c18\PIC-WEB-5-42-UEXT-full\Microchip\TCPIP Stack\Telnet.c
                 MySocket   0x000b2c       data     static F:\PIC-web\c18\PIC-WEB-5-42-UEXT-full\Microchip\TCPIP Stack\Reboot.c
                PingState   0x000b2d       data     static F:\PIC-web\c18\PIC-WEB-5-42-UEXT-full\TCPIP\Demo App\PingDemo.c
                   smNBNS   0x000b2e       data     static F:\PIC-web\c18\PIC-WEB-5-42-UEXT-full\Microchip\TCPIP Stack\NBNS.c
                ICMPFlags   0x000b2f       data     static F:\PIC-web\c18\PIC-WEB-5-42-UEXT-full\Microchip\TCPIP Stack\ICMP.c
           TCPServerState   0x000b30       data     static F:\PIC-web\c18\PIC-WEB-5-42-UEXT-full\TCPIP\Demo App\GenericTCPServer.c
DHCPClientInitializedOnce   0x000b31       data     extern F:\PIC-web\c18\PIC-WEB-5-42-UEXT-full\Microchip\TCPIP Stack\DHCP.c
                I2C_Delay   0x000b32       data     extern F:\PIC-web\c18\PIC-WEB-5-42-UEXT-full\TCPIP\Demo App\Olimex_Demo_Files\Custom_I2C_Low.c
           BSDServerState   0x000b33       data     static F:\PIC-web\c18\PIC-WEB-5-42-UEXT-full\TCPIP\Demo App\BerkeleyTCPServerDemo.c
              DiscoverySM   0x000b34       data     static F:\PIC-web\c18\PIC-WEB-5-42-UEXT-full\Microchip\TCPIP Stack\Announce.c
                    smARP   0x000b35       data     static F:\PIC-web\c18\PIC-WEB-5-42-UEXT-full\Microchip\TCPIP Stack\ARP.c
                   wCount   0x000c00       data     static F:\PIC-web\c18\PIC-WEB-5-42-UEXT-full\Microchip\TCPIP Stack\HTTP2.c
                        v   0x000c00       data     static F:\PIC-web\c18\PIC-WEB-5-42-UEXT-full\Microchip\TCPIP Stack\DHCP.c
                        i   0x000c00       data     static F:\PIC-web\c18\PIC-WEB-5-42-UEXT-full\Microchip\TCPIP Stack\DHCP.c
                 wDataLen   0x000c00       data     static F:\PIC-web\c18\PIC-WEB-5-42-UEXT-full\Microchip\TCPIP Stack\TCP.c
             CalcChecksum   0x000c00       data     static F:\PIC-web\c18\PIC-WEB-5-42-UEXT-full\Microchip\TCPIP Stack\IP.c
                    dwVal   0x000c00       data     static F:\PIC-web\c18\PIC-WEB-5-42-UEXT-full\Microchip\TCPIP Stack\ICMP.c
                  vBuffer   0x000c00       data     static F:\PIC-web\c18\PIC-WEB-5-42-UEXT-full\Microchip\TCPIP Stack\TCPPerformanceTest.c
               wSourceLen   0x000c00       data     static F:\PIC-web\c18\PIC-WEB-5-42-UEXT-full\Microchip\TCPIP Stack\BerkeleyAPI.c
                        h   0x000c00       data     static F:\PIC-web\c18\PIC-WEB-5-42-UEXT-full\Microchip\TCPIP Stack\UDP.c
                    hMPFS   0x000c00       data     static F:\PIC-web\c18\PIC-WEB-5-42-UEXT-full\Microchip\TCPIP Stack\MPFS2.c
                   digits   0x000c00       data     static F:\PIC-web\c18\PIC-WEB-5-42-UEXT-full\TCPIP\Demo App\CustomHTTPApp.c
                        c   0x000c00       data     static F:\PIC-web\c18\PIC-WEB-5-42-UEXT-full\Microchip\TCPIP Stack\UART.c
                      len   0x000c00       data     static F:\PIC-web\c18\PIC-WEB-5-42-UEXT-full\TCPIP\Demo App\CustomHTTPApp.c
                     temp   0x000c00       data     static F:\PIC-web\c18\PIC-WEB-5-42-UEXT-full\TCPIP\Demo App\MainDemo.c
                      len   0x000c00       data     static F:\PIC-web\c18\PIC-WEB-5-42-UEXT-full\TCPIP\Demo App\CustomHTTPApp.c
                   header   0x000c00       data     static F:\PIC-web\c18\PIC-WEB-5-42-UEXT-full\Microchip\TCPIP Stack\ETH97J60.c
                     hTCP   0x000c00       data     static F:\PIC-web\c18\PIC-WEB-5-42-UEXT-full\Microchip\TCPIP Stack\TCP.c
                        i   0x000c00       data     static F:\PIC-web\c18\PIC-WEB-5-42-UEXT-full\Microchip\TCPIP Stack\MPFS2.c
                vBitCount   0x000c00       data     static F:\PIC-web\c18\PIC-WEB-5-42-UEXT-full\Microchip\TCPIP Stack\Helpers.c
              dwTickDelta   0x000c00       data     static F:\PIC-web\c18\PIC-WEB-5-42-UEXT-full\TCPIP\Demo App\BerkeleyUDPClientDemo.c
                     args   0x000c00       data     static F:\PIC-web\c18\PIC-WEB-5-42-UEXT-full\Microchip\TCPIP Stack\Helpers.c
                     Buff   0x000c00       data     static F:\PIC-web\c18\PIC-WEB-5-42-UEXT-full\TCPIP\Demo App\CustomHTTPApp.c
                        i   0x000c00       data     static F:\PIC-web\c18\PIC-WEB-5-42-UEXT-full\Microchip\TCPIP Stack\Helpers.c
                  vBuffer   0x000c00       data     static F:\PIC-web\c18\PIC-WEB-5-42-UEXT-full\Microchip\TCPIP Stack\TCPPerformanceTest.c
                        i   0x000c00       data     static F:\PIC-web\c18\PIC-WEB-5-42-UEXT-full\Microchip\TCPIP Stack\DHCPs.c
                        i   0x000c00       data     static F:\PIC-web\c18\PIC-WEB-5-42-UEXT-full\TCPIP\Demo App\CustomHTTPApp.c
        BootloaderAddress   0x000c00       data     static F:\PIC-web\c18\PIC-WEB-5-42-UEXT-full\Microchip\TCPIP Stack\Reboot.c
                        i   0x000c00       data     static F:\PIC-web\c18\PIC-WEB-5-42-UEXT-full\TCPIP\Demo App\CustomHTTPApp.c
                        i   0x000c00       data     static F:\PIC-web\c18\PIC-WEB-5-42-UEXT-full\Microchip\TCPIP Stack\Helpers.c
                        i   0x000c00       data     static F:\PIC-web\c18\PIC-WEB-5-42-UEXT-full\Microchip\TCPIP Stack\NBNS.c
                  wMaxPut   0x000c00       data     static F:\PIC-web\c18\PIC-WEB-5-42-UEXT-full\Microchip\TCPIP Stack\UART2TCPBridge.c
                     addr   0x000c00       data     static F:\PIC-web\c18\PIC-WEB-5-42-UEXT-full\TCPIP\Demo App\BerkeleyTCPServerDemo.c
              dwTickDelta   0x000c00       data     static F:\PIC-web\c18\PIC-WEB-5-42-UEXT-full\Microchip\TCPIP Stack\SNTP.c
                        i   0x000c00       data     static F:\PIC-web\c18\PIC-WEB-5-42-UEXT-full\TCPIP\Demo App\Olimex_Demo_Files\Custom_UART.c
                        i   0x000c00       data     static F:\PIC-web\c18\PIC-WEB-5-42-UEXT-full\Microchip\TCPIP Stack\Announce.c
                        i   0x000c00       data     static F:\PIC-web\c18\PIC-WEB-5-42-UEXT-full\Microchip\TCPIP Stack\DHCP.c
               TempString   0x000c00       data     static F:\PIC-web\c18\PIC-WEB-5-42-UEXT-full\TCPIP\Demo App\CustomHTTPApp.c
                        a   0x000c00       data     static F:\PIC-web\c18\PIC-WEB-5-42-UEXT-full\Microchip\TCPIP Stack\Hashes.c
                        i   0x000c00       data     static F:\PIC-web\c18\PIC-WEB-5-42-UEXT-full\TCPIP\Demo App\Olimex_Demo_Files\Custom_UART.c
                        i   0x000c00       data     static F:\PIC-web\c18\PIC-WEB-5-42-UEXT-full\TCPIP\Demo App\Olimex_Demo_Files\Custom_UART.c
             newAppConfig   0x000c00       data     static F:\PIC-web\c18\PIC-WEB-5-42-UEXT-full\TCPIP\Demo App\CustomHTTPApp.c
                 numBytes   0x000c00       data     static F:\PIC-web\c18\PIC-WEB-5-42-UEXT-full\Microchip\TCPIP Stack\HTTP2.c
                   Result   0x000c00       data     static F:\PIC-web\c18\PIC-WEB-5-42-UEXT-full\Microchip\TCPIP Stack\ETH97J60.c
                        i   0x000c00       data     static F:\PIC-web\c18\PIC-WEB-5-42-UEXT-full\Microchip\TCPIP Stack\UART.c
                   oldPtr   0x000c00       data     static F:\PIC-web\c18\PIC-WEB-5-42-UEXT-full\Microchip\TCPIP Stack\HTTP2.c
                  ptrTemp   0x000c00       data     static F:\PIC-web\c18\PIC-WEB-5-42-UEXT-full\Microchip\TCPIP Stack\TCP.c
                   oldPtr   0x000c00       data     static F:\PIC-web\c18\PIC-WEB-5-42-UEXT-full\Microchip\TCPIP Stack\HTTP2.c
                  ptrRead   0x000c00       data     static F:\PIC-web\c18\PIC-WEB-5-42-UEXT-full\Microchip\TCPIP Stack\TCP.c
                   packet   0x000c00       data     static F:\PIC-web\c18\PIC-WEB-5-42-UEXT-full\Microchip\TCPIP Stack\ARP.c
                  ptrRead   0x000c00       data     static F:\PIC-web\c18\PIC-WEB-5-42-UEXT-full\Microchip\TCPIP Stack\TCP.c
                        i   0x000c00       data     static F:\PIC-web\c18\PIC-WEB-5-42-UEXT-full\TCPIP\Demo App\GenericTCPClient.c
                      ptr   0x000c00       data     static F:\PIC-web\c18\PIC-WEB-5-42-UEXT-full\TCPIP\Demo App\CustomHTTPApp.c
                      ptr   0x000c00       data     static F:\PIC-web\c18\PIC-WEB-5-42-UEXT-full\TCPIP\Demo App\CustomHTTPApp.c
                      ptr   0x000c00       data     static F:\PIC-web\c18\PIC-WEB-5-42-UEXT-full\TCPIP\Demo App\CustomHTTPApp.c
                   packet   0x000c00       data     static F:\PIC-web\c18\PIC-WEB-5-42-UEXT-full\Microchip\TCPIP Stack\ARP.c
                       ss   0x000c00       data     static F:\PIC-web\c18\PIC-WEB-5-42-UEXT-full\Microchip\TCPIP Stack\UDP.c
                AN0String   0x000c00       data     static F:\PIC-web\c18\PIC-WEB-5-42-UEXT-full\TCPIP\Demo App\CustomHTTPApp.c
                      pkt   0x000c00       data     static F:\PIC-web\c18\PIC-WEB-5-42-UEXT-full\TCPIP\Demo App\BerkeleyUDPClientDemo.c
                      pkt   0x000c00       data     static F:\PIC-web\c18\PIC-WEB-5-42-UEXT-full\Microchip\TCPIP Stack\SNTP.c
                        s   0x000c00       data     static F:\PIC-web\c18\PIC-WEB-5-42-UEXT-full\Microchip\TCPIP Stack\UDP.c
                        s   0x000c00       data     static F:\PIC-web\c18\PIC-WEB-5-42-UEXT-full\Microchip\TCPIP Stack\BerkeleyAPI.c
                TCPHeader   0x000c00       data     static F:\PIC-web\c18\PIC-WEB-5-42-UEXT-full\Microchip\TCPIP Stack\TCP.c
                   result   0x000c00       data     static F:\PIC-web\c18\PIC-WEB-5-42-UEXT-full\Microchip\TCPIP Stack\SMTP.c
      vNeedToSaveDefaults   0x000c00       data     static F:\PIC-web\c18\PIC-WEB-5-42-UEXT-full\TCPIP\Demo App\MainDemo.c
                        i   0x000c00       data     static F:\PIC-web\c18\PIC-WEB-5-42-UEXT-full\TCPIP\Demo App\GenericTCPServer.c
                  GIESave   0x000c00       data     static F:\PIC-web\c18\PIC-WEB-5-42-UEXT-full\Microchip\TCPIP Stack\ETH97J60.c
                   result   0x000c00       data     static F:\PIC-web\c18\PIC-WEB-5-42-UEXT-full\Microchip\TCPIP Stack\SMTP.c
                       cA   0x000c00       data     static F:\PIC-web\c18\PIC-WEB-5-42-UEXT-full\Microchip\TCPIP Stack\Helpers.c
                  lpStart   0x000c00       data     static F:\PIC-web\c18\PIC-WEB-5-42-UEXT-full\Microchip\TCPIP Stack\SMTP.c
               ICMPPacket   0x000c00       data     static F:\PIC-web\c18\PIC-WEB-5-42-UEXT-full\Microchip\TCPIP Stack\ICMP.c
                  lpStart   0x000c00       data     static F:\PIC-web\c18\PIC-WEB-5-42-UEXT-full\Microchip\TCPIP Stack\SMTP.c
                    state   0x000c00       data     static F:\PIC-web\c18\PIC-WEB-5-42-UEXT-full\TCPIP\Demo App\UARTConfig.c
                       c2   0x000c00       data     static F:\PIC-web\c18\PIC-WEB-5-42-UEXT-full\Microchip\TCPIP Stack\Helpers.c
                  IPDigit   0x000c00       data     static F:\PIC-web\c18\PIC-WEB-5-42-UEXT-full\TCPIP\Demo App\MainDemo.c
               recvBuffer   0x000c00       data     static F:\PIC-web\c18\PIC-WEB-5-42-UEXT-full\TCPIP\Demo App\BerkeleyTCPClientDemo.c
              vByteNumber   0x000c01       data     static F:\PIC-web\c18\PIC-WEB-5-42-UEXT-full\Microchip\TCPIP Stack\Helpers.c
                       cB   0x000c01       data     static F:\PIC-web\c18\PIC-WEB-5-42-UEXT-full\Microchip\TCPIP Stack\Helpers.c
                        i   0x000c01       data     static F:\PIC-web\c18\PIC-WEB-5-42-UEXT-full\Microchip\TCPIP Stack\DHCP.c
                     Type   0x000c01       data     static F:\PIC-web\c18\PIC-WEB-5-42-UEXT-full\Microchip\TCPIP Stack\NBNS.c
                        c   0x000c01       data     static F:\PIC-web\c18\PIC-WEB-5-42-UEXT-full\TCPIP\Demo App\UARTConfig.c
              bRetransmit   0x000c01       data     static F:\PIC-web\c18\PIC-WEB-5-42-UEXT-full\Microchip\TCPIP Stack\TCP.c
                    count   0x000c01       data     static F:\PIC-web\c18\PIC-WEB-5-42-UEXT-full\Microchip\TCPIP Stack\UART.c
                     data   0x000c01       data     static F:\PIC-web\c18\PIC-WEB-5-42-UEXT-full\Microchip\TCPIP Stack\UART.c
      NVMValidationStruct   0x000c01       data     static F:\PIC-web\c18\PIC-WEB-5-42-UEXT-full\TCPIP\Demo App\MainDemo.c
                   Option   0x000c01       data     static F:\PIC-web\c18\PIC-WEB-5-42-UEXT-full\Microchip\TCPIP Stack\DHCPs.c
                     MyIP   0x000c01       data     static F:\PIC-web\c18\PIC-WEB-5-42-UEXT-full\Microchip\TCPIP Stack\DHCP.c
                 nameHash   0x000c01       data     static F:\PIC-web\c18\PIC-WEB-5-42-UEXT-full\Microchip\TCPIP Stack\MPFS2.c
                        i   0x000c01       data     static F:\PIC-web\c18\PIC-WEB-5-42-UEXT-full\Microchip\TCPIP Stack\ETH97J60.c
                        w   0x000c01       data     static F:\PIC-web\c18\PIC-WEB-5-42-UEXT-full\TCPIP\Demo App\GenericTCPServer.c
                        j   0x000c01       data     static F:\PIC-web\c18\PIC-WEB-5-42-UEXT-full\Microchip\TCPIP Stack\Helpers.c
                        w   0x000c01       data     static F:\PIC-web\c18\PIC-WEB-5-42-UEXT-full\TCPIP\Demo App\GenericTCPClient.c
                        w   0x000c01       data     static F:\PIC-web\c18\PIC-WEB-5-42-UEXT-full\Microchip\TCPIP Stack\Helpers.c
          ipResolvedDNSIP   0x000c01       data     static F:\PIC-web\c18\PIC-WEB-5-42-UEXT-full\Microchip\TCPIP Stack\UDP.c
             bCloseSocket   0x000c02       data     static F:\PIC-web\c18\PIC-WEB-5-42-UEXT-full\Microchip\TCPIP Stack\TCP.c
                      str   0x000c02       data     static F:\PIC-web\c18\PIC-WEB-5-42-UEXT-full\Microchip\TCPIP Stack\Helpers.c
                        c   0x000c02       data     static F:\PIC-web\c18\PIC-WEB-5-42-UEXT-full\Microchip\TCPIP Stack\SMTP.c
                      Len   0x000c02       data     static F:\PIC-web\c18\PIC-WEB-5-42-UEXT-full\Microchip\TCPIP Stack\DHCPs.c
                      len   0x000c02       data     static F:\PIC-web\c18\PIC-WEB-5-42-UEXT-full\Microchip\TCPIP Stack\HTTP2.c
                 MySocket   0x000c02       data     static F:\PIC-web\c18\PIC-WEB-5-42-UEXT-full\Microchip\TCPIP Stack\Announce.c
                   header   0x000c02       data     static F:\PIC-web\c18\PIC-WEB-5-42-UEXT-full\Microchip\TCPIP Stack\IP.c
                  vOutput   0x000c02       data     static F:\PIC-web\c18\PIC-WEB-5-42-UEXT-full\Microchip\TCPIP Stack\Helpers.c
                 wDataLen   0x000c02       data     static F:\PIC-web\c18\PIC-WEB-5-42-UEXT-full\Microchip\TCPIP Stack\TCP.c
                wFIFOSize   0x000c02       data     static F:\PIC-web\c18\PIC-WEB-5-42-UEXT-full\Microchip\TCPIP Stack\TCP.c
                      rem   0x000c02       data     static F:\PIC-web\c18\PIC-WEB-5-42-UEXT-full\TCPIP\Demo App\CustomHTTPApp.c
                   socket   0x000c02       data     static F:\PIC-web\c18\PIC-WEB-5-42-UEXT-full\Microchip\TCPIP Stack\BerkeleyAPI.c
                        w   0x000c02       data     static F:\PIC-web\c18\PIC-WEB-5-42-UEXT-full\Microchip\TCPIP Stack\BerkeleyAPI.c
                        j   0x000c02       data     static F:\PIC-web\c18\PIC-WEB-5-42-UEXT-full\Microchip\TCPIP Stack\DHCP.c
                     wLen   0x000c02       data     static F:\PIC-web\c18\PIC-WEB-5-42-UEXT-full\Microchip\TCPIP Stack\HTTP2.c
                  wMaxGet   0x000c02       data     static F:\PIC-web\c18\PIC-WEB-5-42-UEXT-full\Microchip\TCPIP Stack\UART2TCPBridge.c
                        i   0x000c02       data     static F:\PIC-web\c18\PIC-WEB-5-42-UEXT-full\Microchip\TCPIP Stack\AutoIP.c
                 filename   0x000c02       data     static F:\PIC-web\c18\PIC-WEB-5-42-UEXT-full\TCPIP\Demo App\CustomHTTPApp.c
             wBytesOutput   0x000c02       data     static F:\PIC-web\c18\PIC-WEB-5-42-UEXT-full\Microchip\TCPIP Stack\Helpers.c
                        w   0x000c02       data     static F:\PIC-web\c18\PIC-WEB-5-42-UEXT-full\Microchip\TCPIP Stack\TCP.c
                  ptrHead   0x000c02       data     static F:\PIC-web\c18\PIC-WEB-5-42-UEXT-full\Microchip\TCPIP Stack\TCP.c
                   handle   0x000c02       data     static F:\PIC-web\c18\PIC-WEB-5-42-UEXT-full\TCPIP\Demo App\UARTConfig.c
                    Class   0x000c03       data     static F:\PIC-web\c18\PIC-WEB-5-42-UEXT-full\Microchip\TCPIP Stack\NBNS.c
                   vFlags   0x000c03       data     static F:\PIC-web\c18\PIC-WEB-5-42-UEXT-full\Microchip\TCPIP Stack\TCP.c
                    wTime   0x000c03       data     static F:\PIC-web\c18\PIC-WEB-5-42-UEXT-full\Microchip\TCPIP Stack\Helpers.c
                        c   0x000c03       data     static F:\PIC-web\c18\PIC-WEB-5-42-UEXT-full\Microchip\TCPIP Stack\SMTP.c
                        i   0x000c03       data     static F:\PIC-web\c18\PIC-WEB-5-42-UEXT-full\Microchip\TCPIP Stack\MPFS2.c
              BOOTPHeader   0x000c03       data     static F:\PIC-web\c18\PIC-WEB-5-42-UEXT-full\Microchip\TCPIP Stack\DHCPs.c
                       w2   0x000c03       data     static F:\PIC-web\c18\PIC-WEB-5-42-UEXT-full\TCPIP\Demo App\GenericTCPServer.c
                  vBuffer   0x000c03       data     static F:\PIC-web\c18\PIC-WEB-5-42-UEXT-full\TCPIP\Demo App\GenericTCPClient.c
                        i   0x000c03       data     static F:\PIC-web\c18\PIC-WEB-5-42-UEXT-full\Microchip\TCPIP Stack\Announce.c
                   lbDone   0x000c03       data     static F:\PIC-web\c18\PIC-WEB-5-42-UEXT-full\TCPIP\Demo App\UARTConfig.c
              ParseStates   0x000c03       data     static F:\PIC-web\c18\PIC-WEB-5-42-UEXT-full\Microchip\TCPIP Stack\SMTP.c
                     type   0x000c03       data     static F:\PIC-web\c18\PIC-WEB-5-42-UEXT-full\Microchip\TCPIP Stack\DHCP.c
                    cName   0x000c04       data     static F:\PIC-web\c18\PIC-WEB-5-42-UEXT-full\TCPIP\Demo App\CustomHTTPApp.c
                      end   0x000c04       data     static F:\PIC-web\c18\PIC-WEB-5-42-UEXT-full\Microchip\TCPIP Stack\Helpers.c
                 blockLen   0x000c04       data     static F:\PIC-web\c18\PIC-WEB-5-42-UEXT-full\TCPIP\Demo App\UARTConfig.c
            wTXAllocation   0x000c04       data     static F:\PIC-web\c18\PIC-WEB-5-42-UEXT-full\Microchip\TCPIP Stack\TCP.c
                        c   0x000c04       data     static F:\PIC-web\c18\PIC-WEB-5-42-UEXT-full\Microchip\TCPIP Stack\HTTP2.c
          wBytesUntilWrap   0x000c04       data     static F:\PIC-web\c18\PIC-WEB-5-42-UEXT-full\Microchip\TCPIP Stack\TCP.c
          wBytesUntilWrap   0x000c04       data     static F:\PIC-web\c18\PIC-WEB-5-42-UEXT-full\Microchip\TCPIP Stack\TCP.c
                     data   0x000c04       data     static F:\PIC-web\c18\PIC-WEB-5-42-UEXT-full\Microchip\TCPIP Stack\HTTP2.c
                        w   0x000c04       data     static F:\PIC-web\c18\PIC-WEB-5-42-UEXT-full\Microchip\TCPIP Stack\TCP.c
                        w   0x000c04       data     static F:\PIC-web\c18\PIC-WEB-5-42-UEXT-full\Microchip\TCPIP Stack\UART2TCPBridge.c
              ParseStates   0x000c04       data     static F:\PIC-web\c18\PIC-WEB-5-42-UEXT-full\Microchip\TCPIP Stack\SMTP.c
                        i   0x000c04       data     static F:\PIC-web\c18\PIC-WEB-5-42-UEXT-full\TCPIP\Demo App\CustomHTTPApp.c
                        i   0x000c04       data     static F:\PIC-web\c18\PIC-WEB-5-42-UEXT-full\TCPIP\Demo App\MainDemo.c
                   dwTick   0x000c04       data     static F:\PIC-web\c18\PIC-WEB-5-42-UEXT-full\Microchip\TCPIP Stack\SNTP.c
                        b   0x000c04       data     static F:\PIC-web\c18\PIC-WEB-5-42-UEXT-full\Microchip\TCPIP Stack\Hashes.c
                   lbDone   0x000c04       data     static F:\PIC-web\c18\PIC-WEB-5-42-UEXT-full\Microchip\TCPIP Stack\DHCP.c
                        v   0x000c04       data     static F:\PIC-web\c18\PIC-WEB-5-42-UEXT-full\Microchip\TCPIP Stack\BerkeleyAPI.c
                   dwTick   0x000c04       data     static F:\PIC-web\c18\PIC-WEB-5-42-UEXT-full\TCPIP\Demo App\BerkeleyUDPClientDemo.c
                AppBuffer   0x000c05       data     static F:\PIC-web\c18\PIC-WEB-5-42-UEXT-full\TCPIP\Demo App\GenericTCPServer.c
                  lResult   0x000c05       data     static F:\PIC-web\c18\PIC-WEB-5-42-UEXT-full\TCPIP\Demo App\UARTConfig.c
               NBNSHeader   0x000c05       data     static F:\PIC-web\c18\PIC-WEB-5-42-UEXT-full\Microchip\TCPIP Stack\NBNS.c
                     data   0x000c05       data     static F:\PIC-web\c18\PIC-WEB-5-42-UEXT-full\Microchip\TCPIP Stack\HTTP2.c
               wLastValue   0x000c05       data     static F:\PIC-web\c18\PIC-WEB-5-42-UEXT-full\Microchip\TCPIP Stack\Helpers.c
                hashCache   0x000c05       data     static F:\PIC-web\c18\PIC-WEB-5-42-UEXT-full\Microchip\TCPIP Stack\MPFS2.c
             tempServerID   0x000c05       data     static F:\PIC-web\c18\PIC-WEB-5-42-UEXT-full\Microchip\TCPIP Stack\DHCP.c
               wOutputLen   0x000c06       data     static F:\PIC-web\c18\PIC-WEB-5-42-UEXT-full\Microchip\TCPIP Stack\Helpers.c
              ptrLocation   0x000c06       data     static F:\PIC-web\c18\PIC-WEB-5-42-UEXT-full\Microchip\TCPIP Stack\TCP.c
          RXHeadPtrShadow   0x000c06       data     static F:\PIC-web\c18\PIC-WEB-5-42-UEXT-full\Microchip\TCPIP Stack\UART2TCPBridge.c
                        i   0x000c06       data     static F:\PIC-web\c18\PIC-WEB-5-42-UEXT-full\Microchip\TCPIP Stack\TCP.c
          ipResolvedDNSIP   0x000c06       data     static F:\PIC-web\c18\PIC-WEB-5-42-UEXT-full\Microchip\TCPIP Stack\TCP.c
                 tempData   0x000c06       data     static F:\PIC-web\c18\PIC-WEB-5-42-UEXT-full\TCPIP\Demo App\UARTConfig.c
                      len   0x000c06       data     static F:\PIC-web\c18\PIC-WEB-5-42-UEXT-full\Microchip\TCPIP Stack\Helpers.c
              dwTotalTime   0x000c07       data     static F:\PIC-web\c18\PIC-WEB-5-42-UEXT-full\Microchip\TCPIP Stack\Helpers.c
                        i   0x000c08       data     static F:\PIC-web\c18\PIC-WEB-5-42-UEXT-full\Microchip\TCPIP Stack\SMTP.c
                    ADval   0x000c08       data     static F:\PIC-web\c18\PIC-WEB-5-42-UEXT-full\TCPIP\Demo App\CustomHTTPApp.c
                        c   0x000c08       data     static F:\PIC-web\c18\PIC-WEB-5-42-UEXT-full\Microchip\TCPIP Stack\Hashes.c
                        s   0x000c08       data     static F:\PIC-web\c18\PIC-WEB-5-42-UEXT-full\Microchip\TCPIP Stack\UDP.c
          RXTailPtrShadow   0x000c08       data     static F:\PIC-web\c18\PIC-WEB-5-42-UEXT-full\Microchip\TCPIP Stack\UART2TCPBridge.c
              temperature   0x000c08       data     static F:\PIC-web\c18\PIC-WEB-5-42-UEXT-full\TCPIP\Demo App\CustomHTTPApp.c
                wLenStart   0x000c08       data     static F:\PIC-web\c18\PIC-WEB-5-42-UEXT-full\Microchip\TCPIP Stack\TCP.c
             pseudoHeader   0x000c09       data     static F:\PIC-web\c18\PIC-WEB-5-42-UEXT-full\Microchip\TCPIP Stack\UDP.c
                        w   0x000c09       data     static F:\PIC-web\c18\PIC-WEB-5-42-UEXT-full\Microchip\TCPIP Stack\SMTP.c
                        i   0x000c09       data     static F:\PIC-web\c18\PIC-WEB-5-42-UEXT-full\Microchip\TCPIP Stack\DHCP.c
                        i   0x000c09       data     static F:\PIC-web\c18\PIC-WEB-5-42-UEXT-full\TCPIP\Demo App\BerkeleyTCPClientDemo.c
                      tmp   0x000c0a       data     static F:\PIC-web\c18\PIC-WEB-5-42-UEXT-full\TCPIP\Demo App\CustomHTTPApp.c
                      ret   0x000c0a       data     static F:\PIC-web\c18\PIC-WEB-5-42-UEXT-full\TCPIP\Demo App\PingDemo.c
          cFindArrayStart   0x000c0a       data     static F:\PIC-web\c18\PIC-WEB-5-42-UEXT-full\Microchip\TCPIP Stack\TCP.c
                        w   0x000c0a       data     static F:\PIC-web\c18\PIC-WEB-5-42-UEXT-full\Microchip\TCPIP Stack\TCPPerformanceTest.c
          TXHeadPtrShadow   0x000c0a       data     static F:\PIC-web\c18\PIC-WEB-5-42-UEXT-full\Microchip\TCPIP Stack\UART2TCPBridge.c
            vBase64Buffer   0x000c0b       data     static F:\PIC-web\c18\PIC-WEB-5-42-UEXT-full\Microchip\TCPIP Stack\SMTP.c
                  addrlen   0x000c0b       data     static F:\PIC-web\c18\PIC-WEB-5-42-UEXT-full\TCPIP\Demo App\BerkeleyTCPClientDemo.c
             randomResult   0x000c0b       data     static F:\PIC-web\c18\PIC-WEB-5-42-UEXT-full\Microchip\TCPIP Stack\Helpers.c
                   wvPROD   0x000c0c       data     static F:\PIC-web\c18\PIC-WEB-5-42-UEXT-full\Microchip\TCPIP Stack\Reboot.c
                        d   0x000c0c       data     static F:\PIC-web\c18\PIC-WEB-5-42-UEXT-full\Microchip\TCPIP Stack\Hashes.c
                        i   0x000c0c       data     static F:\PIC-web\c18\PIC-WEB-5-42-UEXT-full\Microchip\TCPIP Stack\Helpers.c
          TXTailPtrShadow   0x000c0c       data     static F:\PIC-web\c18\PIC-WEB-5-42-UEXT-full\Microchip\TCPIP Stack\UART2TCPBridge.c
                   result   0x000c0c       data     static F:\PIC-web\c18\PIC-WEB-5-42-UEXT-full\Microchip\TCPIP Stack\SMTP.c
                   result   0x000c0c       data     static F:\PIC-web\c18\PIC-WEB-5-42-UEXT-full\Microchip\TCPIP Stack\SMTP.c
                        w   0x000c0c       data     static F:\PIC-web\c18\PIC-WEB-5-42-UEXT-full\Microchip\TCPIP Stack\TCPPerformanceTest.c
                        r   0x000c0c       data     static F:\PIC-web\c18\PIC-WEB-5-42-UEXT-full\TCPIP\Demo App\CustomHTTPApp.c
                       dw   0x000c0c       data     static F:\PIC-web\c18\PIC-WEB-5-42-UEXT-full\Microchip\TCPIP Stack\TCPPerformanceTest.c
                    Digit   0x000c0d       data     static F:\PIC-web\c18\PIC-WEB-5-42-UEXT-full\Microchip\TCPIP Stack\Helpers.c
                   socket   0x000c0d       data     static F:\PIC-web\c18\PIC-WEB-5-42-UEXT-full\Microchip\TCPIP Stack\BerkeleyAPI.c
                        i   0x000c0d       data     static F:\PIC-web\c18\PIC-WEB-5-42-UEXT-full\Microchip\TCPIP Stack\TCP.c
                  wGetLen   0x000c0e       data     static F:\PIC-web\c18\PIC-WEB-5-42-UEXT-full\Microchip\TCPIP Stack\TCPPerformanceTest.c
                        j   0x000c0e       data     static F:\PIC-web\c18\PIC-WEB-5-42-UEXT-full\Microchip\TCPIP Stack\TCP.c
                    dummy   0x000c0e       data     static F:\PIC-web\c18\PIC-WEB-5-42-UEXT-full\Microchip\TCPIP Stack\UART2TCPBridge.c
             wFreeTXSpace   0x000c0f       data     static F:\PIC-web\c18\PIC-WEB-5-42-UEXT-full\Microchip\TCPIP Stack\TCP.c
                  Divisor   0x000c0f       data     static F:\PIC-web\c18\PIC-WEB-5-42-UEXT-full\Microchip\TCPIP Stack\Helpers.c
                     addr   0x000c0f       data     static F:\PIC-web\c18\PIC-WEB-5-42-UEXT-full\Microchip\TCPIP Stack\BerkeleyAPI.c
                        k   0x000c0f       data     static F:\PIC-web\c18\PIC-WEB-5-42-UEXT-full\Microchip\TCPIP Stack\TCP.c
               ADCON0Save   0x000c0f       data     static F:\PIC-web\c18\PIC-WEB-5-42-UEXT-full\Microchip\TCPIP Stack\Helpers.c
                        z   0x000c10       data     static F:\PIC-web\c18\PIC-WEB-5-42-UEXT-full\TCPIP\Demo App\CustomHTTPApp.c
                        f   0x000c10       data     static F:\PIC-web\c18\PIC-WEB-5-42-UEXT-full\Microchip\TCPIP Stack\Hashes.c
                isFinding   0x000c10       data     static F:\PIC-web\c18\PIC-WEB-5-42-UEXT-full\Microchip\TCPIP Stack\TCP.c
                       dw   0x000c10       data     static F:\PIC-web\c18\PIC-WEB-5-42-UEXT-full\Microchip\TCPIP Stack\TCPPerformanceTest.c
                       qw   0x000c10       data     static F:\PIC-web\c18\PIC-WEB-5-42-UEXT-full\Microchip\TCPIP Stack\TCPPerformanceTest.c
                addRemote   0x000c10       data     static F:\PIC-web\c18\PIC-WEB-5-42-UEXT-full\TCPIP\Demo App\BerkeleyTCPServerDemo.c
               ADCON2Save   0x000c10       data     static F:\PIC-web\c18\PIC-WEB-5-42-UEXT-full\Microchip\TCPIP Stack\Helpers.c
                 remoteIP   0x000c11       data     static F:\PIC-web\c18\PIC-WEB-5-42-UEXT-full\Microchip\TCPIP Stack\BerkeleyAPI.c
                  Printed   0x000c11       data     static F:\PIC-web\c18\PIC-WEB-5-42-UEXT-full\Microchip\TCPIP Stack\Helpers.c
                T0CONSave   0x000c11       data     static F:\PIC-web\c18\PIC-WEB-5-42-UEXT-full\Microchip\TCPIP Stack\Helpers.c
               NameString   0x000c11       data     static F:\PIC-web\c18\PIC-WEB-5-42-UEXT-full\Microchip\TCPIP Stack\NBNS.c
                   buffer   0x000c11       data     static F:\PIC-web\c18\PIC-WEB-5-42-UEXT-full\Microchip\TCPIP Stack\TCP.c
                TMR0HSave   0x000c12       data     static F:\PIC-web\c18\PIC-WEB-5-42-UEXT-full\Microchip\TCPIP Stack\Helpers.c
                TMR0LSave   0x000c13       data     static F:\PIC-web\c18\PIC-WEB-5-42-UEXT-full\Microchip\TCPIP Stack\Helpers.c
                       qw   0x000c14       data     static F:\PIC-web\c18\PIC-WEB-5-42-UEXT-full\Microchip\TCPIP Stack\TCPPerformanceTest.c
                        i   0x000c14       data     static F:\PIC-web\c18\PIC-WEB-5-42-UEXT-full\Microchip\TCPIP Stack\TCP.c
             pseudoHeader   0x000c14       data     static F:\PIC-web\c18\PIC-WEB-5-42-UEXT-full\Microchip\TCPIP Stack\TCP.c
                     temp   0x000c14       data     static F:\PIC-web\c18\PIC-WEB-5-42-UEXT-full\Microchip\TCPIP Stack\Hashes.c
                checksums   0x000c15       data     static F:\PIC-web\c18\PIC-WEB-5-42-UEXT-full\Microchip\TCPIP Stack\UDP.c
                      ptr   0x000c15       data     static F:\PIC-web\c18\PIC-WEB-5-42-UEXT-full\Microchip\TCPIP Stack\MPFS2.c
               remotePort   0x000c15       data     static F:\PIC-web\c18\PIC-WEB-5-42-UEXT-full\Microchip\TCPIP Stack\BerkeleyAPI.c
        vSocketsAllocated   0x000c15       data     static F:\PIC-web\c18\PIC-WEB-5-42-UEXT-full\Microchip\TCPIP Stack\TCP.c
                     temp   0x000c16       data     static F:\PIC-web\c18\PIC-WEB-5-42-UEXT-full\Microchip\TCPIP Stack\ETH97J60.c
                     Temp   0x000c16       data     static F:\PIC-web\c18\PIC-WEB-5-42-UEXT-full\TCPIP\Demo App\CustomHTTPApp.c
                  wTXSize   0x000c16       data     static F:\PIC-web\c18\PIC-WEB-5-42-UEXT-full\Microchip\TCPIP Stack\TCP.c
                        c   0x000c17       data     static F:\PIC-web\c18\PIC-WEB-5-42-UEXT-full\Microchip\TCPIP Stack\MPFS2.c
                localPort   0x000c17       data     static F:\PIC-web\c18\PIC-WEB-5-42-UEXT-full\Microchip\TCPIP Stack\BerkeleyAPI.c
                  wRXSize   0x000c18       data     static F:\PIC-web\c18\PIC-WEB-5-42-UEXT-full\Microchip\TCPIP Stack\TCP.c
                 Transmit   0x000c18       data     static F:\PIC-web\c18\PIC-WEB-5-42-UEXT-full\TCPIP\Demo App\CustomHTTPApp.c
                  vBuffer   0x000c18       data     static F:\PIC-web\c18\PIC-WEB-5-42-UEXT-full\Microchip\TCPIP Stack\TCP.c
                        i   0x000c18       data     static F:\PIC-web\c18\PIC-WEB-5-42-UEXT-full\Microchip\TCPIP Stack\Hashes.c
                   RDSave   0x000c18       data     static F:\PIC-web\c18\PIC-WEB-5-42-UEXT-full\Microchip\TCPIP Stack\ETH97J60.c
                        s   0x000c19       data     static F:\PIC-web\c18\PIC-WEB-5-42-UEXT-full\Microchip\TCPIP Stack\UDP.c
                        j   0x000c19       data     static F:\PIC-web\c18\PIC-WEB-5-42-UEXT-full\Microchip\TCPIP Stack\Hashes.c
                       h0   0x000c1a       data     static F:\PIC-web\c18\PIC-WEB-5-42-UEXT-full\Microchip\TCPIP Stack\Hashes.c
           ptrBaseAddress   0x000c1a       data     static F:\PIC-web\c18\PIC-WEB-5-42-UEXT-full\Microchip\TCPIP Stack\TCP.c
                 BaudRate   0x000c1a       data     static F:\PIC-web\c18\PIC-WEB-5-42-UEXT-full\TCPIP\Demo App\CustomHTTPApp.c
                 blockPtr   0x000c1a       data     static F:\PIC-web\c18\PIC-WEB-5-42-UEXT-full\Microchip\TCPIP Stack\Hashes.c
             partialMatch   0x000c1a       data     static F:\PIC-web\c18\PIC-WEB-5-42-UEXT-full\Microchip\TCPIP Stack\UDP.c
                 blockPtr   0x000c1a       data     static F:\PIC-web\c18\PIC-WEB-5-42-UEXT-full\Microchip\TCPIP Stack\Hashes.c
                        p   0x000c1b       data     static F:\PIC-web\c18\PIC-WEB-5-42-UEXT-full\Microchip\TCPIP Stack\UDP.c
                        i   0x000c1c       data     static F:\PIC-web\c18\PIC-WEB-5-42-UEXT-full\Microchip\TCPIP Stack\ARP.c
                     Temp   0x000c1c       data     static F:\PIC-web\c18\PIC-WEB-5-42-UEXT-full\TCPIP\Demo App\CustomHTTPApp.c
                  vMedium   0x000c1c       data     static F:\PIC-web\c18\PIC-WEB-5-42-UEXT-full\Microchip\TCPIP Stack\TCP.c
       wCurrentETHAddress   0x000c1d       data     static F:\PIC-web\c18\PIC-WEB-5-42-UEXT-full\Microchip\TCPIP Stack\TCP.c
              NewBaudRate   0x000c1e       data     static F:\PIC-web\c18\PIC-WEB-5-42-UEXT-full\TCPIP\Demo App\CustomHTTPApp.c
                       h1   0x000c1e       data     static F:\PIC-web\c18\PIC-WEB-5-42-UEXT-full\Microchip\TCPIP Stack\Hashes.c
                dwOldSeed   0x000c1f       data     static F:\PIC-web\c18\PIC-WEB-5-42-UEXT-full\Microchip\TCPIP Stack\Helpers.c
                  addrlen   0x000c20       data     static F:\PIC-web\c18\PIC-WEB-5-42-UEXT-full\TCPIP\Demo App\BerkeleyTCPServerDemo.c
                checksum1   0x000c20       data     static F:\PIC-web\c18\PIC-WEB-5-42-UEXT-full\Microchip\TCPIP Stack\TCP.c
                        i   0x000c21       data     static F:\PIC-web\c18\PIC-WEB-5-42-UEXT-full\Microchip\TCPIP Stack\NBNS.c
                        i   0x000c21       data     static F:\PIC-web\c18\PIC-WEB-5-42-UEXT-full\Microchip\TCPIP Stack\NBNS.c
                        i   0x000c22       data     static F:\PIC-web\c18\PIC-WEB-5-42-UEXT-full\TCPIP\Demo App\CustomHTTPApp.c
                        j   0x000c22       data     static F:\PIC-web\c18\PIC-WEB-5-42-UEXT-full\Microchip\TCPIP Stack\NBNS.c
                        j   0x000c22       data     static F:\PIC-web\c18\PIC-WEB-5-42-UEXT-full\Microchip\TCPIP Stack\NBNS.c
                      bfr   0x000c22       data     static F:\PIC-web\c18\PIC-WEB-5-42-UEXT-full\TCPIP\Demo App\BerkeleyTCPServerDemo.c
                checksum2   0x000c22       data     static F:\PIC-web\c18\PIC-WEB-5-42-UEXT-full\Microchip\TCPIP Stack\TCP.c
                       h2   0x000c22       data     static F:\PIC-web\c18\PIC-WEB-5-42-UEXT-full\Microchip\TCPIP Stack\Hashes.c
                        k   0x000c23       data     static F:\PIC-web\c18\PIC-WEB-5-42-UEXT-full\Microchip\TCPIP Stack\NBNS.c
                        i   0x000c23       data     static F:\PIC-web\c18\PIC-WEB-5-42-UEXT-full\Microchip\TCPIP Stack\Helpers.c
              optionsSize   0x000c24       data     static F:\PIC-web\c18\PIC-WEB-5-42-UEXT-full\Microchip\TCPIP Stack\TCP.c
                  NewLine   0x000c24       data     static F:\PIC-web\c18\PIC-WEB-5-42-UEXT-full\TCPIP\Demo App\CustomHTTPApp.c
                   dwTemp   0x000c25       data     static F:\PIC-web\c18\PIC-WEB-5-42-UEXT-full\Microchip\TCPIP Stack\TCP.c
                     hTCP   0x000c25       data     static F:\PIC-web\c18\PIC-WEB-5-42-UEXT-full\Microchip\TCPIP Stack\TCP.c
                  wMaxGet   0x000c25       data     static F:\PIC-web\c18\PIC-WEB-5-42-UEXT-full\TCPIP\Demo App\GenericTCPServer.c
                       dw   0x000c25       data     static F:\PIC-web\c18\PIC-WEB-5-42-UEXT-full\Microchip\TCPIP Stack\DHCPs.c
                       h3   0x000c26       data     static F:\PIC-web\c18\PIC-WEB-5-42-UEXT-full\Microchip\TCPIP Stack\Hashes.c
             partialMatch   0x000c26       data     static F:\PIC-web\c18\PIC-WEB-5-42-UEXT-full\Microchip\TCPIP Stack\TCP.c
                     Temp   0x000c27       data     static F:\PIC-web\c18\PIC-WEB-5-42-UEXT-full\TCPIP\Demo App\CustomHTTPApp.c
                     hash   0x000c27       data     static F:\PIC-web\c18\PIC-WEB-5-42-UEXT-full\Microchip\TCPIP Stack\TCP.c
                  wMaxPut   0x000c27       data     static F:\PIC-web\c18\PIC-WEB-5-42-UEXT-full\TCPIP\Demo App\GenericTCPServer.c
                        w   0x000c28       data     static F:\PIC-web\c18\PIC-WEB-5-42-UEXT-full\Microchip\TCPIP Stack\TCP.c
          wQueueInsertPos   0x000c29       data     static F:\PIC-web\c18\PIC-WEB-5-42-UEXT-full\Microchip\TCPIP Stack\TCP.c
            wCurrentChunk   0x000c29       data     static F:\PIC-web\c18\PIC-WEB-5-42-UEXT-full\TCPIP\Demo App\GenericTCPServer.c
                    wTemp   0x000c29       data     static F:\PIC-web\c18\PIC-WEB-5-42-UEXT-full\Microchip\TCPIP Stack\TCP.c
                  bAccept   0x000c29       data     static F:\PIC-web\c18\PIC-WEB-5-42-UEXT-full\Microchip\TCPIP Stack\DHCPs.c
         I2C_Delay_String   0x000c29       data     static F:\PIC-web\c18\PIC-WEB-5-42-UEXT-full\TCPIP\Demo App\CustomHTTPApp.c
               wActualLen   0x000c2a       data     static F:\PIC-web\c18\PIC-WEB-5-42-UEXT-full\Microchip\TCPIP Stack\TCP.c
                        i   0x000c2a       data     static F:\PIC-web\c18\PIC-WEB-5-42-UEXT-full\Microchip\TCPIP Stack\Hashes.c
                   bRenew   0x000c2a       data     static F:\PIC-web\c18\PIC-WEB-5-42-UEXT-full\Microchip\TCPIP Stack\DHCPs.c
                  Address   0x000c2b       data     static F:\PIC-web\c18\PIC-WEB-5-42-UEXT-full\TCPIP\Demo App\CustomHTTPApp.c
                  partPtr   0x000c2b       data     static F:\PIC-web\c18\PIC-WEB-5-42-UEXT-full\Microchip\TCPIP Stack\Hashes.c
            lMissingBytes   0x000c2b       data     static F:\PIC-web\c18\PIC-WEB-5-42-UEXT-full\Microchip\TCPIP Stack\TCP.c
                   tmp_ip   0x000c2b       data     static F:\PIC-web\c18\PIC-WEB-5-42-UEXT-full\Microchip\TCPIP Stack\DHCPs.c
             wFreeTXSpace   0x000c2c       data     static F:\PIC-web\c18\PIC-WEB-5-42-UEXT-full\Microchip\TCPIP Stack\TCP.c
                   endPtr   0x000c2d       data     static F:\PIC-web\c18\PIC-WEB-5-42-UEXT-full\Microchip\TCPIP Stack\Hashes.c
                  Command   0x000c2d       data     static F:\PIC-web\c18\PIC-WEB-5-42-UEXT-full\TCPIP\Demo App\CustomHTTPApp.c
                wRightLen   0x000c2e       data     static F:\PIC-web\c18\PIC-WEB-5-42-UEXT-full\Microchip\TCPIP Stack\TCP.c
                        i   0x000c2f       data     static F:\PIC-web\c18\PIC-WEB-5-42-UEXT-full\Microchip\TCPIP Stack\Helpers.c
                        i   0x000c2f       data     static F:\PIC-web\c18\PIC-WEB-5-42-UEXT-full\Microchip\TCPIP Stack\DHCPs.c
                    Value   0x000c2f       data     static F:\PIC-web\c18\PIC-WEB-5-42-UEXT-full\TCPIP\Demo App\CustomHTTPApp.c
            wMissingBytes   0x000c2f       data     static F:\PIC-web\c18\PIC-WEB-5-42-UEXT-full\Microchip\TCPIP Stack\TCP.c
                        i   0x000c2f       data     static F:\PIC-web\c18\PIC-WEB-5-42-UEXT-full\Microchip\TCPIP Stack\DHCPs.c
                        i   0x000c2f       data     static F:\PIC-web\c18\PIC-WEB-5-42-UEXT-full\Microchip\TCPIP Stack\DHCPs.c
            current_timer   0x000c2f       data     static F:\PIC-web\c18\PIC-WEB-5-42-UEXT-full\Microchip\TCPIP Stack\DHCPs.c
                        i   0x000c2f       data     static F:\PIC-web\c18\PIC-WEB-5-42-UEXT-full\Microchip\TCPIP Stack\DHCPs.c
                        i   0x000c30       data     static F:\PIC-web\c18\PIC-WEB-5-42-UEXT-full\TCPIP\Demo App\BerkeleyUDPClientDemo.c
              indexOfPool   0x000c30       data     static F:\PIC-web\c18\PIC-WEB-5-42-UEXT-full\Microchip\TCPIP Stack\DHCPs.c
                        t   0x000c30       data     static F:\PIC-web\c18\PIC-WEB-5-42-UEXT-full\Microchip\TCPIP Stack\Helpers.c
                        w   0x000c30       data     static F:\PIC-web\c18\PIC-WEB-5-42-UEXT-full\Microchip\TCPIP Stack\SNTP.c
                      len   0x000c31       data     static F:\PIC-web\c18\PIC-WEB-5-42-UEXT-full\Microchip\TCPIP Stack\HTTP2.c
                        j   0x000c31       data     static F:\PIC-web\c18\PIC-WEB-5-42-UEXT-full\Microchip\TCPIP Stack\DHCPs.c
                   length   0x000c31       data     static F:\PIC-web\c18\PIC-WEB-5-42-UEXT-full\TCPIP\Demo App\BerkeleyTCPServerDemo.c
                     lenA   0x000c31       data     static F:\PIC-web\c18\PIC-WEB-5-42-UEXT-full\Microchip\TCPIP Stack\HTTP2.c
                   ipAddr   0x000c31       data     static F:\PIC-web\c18\PIC-WEB-5-42-UEXT-full\Microchip\TCPIP Stack\DHCPs.c
                        c   0x000c31       data     static F:\PIC-web\c18\PIC-WEB-5-42-UEXT-full\Microchip\TCPIP Stack\HTTP2.c
                      len   0x000c31       data     static F:\PIC-web\c18\PIC-WEB-5-42-UEXT-full\Microchip\TCPIP Stack\HTTP2.c
                     lenA   0x000c31       data     static F:\PIC-web\c18\PIC-WEB-5-42-UEXT-full\TCPIP\Demo App\CustomHTTPApp.c
               wFreeSpace   0x000c31       data     static F:\PIC-web\c18\PIC-WEB-5-42-UEXT-full\Microchip\TCPIP Stack\TCP.c
                  addrlen   0x000c32       data     static F:\PIC-web\c18\PIC-WEB-5-42-UEXT-full\TCPIP\Demo App\BerkeleyUDPClientDemo.c
         localHeaderFlags   0x000c33       data     static F:\PIC-web\c18\PIC-WEB-5-42-UEXT-full\Microchip\TCPIP Stack\TCP.c
                        i   0x000c33       data     static F:\PIC-web\c18\PIC-WEB-5-42-UEXT-full\TCPIP\Demo App\BerkeleyTCPServerDemo.c
                     Data   0x000c33       data     static F:\PIC-web\c18\PIC-WEB-5-42-UEXT-full\TCPIP\Demo App\CustomHTTPApp.c
                        i   0x000c33       data     static F:\PIC-web\c18\PIC-WEB-5-42-UEXT-full\Microchip\TCPIP Stack\DHCPs.c
                      buf   0x000c33       data     static F:\PIC-web\c18\PIC-WEB-5-42-UEXT-full\Microchip\TCPIP Stack\HTTP2.c
                        j   0x000c33       data     static F:\PIC-web\c18\PIC-WEB-5-42-UEXT-full\Microchip\TCPIP Stack\DHCPs.c
                      buf   0x000c33       data     static F:\PIC-web\c18\PIC-WEB-5-42-UEXT-full\Microchip\TCPIP Stack\HTTP2.c
                      ptr   0x000c33       data     static F:\PIC-web\c18\PIC-WEB-5-42-UEXT-full\TCPIP\Demo App\CustomHTTPApp.c
                     lenB   0x000c33       data     static F:\PIC-web\c18\PIC-WEB-5-42-UEXT-full\TCPIP\Demo App\CustomHTTPApp.c
                     lenB   0x000c33       data     static F:\PIC-web\c18\PIC-WEB-5-42-UEXT-full\Microchip\TCPIP Stack\HTTP2.c
                   socket   0x000c34       data     static F:\PIC-web\c18\PIC-WEB-5-42-UEXT-full\Microchip\TCPIP Stack\BerkeleyAPI.c
                       dw   0x000c34       data     static F:\PIC-web\c18\PIC-WEB-5-42-UEXT-full\Microchip\TCPIP Stack\Tick.c
                        i   0x000c34       data     static F:\PIC-web\c18\PIC-WEB-5-42-UEXT-full\Microchip\TCPIP Stack\DNS.c
           localAckNumber   0x000c34       data     static F:\PIC-web\c18\PIC-WEB-5-42-UEXT-full\Microchip\TCPIP Stack\TCP.c
                    dwVal   0x000c34       data     static F:\PIC-web\c18\PIC-WEB-5-42-UEXT-full\Microchip\TCPIP Stack\Helpers.c
              Old_OSCTUNE   0x000c34       data     static F:\PIC-web\c18\PIC-WEB-5-42-UEXT-full\TCPIP\Demo App\CustomHTTPApp.c
                   socket   0x000c35       data     static F:\PIC-web\c18\PIC-WEB-5-42-UEXT-full\Microchip\TCPIP Stack\BerkeleyAPI.c
                       ps   0x000c35       data     static F:\PIC-web\c18\PIC-WEB-5-42-UEXT-full\Microchip\TCPIP Stack\BerkeleyAPI.c
              pListenSock   0x000c35       data     static F:\PIC-web\c18\PIC-WEB-5-42-UEXT-full\Microchip\TCPIP Stack\BerkeleyAPI.c
                   socket   0x000c35       data     static F:\PIC-web\c18\PIC-WEB-5-42-UEXT-full\Microchip\TCPIP Stack\BerkeleyAPI.c
                        i   0x000c35       data     static F:\PIC-web\c18\PIC-WEB-5-42-UEXT-full\Microchip\TCPIP Stack\DHCPs.c
                   Option   0x000c35       data     static F:\PIC-web\c18\PIC-WEB-5-42-UEXT-full\Microchip\TCPIP Stack\DHCPs.c
                        w   0x000c35       data     static F:\PIC-web\c18\PIC-WEB-5-42-UEXT-full\Microchip\TCPIP Stack\DNS.c
                        i   0x000c35       data     static F:\PIC-web\c18\PIC-WEB-5-42-UEXT-full\TCPIP\Demo App\CustomHTTPApp.c
                        i   0x000c35       data     static F:\PIC-web\c18\PIC-WEB-5-42-UEXT-full\TCPIP\Demo App\CustomHTTPApp.c
                        i   0x000c35       data     static F:\PIC-web\c18\PIC-WEB-5-42-UEXT-full\Microchip\TCPIP Stack\BerkeleyAPI.c
              IndexOfPool   0x000c36       data     static F:\PIC-web\c18\PIC-WEB-5-42-UEXT-full\Microchip\TCPIP Stack\DHCPs.c
                 rem_addr   0x000c36       data     static F:\PIC-web\c18\PIC-WEB-5-42-UEXT-full\Microchip\TCPIP Stack\BerkeleyAPI.c
                        w   0x000c36       data     static F:\PIC-web\c18\PIC-WEB-5-42-UEXT-full\TCPIP\Demo App\CustomHTTPApp.c
                   socket   0x000c36       data     static F:\PIC-web\c18\PIC-WEB-5-42-UEXT-full\Microchip\TCPIP Stack\BerkeleyAPI.c
                      Len   0x000c36       data     static F:\PIC-web\c18\PIC-WEB-5-42-UEXT-full\Microchip\TCPIP Stack\DHCPs.c
                DNSHeader   0x000c37       data     static F:\PIC-web\c18\PIC-WEB-5-42-UEXT-full\Microchip\TCPIP Stack\DNS.c
           remoteSockInfo   0x000c37       data     static F:\PIC-web\c18\PIC-WEB-5-42-UEXT-full\Microchip\TCPIP Stack\BerkeleyAPI.c
                        s   0x000c37       data     static F:\PIC-web\c18\PIC-WEB-5-42-UEXT-full\Microchip\TCPIP Stack\BerkeleyAPI.c
                     size   0x000c37       data     static F:\PIC-web\c18\PIC-WEB-5-42-UEXT-full\Microchip\TCPIP Stack\BerkeleyAPI.c
             clientSockID   0x000c37       data     static F:\PIC-web\c18\PIC-WEB-5-42-UEXT-full\Microchip\TCPIP Stack\BerkeleyAPI.c
                     Temp   0x000c37       data     static F:\PIC-web\c18\PIC-WEB-5-42-UEXT-full\TCPIP\Demo App\CustomHTTPApp.c
                       dw   0x000c37       data     static F:\PIC-web\c18\PIC-WEB-5-42-UEXT-full\Microchip\TCPIP Stack\DHCPs.c
                   ipAddr   0x000c37       data     static F:\PIC-web\c18\PIC-WEB-5-42-UEXT-full\Microchip\TCPIP Stack\DHCPs.c
                        i   0x000c38       data     static F:\PIC-web\c18\PIC-WEB-5-42-UEXT-full\TCPIP\Demo App\CustomHTTPApp.c
           remoteSockInfo   0x000c38       data     static F:\PIC-web\c18\PIC-WEB-5-42-UEXT-full\Microchip\TCPIP Stack\BerkeleyAPI.c
           localSeqNumber   0x000c38       data     static F:\PIC-web\c18\PIC-WEB-5-42-UEXT-full\Microchip\TCPIP Stack\TCP.c
                        i   0x000c38       data     static F:\PIC-web\c18\PIC-WEB-5-42-UEXT-full\Microchip\TCPIP Stack\Helpers.c
              socketcount   0x000c38       data     static F:\PIC-web\c18\PIC-WEB-5-42-UEXT-full\Microchip\TCPIP Stack\BerkeleyAPI.c
                    Value   0x000c39       data     static F:\PIC-web\c18\PIC-WEB-5-42-UEXT-full\TCPIP\Demo App\CustomHTTPApp.c
                  charLen   0x000c39       data     static F:\PIC-web\c18\PIC-WEB-5-42-UEXT-full\Microchip\TCPIP Stack\Helpers.c
                    dwVal   0x000c39       data     static F:\PIC-web\c18\PIC-WEB-5-42-UEXT-full\Microchip\TCPIP Stack\Helpers.c
                    pRead   0x000c39       data     static F:\PIC-web\c18\PIC-WEB-5-42-UEXT-full\Microchip\TCPIP Stack\HTTP2.c
           wGetReadyCount   0x000c39       data     static F:\PIC-web\c18\PIC-WEB-5-42-UEXT-full\Microchip\TCPIP Stack\TCP.c
               addrRemote   0x000c39       data     static F:\PIC-web\c18\PIC-WEB-5-42-UEXT-full\Microchip\TCPIP Stack\BerkeleyAPI.c
                        i   0x000c39       data     static F:\PIC-web\c18\PIC-WEB-5-42-UEXT-full\Microchip\TCPIP Stack\Helpers.c
                 wDataLen   0x000c39       data     static F:\PIC-web\c18\PIC-WEB-5-42-UEXT-full\Microchip\TCPIP Stack\TCP.c
      NVMValidationStruct   0x000c39       data     static F:\PIC-web\c18\PIC-WEB-5-42-UEXT-full\TCPIP\Demo App\MainDemo.c
               remoteInfo   0x000c39       data     static F:\PIC-web\c18\PIC-WEB-5-42-UEXT-full\Microchip\TCPIP Stack\BerkeleyAPI.c
                  ptrRead   0x000c39       data     static F:\PIC-web\c18\PIC-WEB-5-42-UEXT-full\Microchip\TCPIP Stack\TCP.c
                   socket   0x000c3a       data     static F:\PIC-web\c18\PIC-WEB-5-42-UEXT-full\Microchip\TCPIP Stack\BerkeleyAPI.c
             currentOctet   0x000c3a       data     static F:\PIC-web\c18\PIC-WEB-5-42-UEXT-full\Microchip\TCPIP Stack\Helpers.c
                 assigned   0x000c3a       data     static F:\PIC-web\c18\PIC-WEB-5-42-UEXT-full\Microchip\TCPIP Stack\BerkeleyAPI.c
                sockCount   0x000c3b       data     static F:\PIC-web\c18\PIC-WEB-5-42-UEXT-full\Microchip\TCPIP Stack\BerkeleyAPI.c
              tmp_MacAddr   0x000c3b       data     static F:\PIC-web\c18\PIC-WEB-5-42-UEXT-full\Microchip\TCPIP Stack\DHCPs.c
                wFIFOSize   0x000c3b       data     static F:\PIC-web\c18\PIC-WEB-5-42-UEXT-full\Microchip\TCPIP Stack\TCP.c
                     hTCP   0x000c3b       data     static F:\PIC-web\c18\PIC-WEB-5-42-UEXT-full\Microchip\TCPIP Stack\TCP.c
                 wDataLen   0x000c3b       data     static F:\PIC-web\c18\PIC-WEB-5-42-UEXT-full\Microchip\TCPIP Stack\TCP.c
                   pWrite   0x000c3b       data     static F:\PIC-web\c18\PIC-WEB-5-42-UEXT-full\Microchip\TCPIP Stack\HTTP2.c
           wSegmentLength   0x000c3c       data     static F:\PIC-web\c18\PIC-WEB-5-42-UEXT-full\Microchip\TCPIP Stack\TCP.c
                     hTCP   0x000c3d       data     static F:\PIC-web\c18\PIC-WEB-5-42-UEXT-full\Microchip\TCPIP Stack\BerkeleyAPI.c
                        i   0x000c3d       data     static F:\PIC-web\c18\PIC-WEB-5-42-UEXT-full\Microchip\TCPIP Stack\Helpers.c
          wBytesUntilWrap   0x000c3d       data     static F:\PIC-web\c18\PIC-WEB-5-42-UEXT-full\Microchip\TCPIP Stack\TCP.c
                     Data   0x000c3d       data     static F:\PIC-web\c18\PIC-WEB-5-42-UEXT-full\TCPIP\Demo App\CustomHTTPApp.c
                     wLen   0x000c3d       data     static F:\PIC-web\c18\PIC-WEB-5-42-UEXT-full\Microchip\TCPIP Stack\HTTP2.c
                        i   0x000c3e       data     static F:\PIC-web\c18\PIC-WEB-5-42-UEXT-full\TCPIP\Demo App\CustomHTTPApp.c
                  charLen   0x000c3e       data     static F:\PIC-web\c18\PIC-WEB-5-42-UEXT-full\Microchip\TCPIP Stack\Helpers.c
       bSegmentAcceptable   0x000c3e       data     static F:\PIC-web\c18\PIC-WEB-5-42-UEXT-full\Microchip\TCPIP Stack\TCP.c
             currentOctet   0x000c3f       data     static F:\PIC-web\c18\PIC-WEB-5-42-UEXT-full\Microchip\TCPIP Stack\Helpers.c
               wNewWindow   0x000c3f       data     static F:\PIC-web\c18\PIC-WEB-5-42-UEXT-full\Microchip\TCPIP Stack\TCP.c
              ptrLocation   0x000c3f       data     static F:\PIC-web\c18\PIC-WEB-5-42-UEXT-full\Microchip\TCPIP Stack\TCP.c
                        c   0x000c3f       data     static F:\PIC-web\c18\PIC-WEB-5-42-UEXT-full\Microchip\TCPIP Stack\HTTP2.c
                      hex   0x000c40       data     static F:\PIC-web\c18\PIC-WEB-5-42-UEXT-full\Microchip\TCPIP Stack\HTTP2.c
                        i   0x000c41       data     static F:\PIC-web\c18\PIC-WEB-5-42-UEXT-full\Microchip\TCPIP Stack\DHCPs.c
                tmpIpAddr   0x000c41       data     static F:\PIC-web\c18\PIC-WEB-5-42-UEXT-full\Microchip\TCPIP Stack\DHCPs.c
                        i   0x000c41       data     static F:\PIC-web\c18\PIC-WEB-5-42-UEXT-full\Microchip\TCPIP Stack\DHCPs.c
                wLenStart   0x000c41       data     static F:\PIC-web\c18\PIC-WEB-5-42-UEXT-full\Microchip\TCPIP Stack\TCP.c
            vOptionsBytes   0x000c41       data     static F:\PIC-web\c18\PIC-WEB-5-42-UEXT-full\Microchip\TCPIP Stack\TCP.c
                     lenA   0x000c41       data     static F:\PIC-web\c18\PIC-WEB-5-42-UEXT-full\Microchip\TCPIP Stack\HTTP2.c
                  vOption   0x000c42       data     static F:\PIC-web\c18\PIC-WEB-5-42-UEXT-full\Microchip\TCPIP Stack\TCP.c
                   _iTemp   0x000c42       data     static F:\PIC-web\c18\PIC-WEB-5-42-UEXT-full\TCPIP\Demo App\CustomHTTPApp.c
                     lenB   0x000c43       data     static F:\PIC-web\c18\PIC-WEB-5-42-UEXT-full\Microchip\TCPIP Stack\HTTP2.c
                        i   0x000c43       data     static F:\PIC-web\c18\PIC-WEB-5-42-UEXT-full\Microchip\TCPIP Stack\DHCPs.c
          cFindArrayStart   0x000c43       data     static F:\PIC-web\c18\PIC-WEB-5-42-UEXT-full\Microchip\TCPIP Stack\TCP.c
          DNSAnswerHeader   0x000c43       data     static F:\PIC-web\c18\PIC-WEB-5-42-UEXT-full\Microchip\TCPIP Stack\DNS.c
                     wMSS   0x000c43       data     static F:\PIC-web\c18\PIC-WEB-5-42-UEXT-full\Microchip\TCPIP Stack\TCP.c
              wRemotePort   0x000c43       data     static F:\PIC-web\c18\PIC-WEB-5-42-UEXT-full\Microchip\TCPIP Stack\BerkeleyAPI.c
                        i   0x000c44       data     static F:\PIC-web\c18\PIC-WEB-5-42-UEXT-full\TCPIP\Demo App\Olimex_Demo_Files\Custom_UART.c
                       fp   0x000c44       data     static F:\PIC-web\c18\PIC-WEB-5-42-UEXT-full\Microchip\TCPIP Stack\HTTP2.c
              SourceIndex   0x000c44       data     static F:\PIC-web\c18\PIC-WEB-5-42-UEXT-full\TCPIP\Demo App\Olimex_Demo_Files\Misc_Functions.c
                    Error   0x000c44       data     static F:\PIC-web\c18\PIC-WEB-5-42-UEXT-full\TCPIP\Demo App\Olimex_Demo_Files\Custom_I2C.c
                     Temp   0x000c44       data     static F:\PIC-web\c18\PIC-WEB-5-42-UEXT-full\TCPIP\Demo App\Olimex_Demo_Files\Misc_Functions.c
                  TempVar   0x000c44       data     static F:\PIC-web\c18\PIC-WEB-5-42-UEXT-full\TCPIP\Demo App\Olimex_Demo_Files\Custom_SPI_Low.c
                  TempVar   0x000c44       data     static F:\PIC-web\c18\PIC-WEB-5-42-UEXT-full\TCPIP\Demo App\Olimex_Demo_Files\Custom_SPI_Low.c
                     addr   0x000c44       data     static F:\PIC-web\c18\PIC-WEB-5-42-UEXT-full\Microchip\TCPIP Stack\MPFS2.c
                    Error   0x000c44       data     static F:\PIC-web\c18\PIC-WEB-5-42-UEXT-full\TCPIP\Demo App\Olimex_Demo_Files\Custom_I2C.c
                        i   0x000c45       data     static F:\PIC-web\c18\PIC-WEB-5-42-UEXT-full\Microchip\TCPIP Stack\DHCPs.c
                        i   0x000c45       data     static F:\PIC-web\c18\PIC-WEB-5-42-UEXT-full\Microchip\TCPIP Stack\TCP.c
                    hMPFS   0x000c45       data     static F:\PIC-web\c18\PIC-WEB-5-42-UEXT-full\Microchip\TCPIP Stack\MPFS2.c
                    hMPFS   0x000c45       data     static F:\PIC-web\c18\PIC-WEB-5-42-UEXT-full\Microchip\TCPIP Stack\MPFS2.c
                        i   0x000c45       data     static F:\PIC-web\c18\PIC-WEB-5-42-UEXT-full\TCPIP\Demo App\Olimex_Demo_Files\Custom_I2C.c
                    local   0x000c45       data     static F:\PIC-web\c18\PIC-WEB-5-42-UEXT-full\Microchip\TCPIP Stack\BerkeleyAPI.c
                DestIndex   0x000c45       data     static F:\PIC-web\c18\PIC-WEB-5-42-UEXT-full\TCPIP\Demo App\Olimex_Demo_Files\Misc_Functions.c
                     temp   0x000c45       data     static F:\PIC-web\c18\PIC-WEB-5-42-UEXT-full\Microchip\TCPIP Stack\MPFS2.c
                 HexDigit   0x000c46       data     static F:\PIC-web\c18\PIC-WEB-5-42-UEXT-full\TCPIP\Demo App\Olimex_Demo_Files\Misc_Functions.c
                 nameHash   0x000c46       data     static F:\PIC-web\c18\PIC-WEB-5-42-UEXT-full\Microchip\TCPIP Stack\MPFS2.c
                        j   0x000c46       data     static F:\PIC-web\c18\PIC-WEB-5-42-UEXT-full\Microchip\TCPIP Stack\TCP.c
                        k   0x000c47       data     static F:\PIC-web\c18\PIC-WEB-5-42-UEXT-full\Microchip\TCPIP Stack\TCP.c
                        i   0x000c48       data     static F:\PIC-web\c18\PIC-WEB-5-42-UEXT-full\Microchip\TCPIP Stack\MPFS2.c
                isFinding   0x000c48       data     static F:\PIC-web\c18\PIC-WEB-5-42-UEXT-full\Microchip\TCPIP Stack\TCP.c
                        i   0x000c48       data     static F:\PIC-web\c18\PIC-WEB-5-42-UEXT-full\TCPIP\Demo App\Olimex_Demo_Files\Misc_Functions.c
                   buffer   0x000c49       data     static F:\PIC-web\c18\PIC-WEB-5-42-UEXT-full\Microchip\TCPIP Stack\TCP.c
                    First   0x000c4a       data     static F:\PIC-web\c18\PIC-WEB-5-42-UEXT-full\TCPIP\Demo App\Olimex_Demo_Files\Misc_Functions.c
                hashCache   0x000c4a       data     static F:\PIC-web\c18\PIC-WEB-5-42-UEXT-full\Microchip\TCPIP Stack\MPFS2.c
            Negative_Flag   0x000c4c       data     static F:\PIC-web\c18\PIC-WEB-5-42-UEXT-full\TCPIP\Demo App\Olimex_Demo_Files\Misc_Functions.c
          wBytesAvailable   0x000c4d       data     static F:\PIC-web\c18\PIC-WEB-5-42-UEXT-full\Microchip\TCPIP Stack\UDP.c
                   ReadPT   0x000c4d       data     static F:\PIC-web\c18\PIC-WEB-5-42-UEXT-full\Microchip\TCPIP Stack\ETH97J60.c
                 RightPtr   0x000c4d       data     static F:\PIC-web\c18\PIC-WEB-5-42-UEXT-full\Microchip\TCPIP Stack\DNS.c
                 RightPtr   0x000c4d       data     static F:\PIC-web\c18\PIC-WEB-5-42-UEXT-full\Microchip\TCPIP Stack\DNS.c
          NewRXRDLocation   0x000c4d       data     static F:\PIC-web\c18\PIC-WEB-5-42-UEXT-full\Microchip\TCPIP Stack\ETH97J60.c
                   System   0x000c4e       data     static F:\PIC-web\c18\PIC-WEB-5-42-UEXT-full\TCPIP\Demo App\Olimex_Demo_Files\Misc_Functions.c
                        i   0x000c4f       data     static F:\PIC-web\c18\PIC-WEB-5-42-UEXT-full\Microchip\TCPIP Stack\DNS.c
                        i   0x000c4f       data     static F:\PIC-web\c18\PIC-WEB-5-42-UEXT-full\Microchip\TCPIP Stack\DNS.c
                    Digit   0x000c50       data     static F:\PIC-web\c18\PIC-WEB-5-42-UEXT-full\TCPIP\Demo App\Olimex_Demo_Files\Misc_Functions.c
                      Len   0x000c50       data     static F:\PIC-web\c18\PIC-WEB-5-42-UEXT-full\Microchip\TCPIP Stack\DNS.c
                        i   0x000c50       data     static F:\PIC-web\c18\PIC-WEB-5-42-UEXT-full\Microchip\TCPIP Stack\DNS.c
                      Len   0x000c51       data     static F:\PIC-web\c18\PIC-WEB-5-42-UEXT-full\Microchip\TCPIP Stack\DNS.c
                    wTemp   0x000c52       data     static F:\PIC-web\c18\PIC-WEB-5-42-UEXT-full\Microchip\TCPIP Stack\UDP.c
                   socket   0x000c55       data     static F:\PIC-web\c18\PIC-WEB-5-42-UEXT-full\Microchip\TCPIP Stack\BerkeleyAPI.c
                    wTemp   0x000c55       data     static F:\PIC-web\c18\PIC-WEB-5-42-UEXT-full\Microchip\TCPIP Stack\UDP.c
                   packet   0x000c55       data     static F:\PIC-web\c18\PIC-WEB-5-42-UEXT-full\Microchip\TCPIP Stack\ARP.c
                        h   0x000c55       data     static F:\PIC-web\c18\PIC-WEB-5-42-UEXT-full\Microchip\TCPIP Stack\UDP.c
                   socket   0x000c55       data     static F:\PIC-web\c18\PIC-WEB-5-42-UEXT-full\Microchip\TCPIP Stack\BerkeleyAPI.c
                        i   0x000c57       data     static F:\PIC-web\c18\PIC-WEB-5-42-UEXT-full\Microchip\TCPIP Stack\BerkeleyAPI.c
               local_addr   0x000c57       data     static F:\PIC-web\c18\PIC-WEB-5-42-UEXT-full\Microchip\TCPIP Stack\BerkeleyAPI.c
          bSocketWasReset   0x000c58       data     static F:\PIC-web\c18\PIC-WEB-5-42-UEXT-full\Microchip\TCPIP Stack\BerkeleyAPI.c
                        i   0x000c59       data     static F:\PIC-web\c18\PIC-WEB-5-42-UEXT-full\Microchip\TCPIP Stack\Helpers.c
                    lPort   0x000c59       data     static F:\PIC-web\c18\PIC-WEB-5-42-UEXT-full\Microchip\TCPIP Stack\BerkeleyAPI.c
                      ptr   0x000c5a       data     static F:\PIC-web\c18\PIC-WEB-5-42-UEXT-full\Microchip\TCPIP Stack\MPFS2.c
                   ptrBuf   0x000c5b       data     static F:\PIC-web\c18\PIC-WEB-5-42-UEXT-full\Microchip\TCPIP Stack\HTTP2.c
                        s   0x000c5b       data     static F:\PIC-web\c18\PIC-WEB-5-42-UEXT-full\Microchip\TCPIP Stack\UDP.c
                        p   0x000c5c       data     static F:\PIC-web\c18\PIC-WEB-5-42-UEXT-full\Microchip\TCPIP Stack\UDP.c
                        c   0x000c5d       data     static F:\PIC-web\c18\PIC-WEB-5-42-UEXT-full\Microchip\TCPIP Stack\MPFS2.c
           wGetReadyCount   0x000c5d       data     static F:\PIC-web\c18\PIC-WEB-5-42-UEXT-full\Microchip\TCPIP Stack\TCP.c
                        p   0x000c5d       data     static F:\PIC-web\c18\PIC-WEB-5-42-UEXT-full\Microchip\TCPIP Stack\UDP.c
               wUDPLength   0x000c5f       data     static F:\PIC-web\c18\PIC-WEB-5-42-UEXT-full\Microchip\TCPIP Stack\UDP.c
                 RightLen   0x000c5f       data     static F:\PIC-web\c18\PIC-WEB-5-42-UEXT-full\Microchip\TCPIP Stack\TCP.c
             pseudoHeader   0x000c61       data     static F:\PIC-web\c18\PIC-WEB-5-42-UEXT-full\Microchip\TCPIP Stack\UDP.c
                        i   0x000c69       data     static F:\PIC-web\c18\PIC-WEB-5-42-UEXT-full\Microchip\TCPIP Stack\Telnet.c
                 filename   0x000c69       data     static F:\PIC-web\c18\PIC-WEB-5-42-UEXT-full\TCPIP\Demo App\CustomHTTPApp.c
           vTelnetSession   0x000c6a       data     static F:\PIC-web\c18\PIC-WEB-5-42-UEXT-full\Microchip\TCPIP Stack\Telnet.c
                        w   0x000c6b       data     static F:\PIC-web\c18\PIC-WEB-5-42-UEXT-full\Microchip\TCPIP Stack\Telnet.c
             wReadPtrSave   0x000c6d       data     static F:\PIC-web\c18\PIC-WEB-5-42-UEXT-full\Microchip\TCPIP Stack\UDP.c
                       w2   0x000c6d       data     static F:\PIC-web\c18\PIC-WEB-5-42-UEXT-full\Microchip\TCPIP Stack\Telnet.c
                wChecksum   0x000c6f       data     static F:\PIC-web\c18\PIC-WEB-5-42-UEXT-full\Microchip\TCPIP Stack\UDP.c
                 MySocket   0x000c6f       data     static F:\PIC-web\c18\PIC-WEB-5-42-UEXT-full\Microchip\TCPIP Stack\Telnet.c
              TelnetState   0x000c70       data     static F:\PIC-web\c18\PIC-WEB-5-42-UEXT-full\Microchip\TCPIP Stack\Telnet.c
                    vTime   0x000c71       data     static F:\PIC-web\c18\PIC-WEB-5-42-UEXT-full\Microchip\TCPIP Stack\Telnet.c
                dataCount   0x000c71       data     static F:\PIC-web\c18\PIC-WEB-5-42-UEXT-full\Microchip\TCPIP Stack\StackTsk.c
              tempLocalIP   0x000c73       data     static F:\PIC-web\c18\PIC-WEB-5-42-UEXT-full\Microchip\TCPIP Stack\StackTsk.c
               cFrameType   0x000c77       data     static F:\PIC-web\c18\PIC-WEB-5-42-UEXT-full\Microchip\TCPIP Stack\StackTsk.c
             cIPFrameType   0x000c78       data     static F:\PIC-web\c18\PIC-WEB-5-42-UEXT-full\Microchip\TCPIP Stack\StackTsk.c
        bCurrentLinkState   0x000c79       data     static F:\PIC-web\c18\PIC-WEB-5-42-UEXT-full\Microchip\TCPIP Stack\StackTsk.c
                   status   0x000c7d       data     static F:\PIC-web\c18\PIC-WEB-5-42-UEXT-full\Microchip\TCPIP Stack\HTTP2.c
                     wPos   0x000c7e       data     static F:\PIC-web\c18\PIC-WEB-5-42-UEXT-full\Microchip\TCPIP Stack\HTTP2.c
                   status   0x000c80       data     static F:\PIC-web\c18\PIC-WEB-5-42-UEXT-full\Microchip\TCPIP Stack\HTTP2.c
                   status   0x000c80       data     static F:\PIC-web\c18\PIC-WEB-5-42-UEXT-full\Microchip\TCPIP Stack\HTTP2.c
                        i   0x000c81       data     static F:\PIC-web\c18\PIC-WEB-5-42-UEXT-full\TCPIP\Demo App\CustomHTTPApp.c
                     wVal   0x000c82       data     static F:\PIC-web\c18\PIC-WEB-5-42-UEXT-full\Microchip\TCPIP Stack\TCP.c
                        i   0x000c82       data     static F:\PIC-web\c18\PIC-WEB-5-42-UEXT-full\Microchip\TCPIP Stack\TCP.c
                       dw   0x000c82       data     static F:\PIC-web\c18\PIC-WEB-5-42-UEXT-full\Microchip\TCPIP Stack\Tick.c
                   header   0x000c84       data     static F:\PIC-web\c18\PIC-WEB-5-42-UEXT-full\Microchip\TCPIP Stack\TCP.c
                 lastTick   0x000c86       data     static F:\PIC-web\c18\PIC-WEB-5-42-UEXT-full\TCPIP\Demo App\UARTConfig.c
              currentTick   0x000c8a       data     static F:\PIC-web\c18\PIC-WEB-5-42-UEXT-full\TCPIP\Demo App\UARTConfig.c
                 response   0x000c8e       data     static F:\PIC-web\c18\PIC-WEB-5-42-UEXT-full\TCPIP\Demo App\UARTConfig.c
                  options   0x000c98       data     static F:\PIC-web\c18\PIC-WEB-5-42-UEXT-full\Microchip\TCPIP Stack\TCP.c
             pseudoHeader   0x000c9c       data     static F:\PIC-web\c18\PIC-WEB-5-42-UEXT-full\Microchip\TCPIP Stack\TCP.c
              tempIPValue   0x000ca2       data     static F:\PIC-web\c18\PIC-WEB-5-42-UEXT-full\TCPIP\Demo App\UARTConfig.c
              destIPValue   0x000ca6       data     static F:\PIC-web\c18\PIC-WEB-5-42-UEXT-full\TCPIP\Demo App\UARTConfig.c
                   wvTemp   0x000ca8       data     static F:\PIC-web\c18\PIC-WEB-5-42-UEXT-full\TCPIP\Demo App\UARTConfig.c
                      len   0x000ca8       data     static F:\PIC-web\c18\PIC-WEB-5-42-UEXT-full\Microchip\TCPIP Stack\TCP.c
                    Start   0x000caa       data     static F:\PIC-web\c18\PIC-WEB-5-42-UEXT-full\Microchip\TCPIP Stack\ETH97J60.c
                   ReadPT   0x000caa       data     static F:\PIC-web\c18\PIC-WEB-5-42-UEXT-full\Microchip\TCPIP Stack\ETH97J60.c
                 ReadSave   0x000caa       data     static F:\PIC-web\c18\PIC-WEB-5-42-UEXT-full\Microchip\TCPIP Stack\ETH97J60.c
                        i   0x000caa       data     static F:\PIC-web\c18\PIC-WEB-5-42-UEXT-full\Microchip\TCPIP Stack\ETH97J60.c
                   header   0x000caa       data     static F:\PIC-web\c18\PIC-WEB-5-42-UEXT-full\Microchip\TCPIP Stack\IP.c
                   oldVal   0x000caa       data     static F:\PIC-web\c18\PIC-WEB-5-42-UEXT-full\Microchip\TCPIP Stack\ETH97J60.c
                   oldVal   0x000caa       data     static F:\PIC-web\c18\PIC-WEB-5-42-UEXT-full\Microchip\TCPIP Stack\ETH97J60.c
                    bQuit   0x000caa       data     static F:\PIC-web\c18\PIC-WEB-5-42-UEXT-full\TCPIP\Demo App\UARTConfig.c
                        i   0x000cab       data     static F:\PIC-web\c18\PIC-WEB-5-42-UEXT-full\Microchip\TCPIP Stack\MPFS2.c
                     page   0x000cab       data     static F:\PIC-web\c18\PIC-WEB-5-42-UEXT-full\Microchip\TCPIP Stack\SPIFlash.c
                     page   0x000cab       data     static F:\PIC-web\c18\PIC-WEB-5-42-UEXT-full\Microchip\TCPIP Stack\SPIFlash.c
                     addr   0x000cab       data     static F:\PIC-web\c18\PIC-WEB-5-42-UEXT-full\Microchip\TCPIP Stack\SPIFlash.c
                     addr   0x000cab       data     static F:\PIC-web\c18\PIC-WEB-5-42-UEXT-full\Microchip\TCPIP Stack\SPIFlash.c
                       dw   0x000cab       data     static F:\PIC-web\c18\PIC-WEB-5-42-UEXT-full\Microchip\TCPIP Stack\Tick.c
                WriteSave   0x000cac       data     static F:\PIC-web\c18\PIC-WEB-5-42-UEXT-full\Microchip\TCPIP Stack\ETH97J60.c
                 Checksum   0x000cac       data     static F:\PIC-web\c18\PIC-WEB-5-42-UEXT-full\Microchip\TCPIP Stack\ETH97J60.c
                  WritePT   0x000cac       data     static F:\PIC-web\c18\PIC-WEB-5-42-UEXT-full\Microchip\TCPIP Stack\ETH97J60.c
                   result   0x000cad       data     static F:\PIC-web\c18\PIC-WEB-5-42-UEXT-full\Microchip\TCPIP Stack\SPIFlash.c
                     page   0x000cad       data     static F:\PIC-web\c18\PIC-WEB-5-42-UEXT-full\Microchip\TCPIP Stack\SPIFlash.c
       UpdateWritePointer   0x000cae       data     static F:\PIC-web\c18\PIC-WEB-5-42-UEXT-full\Microchip\TCPIP Stack\ETH97J60.c
        UpdateReadPointer   0x000caf       data     static F:\PIC-web\c18\PIC-WEB-5-42-UEXT-full\Microchip\TCPIP Stack\ETH97J60.c
                 ChunkLen   0x000cb0       data     static F:\PIC-web\c18\PIC-WEB-5-42-UEXT-full\Microchip\TCPIP Stack\ETH97J60.c
               DataBuffer   0x000cb2       data     static F:\PIC-web\c18\PIC-WEB-5-42-UEXT-full\Microchip\TCPIP Stack\ETH97J60.c
                        t   0x000cbe       data     static F:\PIC-web\c18\PIC-WEB-5-42-UEXT-full\Microchip\TCPIP Stack\Helpers.c
                        i   0x000cbe       data     static F:\PIC-web\c18\PIC-WEB-5-42-UEXT-full\Microchip\TCPIP Stack\Helpers.c
                      val   0x000cc0       data     static F:\PIC-web\c18\PIC-WEB-5-42-UEXT-full\Microchip\TCPIP Stack\Helpers.c
                        b   0x000cc0       data     static F:\PIC-web\c18\PIC-WEB-5-42-UEXT-full\Microchip\TCPIP Stack\Helpers.c
                      sum   0x000cc2       data     static F:\PIC-web\c18\PIC-WEB-5-42-UEXT-full\Microchip\TCPIP Stack\Helpers.c
                  DataPtr   0x000cc6       data     static F:\PIC-web\c18\PIC-WEB-5-42-UEXT-full\Microchip\TCPIP Stack\ETH97J60.c
                     lenA   0x000cc8       data     static F:\PIC-web\c18\PIC-WEB-5-42-UEXT-full\Microchip\TCPIP Stack\HTTP2.c
                     lenB   0x000cca       data     static F:\PIC-web\c18\PIC-WEB-5-42-UEXT-full\Microchip\TCPIP Stack\HTTP2.c
                        c   0x000ccc       data     static F:\PIC-web\c18\PIC-WEB-5-42-UEXT-full\Microchip\TCPIP Stack\HTTP2.c
                        i   0x000ccd       data     static F:\PIC-web\c18\PIC-WEB-5-42-UEXT-full\Microchip\TCPIP Stack\HTTP2.c
                   isDone   0x000cce       data     static F:\PIC-web\c18\PIC-WEB-5-42-UEXT-full\Microchip\TCPIP Stack\HTTP2.c
                      ext   0x000ccf       data     static F:\PIC-web\c18\PIC-WEB-5-42-UEXT-full\Microchip\TCPIP Stack\HTTP2.c
                   buffer   0x000cd1       data     static F:\PIC-web\c18\PIC-WEB-5-42-UEXT-full\Microchip\TCPIP Stack\HTTP2.c
               wActualLen   0x000ce1       data     static F:\PIC-web\c18\PIC-WEB-5-42-UEXT-full\Microchip\TCPIP Stack\TCP.c
             wFreeTXSpace   0x000ce3       data     static F:\PIC-web\c18\PIC-WEB-5-42-UEXT-full\Microchip\TCPIP Stack\TCP.c
                wRightLen   0x000ce5       data     static F:\PIC-web\c18\PIC-WEB-5-42-UEXT-full\Microchip\TCPIP Stack\TCP.c
                StartTime   0x000ce7       data     static F:\PIC-web\c18\PIC-WEB-5-42-UEXT-full\TCPIP\Demo App\MainDemo.c
                        w   0x000ceb       data     static F:\PIC-web\c18\PIC-WEB-5-42-UEXT-full\Microchip\TCPIP Stack\ETH97J60.c
                        i   0x000ced       data     static F:\PIC-web\c18\PIC-WEB-5-42-UEXT-full\Microchip\TCPIP Stack\ETH97J60.c
                     conn   0x000cee       data     static F:\PIC-web\c18\PIC-WEB-5-42-UEXT-full\Microchip\TCPIP Stack\HTTP2.c
        __HTTPNeedsAuth:0   0x000e00       data     extern F:\PIC-web\c18\PIC-WEB-5-42-UEXT-full\TCPIP\Demo App\CustomHTTPApp.c
                    cFile   0x000e00       data     static F:\PIC-web\c18\PIC-WEB-5-42-UEXT-full\TCPIP\Demo App\CustomHTTPApp.c
                    cUser   0x000e02       data     static F:\PIC-web\c18\PIC-WEB-5-42-UEXT-full\TCPIP\Demo App\CustomHTTPApp.c
        __HTTPCheckAuth:0   0x000e02       data     extern F:\PIC-web\c18\PIC-WEB-5-42-UEXT-full\TCPIP\Demo App\CustomHTTPApp.c
                    cPass   0x000e04       data     static F:\PIC-web\c18\PIC-WEB-5-42-UEXT-full\TCPIP\Demo App\CustomHTTPApp.c
        __HTTPCheckAuth:1   0x000e04       data     extern F:\PIC-web\c18\PIC-WEB-5-42-UEXT-full\TCPIP\Demo App\CustomHTTPApp.c
                      md5   0x000e06       data     static F:\PIC-web\c18\PIC-WEB-5-42-UEXT-full\TCPIP\Demo App\CustomHTTPApp.c
                  ptrData   0x000e5f       data     static F:\PIC-web\c18\PIC-WEB-5-42-UEXT-full\TCPIP\Demo App\CustomHTTPApp.c
                   szPort   0x000e61       data     static F:\PIC-web\c18\PIC-WEB-5-42-UEXT-full\TCPIP\Demo App\CustomHTTPApp.c
                      num   0x000e63       data     static F:\PIC-web\c18\PIC-WEB-5-42-UEXT-full\TCPIP\Demo App\CustomHTTPApp.c
        __HTTPPrint_btn:0   0x000e63       data     extern F:\PIC-web\c18\PIC-WEB-5-42-UEXT-full\TCPIP\Demo App\CustomHTTPApp.c
                      num   0x000e65       data     static F:\PIC-web\c18\PIC-WEB-5-42-UEXT-full\TCPIP\Demo App\CustomHTTPApp.c
        __HTTPPrint_led:0   0x000e65       data     extern F:\PIC-web\c18\PIC-WEB-5-42-UEXT-full\TCPIP\Demo App\CustomHTTPApp.c
                      num   0x000e67       data     static F:\PIC-web\c18\PIC-WEB-5-42-UEXT-full\TCPIP\Demo App\CustomHTTPApp.c
__HTTPPrint_ledSelected:0   0x000e67       data     extern F:\PIC-web\c18\PIC-WEB-5-42-UEXT-full\TCPIP\Demo App\CustomHTTPApp.c
                    state   0x000e69       data     static F:\PIC-web\c18\PIC-WEB-5-42-UEXT-full\TCPIP\Demo App\CustomHTTPApp.c
__HTTPPrint_ledSelected:1   0x000e69       data     extern F:\PIC-web\c18\PIC-WEB-5-42-UEXT-full\TCPIP\Demo App\CustomHTTPApp.c
                       ip   0x000e6b       data     static F:\PIC-web\c18\PIC-WEB-5-42-UEXT-full\TCPIP\Demo App\CustomHTTPApp.c
          __HTTPPrintIP:0   0x000e6b       data     extern F:\PIC-web\c18\PIC-WEB-5-42-UEXT-full\TCPIP\Demo App\CustomHTTPApp.c
                      num   0x000e6f       data     static F:\PIC-web\c18\PIC-WEB-5-42-UEXT-full\TCPIP\Demo App\CustomHTTPApp.c
  __HTTPPrint_read_comm:0   0x000e6f       data     extern F:\PIC-web\c18\PIC-WEB-5-42-UEXT-full\TCPIP\Demo App\CustomHTTPApp.c
                      num   0x000e71       data     static F:\PIC-web\c18\PIC-WEB-5-42-UEXT-full\TCPIP\Demo App\CustomHTTPApp.c
 __HTTPPrint_write_comm:0   0x000e71       data     extern F:\PIC-web\c18\PIC-WEB-5-42-UEXT-full\TCPIP\Demo App\CustomHTTPApp.c
                        i   0x000e73       data     static F:\PIC-web\c18\PIC-WEB-5-42-UEXT-full\TCPIP\Demo App\CustomHTTPApp.c
__HTTPPrint_ddns_service:0   0x000e73       data     extern F:\PIC-web\c18\PIC-WEB-5-42-UEXT-full\TCPIP\Demo App\CustomHTTPApp.c
                  smStack   0x000e75       data     static F:\PIC-web\c18\PIC-WEB-5-42-UEXT-full\Microchip\TCPIP Stack\StackTsk.c
               remoteNode   0x000e76       data     extern F:\PIC-web\c18\PIC-WEB-5-42-UEXT-full\Microchip\TCPIP Stack\StackTsk.c
                   MAADR5   0x000e80       data     extern E:\3.46\pic18-lt\cxx-framework\src\traditional\proc\p18f67j60.asm
                   MAADR6   0x000e81       data     extern E:\3.46\pic18-lt\cxx-framework\src\traditional\proc\p18f67j60.asm
                   MAADR3   0x000e82       data     extern E:\3.46\pic18-lt\cxx-framework\src\traditional\proc\p18f67j60.asm
                   MAADR4   0x000e83       data     extern E:\3.46\pic18-lt\cxx-framework\src\traditional\proc\p18f67j60.asm
                   MAADR1   0x000e84       data     extern E:\3.46\pic18-lt\cxx-framework\src\traditional\proc\p18f67j60.asm
                   MAADR2   0x000e85       data     extern E:\3.46\pic18-lt\cxx-framework\src\traditional\proc\p18f67j60.asm
                   MISTAT   0x000e8a       data     extern E:\3.46\pic18-lt\cxx-framework\src\traditional\proc\p18f67j60.asm
               MISTATbits   0x000e8a       data     extern E:\3.46\pic18-lt\cxx-framework\src\traditional\proc\p18f67j60.asm
              EFLOCONbits   0x000e97       data     extern E:\3.46\pic18-lt\cxx-framework\src\traditional\proc\p18f67j60.asm
                  EFLOCON   0x000e97       data     extern E:\3.46\pic18-lt\cxx-framework\src\traditional\proc\p18f67j60.asm
                   EPAUSL   0x000e98       data     extern E:\3.46\pic18-lt\cxx-framework\src\traditional\proc\p18f67j60.asm
                    EPAUS   0x000e98       data     extern E:\3.46\pic18-lt\cxx-framework\src\traditional\proc\p18f67j60.asm
                   EPAUSH   0x000e99       data     extern E:\3.46\pic18-lt\cxx-framework\src\traditional\proc\p18f67j60.asm
               MACON1bits   0x000ea0       data     extern E:\3.46\pic18-lt\cxx-framework\src\traditional\proc\p18f67j60.asm
                   MACON1   0x000ea0       data     extern E:\3.46\pic18-lt\cxx-framework\src\traditional\proc\p18f67j60.asm
               MACON3bits   0x000ea2       data     extern E:\3.46\pic18-lt\cxx-framework\src\traditional\proc\p18f67j60.asm
                   MACON3   0x000ea2       data     extern E:\3.46\pic18-lt\cxx-framework\src\traditional\proc\p18f67j60.asm
                   MACON4   0x000ea3       data     extern E:\3.46\pic18-lt\cxx-framework\src\traditional\proc\p18f67j60.asm
               MACON4bits   0x000ea3       data     extern E:\3.46\pic18-lt\cxx-framework\src\traditional\proc\p18f67j60.asm
                  MABBIPG   0x000ea4       data     extern E:\3.46\pic18-lt\cxx-framework\src\traditional\proc\p18f67j60.asm
              MABBIPGbits   0x000ea4       data     extern E:\3.46\pic18-lt\cxx-framework\src\traditional\proc\p18f67j60.asm
                   MAIPGL   0x000ea6       data     extern E:\3.46\pic18-lt\cxx-framework\src\traditional\proc\p18f67j60.asm
                    MAIPG   0x000ea6       data     extern E:\3.46\pic18-lt\cxx-framework\src\traditional\proc\p18f67j60.asm
                   MAIPGH   0x000ea7       data     extern E:\3.46\pic18-lt\cxx-framework\src\traditional\proc\p18f67j60.asm
                  MAMXFLL   0x000eaa       data     extern E:\3.46\pic18-lt\cxx-framework\src\traditional\proc\p18f67j60.asm
                   MAMXFL   0x000eaa       data     extern E:\3.46\pic18-lt\cxx-framework\src\traditional\proc\p18f67j60.asm
                  MAMXFLH   0x000eab       data     extern E:\3.46\pic18-lt\cxx-framework\src\traditional\proc\p18f67j60.asm
                    MICMD   0x000eb2       data     extern E:\3.46\pic18-lt\cxx-framework\src\traditional\proc\p18f67j60.asm
                MICMDbits   0x000eb2       data     extern E:\3.46\pic18-lt\cxx-framework\src\traditional\proc\p18f67j60.asm
                 MIREGADR   0x000eb4       data     extern E:\3.46\pic18-lt\cxx-framework\src\traditional\proc\p18f67j60.asm
                     MIWR   0x000eb6       data     extern E:\3.46\pic18-lt\cxx-framework\src\traditional\proc\p18f67j60.asm
                    MIWRL   0x000eb6       data     extern E:\3.46\pic18-lt\cxx-framework\src\traditional\proc\p18f67j60.asm
                    MIWRH   0x000eb7       data     extern E:\3.46\pic18-lt\cxx-framework\src\traditional\proc\p18f67j60.asm
                     MIRD   0x000eb8       data     extern E:\3.46\pic18-lt\cxx-framework\src\traditional\proc\p18f67j60.asm
                    MIRDL   0x000eb8       data     extern E:\3.46\pic18-lt\cxx-framework\src\traditional\proc\p18f67j60.asm
                    MIRDH   0x000eb9       data     extern E:\3.46\pic18-lt\cxx-framework\src\traditional\proc\p18f67j60.asm
                     EHT0   0x000ec0       data     extern E:\3.46\pic18-lt\cxx-framework\src\traditional\proc\p18f67j60.asm
                     EHT1   0x000ec1       data     extern E:\3.46\pic18-lt\cxx-framework\src\traditional\proc\p18f67j60.asm
                     EHT2   0x000ec2       data     extern E:\3.46\pic18-lt\cxx-framework\src\traditional\proc\p18f67j60.asm
                     EHT3   0x000ec3       data     extern E:\3.46\pic18-lt\cxx-framework\src\traditional\proc\p18f67j60.asm
                     EHT4   0x000ec4       data     extern E:\3.46\pic18-lt\cxx-framework\src\traditional\proc\p18f67j60.asm
                     EHT5   0x000ec5       data     extern E:\3.46\pic18-lt\cxx-framework\src\traditional\proc\p18f67j60.asm
                     EHT6   0x000ec6       data     extern E:\3.46\pic18-lt\cxx-framework\src\traditional\proc\p18f67j60.asm
                     EHT7   0x000ec7       data     extern E:\3.46\pic18-lt\cxx-framework\src\traditional\proc\p18f67j60.asm
                    EPMM0   0x000ec8       data     extern E:\3.46\pic18-lt\cxx-framework\src\traditional\proc\p18f67j60.asm
                    EPMM1   0x000ec9       data     extern E:\3.46\pic18-lt\cxx-framework\src\traditional\proc\p18f67j60.asm
                    EPMM2   0x000eca       data     extern E:\3.46\pic18-lt\cxx-framework\src\traditional\proc\p18f67j60.asm
                    EPMM3   0x000ecb       data     extern E:\3.46\pic18-lt\cxx-framework\src\traditional\proc\p18f67j60.asm
                    EPMM4   0x000ecc       data     extern E:\3.46\pic18-lt\cxx-framework\src\traditional\proc\p18f67j60.asm
                    EPMM5   0x000ecd       data     extern E:\3.46\pic18-lt\cxx-framework\src\traditional\proc\p18f67j60.asm
                    EPMM6   0x000ece       data     extern E:\3.46\pic18-lt\cxx-framework\src\traditional\proc\p18f67j60.asm
                    EPMM7   0x000ecf       data     extern E:\3.46\pic18-lt\cxx-framework\src\traditional\proc\p18f67j60.asm
                   EPMCSL   0x000ed0       data     extern E:\3.46\pic18-lt\cxx-framework\src\traditional\proc\p18f67j60.asm
                    EPMCS   0x000ed0       data     extern E:\3.46\pic18-lt\cxx-framework\src\traditional\proc\p18f67j60.asm
                   EPMCSH   0x000ed1       data     extern E:\3.46\pic18-lt\cxx-framework\src\traditional\proc\p18f67j60.asm
                     EPMO   0x000ed4       data     extern E:\3.46\pic18-lt\cxx-framework\src\traditional\proc\p18f67j60.asm
                    EPMOL   0x000ed4       data     extern E:\3.46\pic18-lt\cxx-framework\src\traditional\proc\p18f67j60.asm
                    EPMOH   0x000ed5       data     extern E:\3.46\pic18-lt\cxx-framework\src\traditional\proc\p18f67j60.asm
              ERXFCONbits   0x000ed8       data     extern E:\3.46\pic18-lt\cxx-framework\src\traditional\proc\p18f67j60.asm
                  ERXFCON   0x000ed8       data     extern E:\3.46\pic18-lt\cxx-framework\src\traditional\proc\p18f67j60.asm
                  EPKTCNT   0x000ed9       data     extern E:\3.46\pic18-lt\cxx-framework\src\traditional\proc\p18f67j60.asm
                   EWRPTL   0x000ee2       data     extern E:\3.46\pic18-lt\cxx-framework\src\traditional\proc\p18f67j60.asm
                    EWRPT   0x000ee2       data     extern E:\3.46\pic18-lt\cxx-framework\src\traditional\proc\p18f67j60.asm
                   EWRPTH   0x000ee3       data     extern E:\3.46\pic18-lt\cxx-framework\src\traditional\proc\p18f67j60.asm
                    ETXST   0x000ee4       data     extern E:\3.46\pic18-lt\cxx-framework\src\traditional\proc\p18f67j60.asm
                   ETXSTL   0x000ee4       data     extern E:\3.46\pic18-lt\cxx-framework\src\traditional\proc\p18f67j60.asm
                   ETXSTH   0x000ee5       data     extern E:\3.46\pic18-lt\cxx-framework\src\traditional\proc\p18f67j60.asm
                    ETXND   0x000ee6       data     extern E:\3.46\pic18-lt\cxx-framework\src\traditional\proc\p18f67j60.asm
                   ETXNDL   0x000ee6       data     extern E:\3.46\pic18-lt\cxx-framework\src\traditional\proc\p18f67j60.asm
                   ETXNDH   0x000ee7       data     extern E:\3.46\pic18-lt\cxx-framework\src\traditional\proc\p18f67j60.asm
                    ERXST   0x000ee8       data     extern E:\3.46\pic18-lt\cxx-framework\src\traditional\proc\p18f67j60.asm
                   ERXSTL   0x000ee8       data     extern E:\3.46\pic18-lt\cxx-framework\src\traditional\proc\p18f67j60.asm
                   ERXSTH   0x000ee9       data     extern E:\3.46\pic18-lt\cxx-framework\src\traditional\proc\p18f67j60.asm
                    ERXND   0x000eea       data     extern E:\3.46\pic18-lt\cxx-framework\src\traditional\proc\p18f67j60.asm
                   ERXNDL   0x000eea       data     extern E:\3.46\pic18-lt\cxx-framework\src\traditional\proc\p18f67j60.asm
                   ERXNDH   0x000eeb       data     extern E:\3.46\pic18-lt\cxx-framework\src\traditional\proc\p18f67j60.asm
                  ERXRDPT   0x000eec       data     extern E:\3.46\pic18-lt\cxx-framework\src\traditional\proc\p18f67j60.asm
                 ERXRDPTL   0x000eec       data     extern E:\3.46\pic18-lt\cxx-framework\src\traditional\proc\p18f67j60.asm
                 ERXRDPTH   0x000eed       data     extern E:\3.46\pic18-lt\cxx-framework\src\traditional\proc\p18f67j60.asm
                  ERXWRPT   0x000eee       data     extern E:\3.46\pic18-lt\cxx-framework\src\traditional\proc\p18f67j60.asm
                 ERXWRPTL   0x000eee       data     extern E:\3.46\pic18-lt\cxx-framework\src\traditional\proc\p18f67j60.asm
                 ERXWRPTH   0x000eef       data     extern E:\3.46\pic18-lt\cxx-framework\src\traditional\proc\p18f67j60.asm
                  EDMASTL   0x000ef0       data     extern E:\3.46\pic18-lt\cxx-framework\src\traditional\proc\p18f67j60.asm
                   EDMAST   0x000ef0       data     extern E:\3.46\pic18-lt\cxx-framework\src\traditional\proc\p18f67j60.asm
                  EDMASTH   0x000ef1       data     extern E:\3.46\pic18-lt\cxx-framework\src\traditional\proc\p18f67j60.asm
                  EDMANDL   0x000ef2       data     extern E:\3.46\pic18-lt\cxx-framework\src\traditional\proc\p18f67j60.asm
                   EDMAND   0x000ef2       data     extern E:\3.46\pic18-lt\cxx-framework\src\traditional\proc\p18f67j60.asm
                  EDMANDH   0x000ef3       data     extern E:\3.46\pic18-lt\cxx-framework\src\traditional\proc\p18f67j60.asm
                  EDMADST   0x000ef4       data     extern E:\3.46\pic18-lt\cxx-framework\src\traditional\proc\p18f67j60.asm
                 EDMADSTL   0x000ef4       data     extern E:\3.46\pic18-lt\cxx-framework\src\traditional\proc\p18f67j60.asm
                 EDMADSTH   0x000ef5       data     extern E:\3.46\pic18-lt\cxx-framework\src\traditional\proc\p18f67j60.asm
                   EDMACS   0x000ef6       data     extern E:\3.46\pic18-lt\cxx-framework\src\traditional\proc\p18f67j60.asm
                  EDMACSL   0x000ef6       data     extern E:\3.46\pic18-lt\cxx-framework\src\traditional\proc\p18f67j60.asm
                  EDMACSH   0x000ef7       data     extern E:\3.46\pic18-lt\cxx-framework\src\traditional\proc\p18f67j60.asm
                  EIEbits   0x000efb       data     extern E:\3.46\pic18-lt\cxx-framework\src\traditional\proc\p18f67j60.asm
                      EIE   0x000efb       data     extern E:\3.46\pic18-lt\cxx-framework\src\traditional\proc\p18f67j60.asm
                    ESTAT   0x000efd       data     extern E:\3.46\pic18-lt\cxx-framework\src\traditional\proc\p18f67j60.asm
                ESTATbits   0x000efd       data     extern E:\3.46\pic18-lt\cxx-framework\src\traditional\proc\p18f67j60.asm
                    ECON2   0x000efe       data     extern E:\3.46\pic18-lt\cxx-framework\src\traditional\proc\p18f67j60.asm
                ECON2bits   0x000efe       data     extern E:\3.46\pic18-lt\cxx-framework\src\traditional\proc\p18f67j60.asm
               SMTPClient   0x000f00       data     extern F:\PIC-web\c18\PIC-WEB-5-42-UEXT-full\Microchip\TCPIP Stack\SMTP.c
               SMTPServer   0x000f22       data     static F:\PIC-web\c18\PIC-WEB-5-42-UEXT-full\Microchip\TCPIP Stack\SMTP.c
                 CRPeriod   0x000f26       data     static F:\PIC-web\c18\PIC-WEB-5-42-UEXT-full\Microchip\TCPIP Stack\SMTP.c
                SMTPState   0x000f28       data     static F:\PIC-web\c18\PIC-WEB-5-42-UEXT-full\Microchip\TCPIP Stack\SMTP.c
          PutHeadersState   0x000f29       data     static F:\PIC-web\c18\PIC-WEB-5-42-UEXT-full\Microchip\TCPIP Stack\SMTP.c
            RXParserState   0x000f2a       data     static F:\PIC-web\c18\PIC-WEB-5-42-UEXT-full\Microchip\TCPIP Stack\SMTP.c
             ResponseCode   0x000f2b       data     static F:\PIC-web\c18\PIC-WEB-5-42-UEXT-full\Microchip\TCPIP Stack\SMTP.c
                    Timer   0x000f2d       data     static F:\PIC-web\c18\PIC-WEB-5-42-UEXT-full\Microchip\TCPIP Stack\SMTP.c
                 RXBuffer   0x000f31       data     static F:\PIC-web\c18\PIC-WEB-5-42-UEXT-full\Microchip\TCPIP Stack\SMTP.c
                ROMStrPtr   0x000f35       data     static F:\PIC-web\c18\PIC-WEB-5-42-UEXT-full\Microchip\TCPIP Stack\SMTP.c
               ROMStrPtr2   0x000f38       data     static F:\PIC-web\c18\PIC-WEB-5-42-UEXT-full\Microchip\TCPIP Stack\SMTP.c
                RAMStrPtr   0x000f3b       data     static F:\PIC-web\c18\PIC-WEB-5-42-UEXT-full\Microchip\TCPIP Stack\SMTP.c
           wAddressLength   0x000f3d       data     static F:\PIC-web\c18\PIC-WEB-5-42-UEXT-full\Microchip\TCPIP Stack\SMTP.c
              __SMTPPut:0   0x000f3f       data     extern F:\PIC-web\c18\PIC-WEB-5-42-UEXT-full\Microchip\TCPIP Stack\SMTP.c
                        c   0x000f3f       data     static F:\PIC-web\c18\PIC-WEB-5-42-UEXT-full\Microchip\TCPIP Stack\SMTP.c
         __SMTPPutArray:0   0x000f40       data     extern F:\PIC-web\c18\PIC-WEB-5-42-UEXT-full\Microchip\TCPIP Stack\SMTP.c
                     Data   0x000f40       data     static F:\PIC-web\c18\PIC-WEB-5-42-UEXT-full\Microchip\TCPIP Stack\SMTP.c
                      Len   0x000f42       data     static F:\PIC-web\c18\PIC-WEB-5-42-UEXT-full\Microchip\TCPIP Stack\SMTP.c
         __SMTPPutArray:1   0x000f42       data     extern F:\PIC-web\c18\PIC-WEB-5-42-UEXT-full\Microchip\TCPIP Stack\SMTP.c
      __SMTPPutROMArray:0   0x000f44       data     extern F:\PIC-web\c18\PIC-WEB-5-42-UEXT-full\Microchip\TCPIP Stack\SMTP.c
                     Data   0x000f44       data     static F:\PIC-web\c18\PIC-WEB-5-42-UEXT-full\Microchip\TCPIP Stack\SMTP.c
      __SMTPPutROMArray:1   0x000f47       data     extern F:\PIC-web\c18\PIC-WEB-5-42-UEXT-full\Microchip\TCPIP Stack\SMTP.c
                      Len   0x000f47       data     static F:\PIC-web\c18\PIC-WEB-5-42-UEXT-full\Microchip\TCPIP Stack\SMTP.c
        __SMTPPutString:0   0x000f49       data     extern F:\PIC-web\c18\PIC-WEB-5-42-UEXT-full\Microchip\TCPIP Stack\SMTP.c
                     Data   0x000f49       data     static F:\PIC-web\c18\PIC-WEB-5-42-UEXT-full\Microchip\TCPIP Stack\SMTP.c
     __SMTPPutROMString:0   0x000f4b       data     extern F:\PIC-web\c18\PIC-WEB-5-42-UEXT-full\Microchip\TCPIP Stack\SMTP.c
                     Data   0x000f4b       data     static F:\PIC-web\c18\PIC-WEB-5-42-UEXT-full\Microchip\TCPIP Stack\SMTP.c
                      str   0x000f4e       data     static F:\PIC-web\c18\PIC-WEB-5-42-UEXT-full\Microchip\TCPIP Stack\SMTP.c
     __FindEmailAddress:0   0x000f4e       data     static F:\PIC-web\c18\PIC-WEB-5-42-UEXT-full\Microchip\TCPIP Stack\SMTP.c
                     wLen   0x000f50       data     static F:\PIC-web\c18\PIC-WEB-5-42-UEXT-full\Microchip\TCPIP Stack\SMTP.c
     __FindEmailAddress:1   0x000f50       data     static F:\PIC-web\c18\PIC-WEB-5-42-UEXT-full\Microchip\TCPIP Stack\SMTP.c
  __FindROMEmailAddress:0   0x000f52       data     static F:\PIC-web\c18\PIC-WEB-5-42-UEXT-full\Microchip\TCPIP Stack\SMTP.c
                      str   0x000f52       data     static F:\PIC-web\c18\PIC-WEB-5-42-UEXT-full\Microchip\TCPIP Stack\SMTP.c
                     wLen   0x000f55       data     static F:\PIC-web\c18\PIC-WEB-5-42-UEXT-full\Microchip\TCPIP Stack\SMTP.c
  __FindROMEmailAddress:1   0x000f55       data     static F:\PIC-web\c18\PIC-WEB-5-42-UEXT-full\Microchip\TCPIP Stack\SMTP.c
            dwSNTPSeconds   0x000f57       data     static F:\PIC-web\c18\PIC-WEB-5-42-UEXT-full\TCPIP\Demo App\BerkeleyUDPClientDemo.c
         dwLastUpdateTick   0x000f5b       data     static F:\PIC-web\c18\PIC-WEB-5-42-UEXT-full\TCPIP\Demo App\BerkeleyUDPClientDemo.c
                SNTPState   0x000f5f       data     static F:\PIC-web\c18\PIC-WEB-5-42-UEXT-full\TCPIP\Demo App\BerkeleyUDPClientDemo.c
                  EIRbits   0x000f60       data     extern E:\3.46\pic18-lt\cxx-framework\src\traditional\proc\p18f67j60.asm
                      EIR   0x000f60       data     extern E:\3.46\pic18-lt\cxx-framework\src\traditional\proc\p18f67j60.asm
                EDATAbits   0x000f61       data     extern E:\3.46\pic18-lt\cxx-framework\src\traditional\proc\p18f67j60.asm
                    EDATA   0x000f61       data     extern E:\3.46\pic18-lt\cxx-framework\src\traditional\proc\p18f67j60.asm
             ECCP2DELbits   0x000f67       data     extern E:\3.46\pic18-lt\cxx-framework\src\traditional\proc\p18f67j60.asm
                 ECCP2DEL   0x000f67       data     extern E:\3.46\pic18-lt\cxx-framework\src\traditional\proc\p18f67j60.asm
                  ECCP2AS   0x000f68       data     extern E:\3.46\pic18-lt\cxx-framework\src\traditional\proc\p18f67j60.asm
              ECCP2ASbits   0x000f68       data     extern E:\3.46\pic18-lt\cxx-framework\src\traditional\proc\p18f67j60.asm
                 ECCP3DEL   0x000f69       data     extern E:\3.46\pic18-lt\cxx-framework\src\traditional\proc\p18f67j60.asm
             ECCP3DELbits   0x000f69       data     extern E:\3.46\pic18-lt\cxx-framework\src\traditional\proc\p18f67j60.asm
              ECCP3ASbits   0x000f6a       data     extern E:\3.46\pic18-lt\cxx-framework\src\traditional\proc\p18f67j60.asm
                  ECCP3AS   0x000f6a       data     extern E:\3.46\pic18-lt\cxx-framework\src\traditional\proc\p18f67j60.asm
                  CCP5CON   0x000f70       data     extern E:\3.46\pic18-lt\cxx-framework\src\traditional\proc\p18f67j60.asm
              CCP5CONbits   0x000f70       data     extern E:\3.46\pic18-lt\cxx-framework\src\traditional\proc\p18f67j60.asm
                    CCPR5   0x000f71       data     extern E:\3.46\pic18-lt\cxx-framework\src\traditional\proc\p18f67j60.asm
                   CCPR5L   0x000f71       data     extern E:\3.46\pic18-lt\cxx-framework\src\traditional\proc\p18f67j60.asm
                   CCPR5H   0x000f72       data     extern E:\3.46\pic18-lt\cxx-framework\src\traditional\proc\p18f67j60.asm
                  CCP4CON   0x000f73       data     extern E:\3.46\pic18-lt\cxx-framework\src\traditional\proc\p18f67j60.asm
              CCP4CONbits   0x000f73       data     extern E:\3.46\pic18-lt\cxx-framework\src\traditional\proc\p18f67j60.asm
                   CCPR4L   0x000f74       data     extern E:\3.46\pic18-lt\cxx-framework\src\traditional\proc\p18f67j60.asm
                    CCPR4   0x000f74       data     extern E:\3.46\pic18-lt\cxx-framework\src\traditional\proc\p18f67j60.asm
                   CCPR4H   0x000f75       data     extern E:\3.46\pic18-lt\cxx-framework\src\traditional\proc\p18f67j60.asm
                T4CONbits   0x000f76       data     extern E:\3.46\pic18-lt\cxx-framework\src\traditional\proc\p18f67j60.asm
                    T4CON   0x000f76       data     extern E:\3.46\pic18-lt\cxx-framework\src\traditional\proc\p18f67j60.asm
                      PR4   0x000f77       data     extern E:\3.46\pic18-lt\cxx-framework\src\traditional\proc\p18f67j60.asm
                     TMR4   0x000f78       data     extern E:\3.46\pic18-lt\cxx-framework\src\traditional\proc\p18f67j60.asm
             ECCP1DELbits   0x000f79       data     extern E:\3.46\pic18-lt\cxx-framework\src\traditional\proc\p18f67j60.asm
                 ECCP1DEL   0x000f79       data     extern E:\3.46\pic18-lt\cxx-framework\src\traditional\proc\p18f67j60.asm
                    ERDPT   0x000f7a       data     extern E:\3.46\pic18-lt\cxx-framework\src\traditional\proc\p18f67j60.asm
                   ERDPTL   0x000f7a       data     extern E:\3.46\pic18-lt\cxx-framework\src\traditional\proc\p18f67j60.asm
                   ERDPTH   0x000f7b       data     extern E:\3.46\pic18-lt\cxx-framework\src\traditional\proc\p18f67j60.asm
                 BAUDCTL1   0x000f7e       data     extern E:\3.46\pic18-lt\cxx-framework\src\traditional\proc\p18f67j60.asm
             BAUDCTL1bits   0x000f7e       data     extern E:\3.46\pic18-lt\cxx-framework\src\traditional\proc\p18f67j60.asm
                  BAUDCON   0x000f7e       data     extern E:\3.46\pic18-lt\cxx-framework\src\traditional\proc\p18f67j60.asm
                 BAUDCON1   0x000f7e       data     extern E:\3.46\pic18-lt\cxx-framework\src\traditional\proc\p18f67j60.asm
             BAUDCON1bits   0x000f7e       data     extern E:\3.46\pic18-lt\cxx-framework\src\traditional\proc\p18f67j60.asm
              BAUDCONbits   0x000f7e       data     extern E:\3.46\pic18-lt\cxx-framework\src\traditional\proc\p18f67j60.asm
                  BAUDCTL   0x000f7e       data     extern E:\3.46\pic18-lt\cxx-framework\src\traditional\proc\p18f67j60.asm
              BAUDCTLbits   0x000f7e       data     extern E:\3.46\pic18-lt\cxx-framework\src\traditional\proc\p18f67j60.asm
                  SPBRGH1   0x000f7f       data     extern E:\3.46\pic18-lt\cxx-framework\src\traditional\proc\p18f67j60.asm
                   SPBRGH   0x000f7f       data     extern E:\3.46\pic18-lt\cxx-framework\src\traditional\proc\p18f67j60.asm
                PORTAbits   0x000f80       data     extern E:\3.46\pic18-lt\cxx-framework\src\traditional\proc\p18f67j60.asm
                    PORTA   0x000f80       data     extern E:\3.46\pic18-lt\cxx-framework\src\traditional\proc\p18f67j60.asm
                PORTBbits   0x000f81       data     extern E:\3.46\pic18-lt\cxx-framework\src\traditional\proc\p18f67j60.asm
                    PORTB   0x000f81       data     extern E:\3.46\pic18-lt\cxx-framework\src\traditional\proc\p18f67j60.asm
                PORTCbits   0x000f82       data     extern E:\3.46\pic18-lt\cxx-framework\src\traditional\proc\p18f67j60.asm
                    PORTC   0x000f82       data     extern E:\3.46\pic18-lt\cxx-framework\src\traditional\proc\p18f67j60.asm
                PORTDbits   0x000f83       data     extern E:\3.46\pic18-lt\cxx-framework\src\traditional\proc\p18f67j60.asm
                    PORTD   0x000f83       data     extern E:\3.46\pic18-lt\cxx-framework\src\traditional\proc\p18f67j60.asm
                PORTEbits   0x000f84       data     extern E:\3.46\pic18-lt\cxx-framework\src\traditional\proc\p18f67j60.asm
                    PORTE   0x000f84       data     extern E:\3.46\pic18-lt\cxx-framework\src\traditional\proc\p18f67j60.asm
                PORTFbits   0x000f85       data     extern E:\3.46\pic18-lt\cxx-framework\src\traditional\proc\p18f67j60.asm
                    PORTF   0x000f85       data     extern E:\3.46\pic18-lt\cxx-framework\src\traditional\proc\p18f67j60.asm
                    PORTG   0x000f86       data     extern E:\3.46\pic18-lt\cxx-framework\src\traditional\proc\p18f67j60.asm
                PORTGbits   0x000f86       data     extern E:\3.46\pic18-lt\cxx-framework\src\traditional\proc\p18f67j60.asm
                     LATA   0x000f89       data     extern E:\3.46\pic18-lt\cxx-framework\src\traditional\proc\p18f67j60.asm
                 LATAbits   0x000f89       data     extern E:\3.46\pic18-lt\cxx-framework\src\traditional\proc\p18f67j60.asm
                 LATBbits   0x000f8a       data     extern E:\3.46\pic18-lt\cxx-framework\src\traditional\proc\p18f67j60.asm
                     LATB   0x000f8a       data     extern E:\3.46\pic18-lt\cxx-framework\src\traditional\proc\p18f67j60.asm
                 LATCbits   0x000f8b       data     extern E:\3.46\pic18-lt\cxx-framework\src\traditional\proc\p18f67j60.asm
                     LATC   0x000f8b       data     extern E:\3.46\pic18-lt\cxx-framework\src\traditional\proc\p18f67j60.asm
                     LATD   0x000f8c       data     extern E:\3.46\pic18-lt\cxx-framework\src\traditional\proc\p18f67j60.asm
                 LATDbits   0x000f8c       data     extern E:\3.46\pic18-lt\cxx-framework\src\traditional\proc\p18f67j60.asm
                 LATEbits   0x000f8d       data     extern E:\3.46\pic18-lt\cxx-framework\src\traditional\proc\p18f67j60.asm
                     LATE   0x000f8d       data     extern E:\3.46\pic18-lt\cxx-framework\src\traditional\proc\p18f67j60.asm
                     LATF   0x000f8e       data     extern E:\3.46\pic18-lt\cxx-framework\src\traditional\proc\p18f67j60.asm
                 LATFbits   0x000f8e       data     extern E:\3.46\pic18-lt\cxx-framework\src\traditional\proc\p18f67j60.asm
                 LATGbits   0x000f8f       data     extern E:\3.46\pic18-lt\cxx-framework\src\traditional\proc\p18f67j60.asm
                     LATG   0x000f8f       data     extern E:\3.46\pic18-lt\cxx-framework\src\traditional\proc\p18f67j60.asm
                 DDRAbits   0x000f92       data     extern E:\3.46\pic18-lt\cxx-framework\src\traditional\proc\p18f67j60.asm
                     DDRA   0x000f92       data     extern E:\3.46\pic18-lt\cxx-framework\src\traditional\proc\p18f67j60.asm
                TRISAbits   0x000f92       data     extern E:\3.46\pic18-lt\cxx-framework\src\traditional\proc\p18f67j60.asm
                    TRISA   0x000f92       data     extern E:\3.46\pic18-lt\cxx-framework\src\traditional\proc\p18f67j60.asm
                TRISBbits   0x000f93       data     extern E:\3.46\pic18-lt\cxx-framework\src\traditional\proc\p18f67j60.asm
                    TRISB   0x000f93       data     extern E:\3.46\pic18-lt\cxx-framework\src\traditional\proc\p18f67j60.asm
                     DDRB   0x000f93       data     extern E:\3.46\pic18-lt\cxx-framework\src\traditional\proc\p18f67j60.asm
                 DDRBbits   0x000f93       data     extern E:\3.46\pic18-lt\cxx-framework\src\traditional\proc\p18f67j60.asm
                     DDRC   0x000f94       data     extern E:\3.46\pic18-lt\cxx-framework\src\traditional\proc\p18f67j60.asm
                 DDRCbits   0x000f94       data     extern E:\3.46\pic18-lt\cxx-framework\src\traditional\proc\p18f67j60.asm
                    TRISC   0x000f94       data     extern E:\3.46\pic18-lt\cxx-framework\src\traditional\proc\p18f67j60.asm
                TRISCbits   0x000f94       data     extern E:\3.46\pic18-lt\cxx-framework\src\traditional\proc\p18f67j60.asm
                TRISDbits   0x000f95       data     extern E:\3.46\pic18-lt\cxx-framework\src\traditional\proc\p18f67j60.asm
                    TRISD   0x000f95       data     extern E:\3.46\pic18-lt\cxx-framework\src\traditional\proc\p18f67j60.asm
                     DDRD   0x000f95       data     extern E:\3.46\pic18-lt\cxx-framework\src\traditional\proc\p18f67j60.asm
                 DDRDbits   0x000f95       data     extern E:\3.46\pic18-lt\cxx-framework\src\traditional\proc\p18f67j60.asm
                TRISEbits   0x000f96       data     extern E:\3.46\pic18-lt\cxx-framework\src\traditional\proc\p18f67j60.asm
                    TRISE   0x000f96       data     extern E:\3.46\pic18-lt\cxx-framework\src\traditional\proc\p18f67j60.asm
                     DDRE   0x000f96       data     extern E:\3.46\pic18-lt\cxx-framework\src\traditional\proc\p18f67j60.asm
                 DDREbits   0x000f96       data     extern E:\3.46\pic18-lt\cxx-framework\src\traditional\proc\p18f67j60.asm
                TRISFbits   0x000f97       data     extern E:\3.46\pic18-lt\cxx-framework\src\traditional\proc\p18f67j60.asm
                 DDRFbits   0x000f97       data     extern E:\3.46\pic18-lt\cxx-framework\src\traditional\proc\p18f67j60.asm
                     DDRF   0x000f97       data     extern E:\3.46\pic18-lt\cxx-framework\src\traditional\proc\p18f67j60.asm
                    TRISF   0x000f97       data     extern E:\3.46\pic18-lt\cxx-framework\src\traditional\proc\p18f67j60.asm
                    TRISG   0x000f98       data     extern E:\3.46\pic18-lt\cxx-framework\src\traditional\proc\p18f67j60.asm
                     DDRG   0x000f98       data     extern E:\3.46\pic18-lt\cxx-framework\src\traditional\proc\p18f67j60.asm
                TRISGbits   0x000f98       data     extern E:\3.46\pic18-lt\cxx-framework\src\traditional\proc\p18f67j60.asm
                 DDRGbits   0x000f98       data     extern E:\3.46\pic18-lt\cxx-framework\src\traditional\proc\p18f67j60.asm
                  OSCTUNE   0x000f9b       data     extern E:\3.46\pic18-lt\cxx-framework\src\traditional\proc\p18f67j60.asm
              OSCTUNEbits   0x000f9b       data     extern E:\3.46\pic18-lt\cxx-framework\src\traditional\proc\p18f67j60.asm
                     PIE1   0x000f9d       data     extern E:\3.46\pic18-lt\cxx-framework\src\traditional\proc\p18f67j60.asm
                 PIE1bits   0x000f9d       data     extern E:\3.46\pic18-lt\cxx-framework\src\traditional\proc\p18f67j60.asm
                 PIR1bits   0x000f9e       data     extern E:\3.46\pic18-lt\cxx-framework\src\traditional\proc\p18f67j60.asm
                     PIR1   0x000f9e       data     extern E:\3.46\pic18-lt\cxx-framework\src\traditional\proc\p18f67j60.asm
                     IPR1   0x000f9f       data     extern E:\3.46\pic18-lt\cxx-framework\src\traditional\proc\p18f67j60.asm
                 IPR1bits   0x000f9f       data     extern E:\3.46\pic18-lt\cxx-framework\src\traditional\proc\p18f67j60.asm
                     PIE2   0x000fa0       data     extern E:\3.46\pic18-lt\cxx-framework\src\traditional\proc\p18f67j60.asm
                 PIE2bits   0x000fa0       data     extern E:\3.46\pic18-lt\cxx-framework\src\traditional\proc\p18f67j60.asm
                     PIR2   0x000fa1       data     extern E:\3.46\pic18-lt\cxx-framework\src\traditional\proc\p18f67j60.asm
                 PIR2bits   0x000fa1       data     extern E:\3.46\pic18-lt\cxx-framework\src\traditional\proc\p18f67j60.asm
                     IPR2   0x000fa2       data     extern E:\3.46\pic18-lt\cxx-framework\src\traditional\proc\p18f67j60.asm
                 IPR2bits   0x000fa2       data     extern E:\3.46\pic18-lt\cxx-framework\src\traditional\proc\p18f67j60.asm
                     PIE3   0x000fa3       data     extern E:\3.46\pic18-lt\cxx-framework\src\traditional\proc\p18f67j60.asm
                 PIE3bits   0x000fa3       data     extern E:\3.46\pic18-lt\cxx-framework\src\traditional\proc\p18f67j60.asm
                 PIR3bits   0x000fa4       data     extern E:\3.46\pic18-lt\cxx-framework\src\traditional\proc\p18f67j60.asm
                     PIR3   0x000fa4       data     extern E:\3.46\pic18-lt\cxx-framework\src\traditional\proc\p18f67j60.asm
                     IPR3   0x000fa5       data     extern E:\3.46\pic18-lt\cxx-framework\src\traditional\proc\p18f67j60.asm
                 IPR3bits   0x000fa5       data     extern E:\3.46\pic18-lt\cxx-framework\src\traditional\proc\p18f67j60.asm
                   EECON1   0x000fa6       data     extern E:\3.46\pic18-lt\cxx-framework\src\traditional\proc\p18f67j60.asm
               EECON1bits   0x000fa6       data     extern E:\3.46\pic18-lt\cxx-framework\src\traditional\proc\p18f67j60.asm
                   EECON2   0x000fa7       data     extern E:\3.46\pic18-lt\cxx-framework\src\traditional\proc\p18f67j60.asm
               RCSTA1bits   0x000fab       data     extern E:\3.46\pic18-lt\cxx-framework\src\traditional\proc\p18f67j60.asm
                   RCSTA1   0x000fab       data     extern E:\3.46\pic18-lt\cxx-framework\src\traditional\proc\p18f67j60.asm
                    RCSTA   0x000fab       data     extern E:\3.46\pic18-lt\cxx-framework\src\traditional\proc\p18f67j60.asm
                RCSTAbits   0x000fab       data     extern E:\3.46\pic18-lt\cxx-framework\src\traditional\proc\p18f67j60.asm
                TXSTAbits   0x000fac       data     extern E:\3.46\pic18-lt\cxx-framework\src\traditional\proc\p18f67j60.asm
               TXSTA1bits   0x000fac       data     extern E:\3.46\pic18-lt\cxx-framework\src\traditional\proc\p18f67j60.asm
                   TXSTA1   0x000fac       data     extern E:\3.46\pic18-lt\cxx-framework\src\traditional\proc\p18f67j60.asm
                    TXSTA   0x000fac       data     extern E:\3.46\pic18-lt\cxx-framework\src\traditional\proc\p18f67j60.asm
                   TXREG1   0x000fad       data     extern E:\3.46\pic18-lt\cxx-framework\src\traditional\proc\p18f67j60.asm
                    TXREG   0x000fad       data     extern E:\3.46\pic18-lt\cxx-framework\src\traditional\proc\p18f67j60.asm
                    RCREG   0x000fae       data     extern E:\3.46\pic18-lt\cxx-framework\src\traditional\proc\p18f67j60.asm
                   RCREG1   0x000fae       data     extern E:\3.46\pic18-lt\cxx-framework\src\traditional\proc\p18f67j60.asm
                   SPBRG1   0x000faf       data     extern E:\3.46\pic18-lt\cxx-framework\src\traditional\proc\p18f67j60.asm
                    SPBRG   0x000faf       data     extern E:\3.46\pic18-lt\cxx-framework\src\traditional\proc\p18f67j60.asm
                    T3CON   0x000fb1       data     extern E:\3.46\pic18-lt\cxx-framework\src\traditional\proc\p18f67j60.asm
                T3CONbits   0x000fb1       data     extern E:\3.46\pic18-lt\cxx-framework\src\traditional\proc\p18f67j60.asm
                    TMR3L   0x000fb2       data     extern E:\3.46\pic18-lt\cxx-framework\src\traditional\proc\p18f67j60.asm
                    TMR3H   0x000fb3       data     extern E:\3.46\pic18-lt\cxx-framework\src\traditional\proc\p18f67j60.asm
                    CMCON   0x000fb4       data     extern E:\3.46\pic18-lt\cxx-framework\src\traditional\proc\p18f67j60.asm
                CMCONbits   0x000fb4       data     extern E:\3.46\pic18-lt\cxx-framework\src\traditional\proc\p18f67j60.asm
               CVRCONbits   0x000fb5       data     extern E:\3.46\pic18-lt\cxx-framework\src\traditional\proc\p18f67j60.asm
                   CVRCON   0x000fb5       data     extern E:\3.46\pic18-lt\cxx-framework\src\traditional\proc\p18f67j60.asm
              ECCP1ASbits   0x000fb6       data     extern E:\3.46\pic18-lt\cxx-framework\src\traditional\proc\p18f67j60.asm
                  ECCP1AS   0x000fb6       data     extern E:\3.46\pic18-lt\cxx-framework\src\traditional\proc\p18f67j60.asm
                 ECCP3CON   0x000fb7       data     extern E:\3.46\pic18-lt\cxx-framework\src\traditional\proc\p18f67j60.asm
              CCP3CONbits   0x000fb7       data     extern E:\3.46\pic18-lt\cxx-framework\src\traditional\proc\p18f67j60.asm
                  CCP3CON   0x000fb7       data     extern E:\3.46\pic18-lt\cxx-framework\src\traditional\proc\p18f67j60.asm
             ECCP3CONbits   0x000fb7       data     extern E:\3.46\pic18-lt\cxx-framework\src\traditional\proc\p18f67j60.asm
                    CCPR3   0x000fb8       data     extern E:\3.46\pic18-lt\cxx-framework\src\traditional\proc\p18f67j60.asm
                   CCPR3L   0x000fb8       data     extern E:\3.46\pic18-lt\cxx-framework\src\traditional\proc\p18f67j60.asm
                   CCPR3H   0x000fb9       data     extern E:\3.46\pic18-lt\cxx-framework\src\traditional\proc\p18f67j60.asm
                 ECCP2CON   0x000fba       data     extern E:\3.46\pic18-lt\cxx-framework\src\traditional\proc\p18f67j60.asm
             ECCP2CONbits   0x000fba       data     extern E:\3.46\pic18-lt\cxx-framework\src\traditional\proc\p18f67j60.asm
                  CCP2CON   0x000fba       data     extern E:\3.46\pic18-lt\cxx-framework\src\traditional\proc\p18f67j60.asm
              CCP2CONbits   0x000fba       data     extern E:\3.46\pic18-lt\cxx-framework\src\traditional\proc\p18f67j60.asm
                   CCPR2L   0x000fbb       data     extern E:\3.46\pic18-lt\cxx-framework\src\traditional\proc\p18f67j60.asm
                    CCPR2   0x000fbb       data     extern E:\3.46\pic18-lt\cxx-framework\src\traditional\proc\p18f67j60.asm
                   CCPR2H   0x000fbc       data     extern E:\3.46\pic18-lt\cxx-framework\src\traditional\proc\p18f67j60.asm
             ECCP1CONbits   0x000fbd       data     extern E:\3.46\pic18-lt\cxx-framework\src\traditional\proc\p18f67j60.asm
                 ECCP1CON   0x000fbd       data     extern E:\3.46\pic18-lt\cxx-framework\src\traditional\proc\p18f67j60.asm
                  CCP1CON   0x000fbd       data     extern E:\3.46\pic18-lt\cxx-framework\src\traditional\proc\p18f67j60.asm
              CCP1CONbits   0x000fbd       data     extern E:\3.46\pic18-lt\cxx-framework\src\traditional\proc\p18f67j60.asm
                   CCPR1L   0x000fbe       data     extern E:\3.46\pic18-lt\cxx-framework\src\traditional\proc\p18f67j60.asm
                    CCPR1   0x000fbe       data     extern E:\3.46\pic18-lt\cxx-framework\src\traditional\proc\p18f67j60.asm
                   CCPR1H   0x000fbf       data     extern E:\3.46\pic18-lt\cxx-framework\src\traditional\proc\p18f67j60.asm
               ADCON2bits   0x000fc0       data     extern E:\3.46\pic18-lt\cxx-framework\src\traditional\proc\p18f67j60.asm
                   ADCON2   0x000fc0       data     extern E:\3.46\pic18-lt\cxx-framework\src\traditional\proc\p18f67j60.asm
               ADCON1bits   0x000fc1       data     extern E:\3.46\pic18-lt\cxx-framework\src\traditional\proc\p18f67j60.asm
                   ADCON1   0x000fc1       data     extern E:\3.46\pic18-lt\cxx-framework\src\traditional\proc\p18f67j60.asm
               ADCON0bits   0x000fc2       data     extern E:\3.46\pic18-lt\cxx-framework\src\traditional\proc\p18f67j60.asm
                   ADCON0   0x000fc2       data     extern E:\3.46\pic18-lt\cxx-framework\src\traditional\proc\p18f67j60.asm
                   ADRESL   0x000fc3       data     extern E:\3.46\pic18-lt\cxx-framework\src\traditional\proc\p18f67j60.asm
                    ADRES   0x000fc3       data     extern E:\3.46\pic18-lt\cxx-framework\src\traditional\proc\p18f67j60.asm
                   ADRESH   0x000fc4       data     extern E:\3.46\pic18-lt\cxx-framework\src\traditional\proc\p18f67j60.asm
              SSPCON2bits   0x000fc5       data     extern E:\3.46\pic18-lt\cxx-framework\src\traditional\proc\p18f67j60.asm
                  SSPCON2   0x000fc5       data     extern E:\3.46\pic18-lt\cxx-framework\src\traditional\proc\p18f67j60.asm
                 SSP1CON2   0x000fc5       data     extern E:\3.46\pic18-lt\cxx-framework\src\traditional\proc\p18f67j60.asm
             SSP1CON2bits   0x000fc5       data     extern E:\3.46\pic18-lt\cxx-framework\src\traditional\proc\p18f67j60.asm
                 SSP1CON1   0x000fc6       data     extern E:\3.46\pic18-lt\cxx-framework\src\traditional\proc\p18f67j60.asm
             SSP1CON1bits   0x000fc6       data     extern E:\3.46\pic18-lt\cxx-framework\src\traditional\proc\p18f67j60.asm
              SSPCON1bits   0x000fc6       data     extern E:\3.46\pic18-lt\cxx-framework\src\traditional\proc\p18f67j60.asm
                  SSPCON1   0x000fc6       data     extern E:\3.46\pic18-lt\cxx-framework\src\traditional\proc\p18f67j60.asm
                 SSP1STAT   0x000fc7       data     extern E:\3.46\pic18-lt\cxx-framework\src\traditional\proc\p18f67j60.asm
             SSP1STATbits   0x000fc7       data     extern E:\3.46\pic18-lt\cxx-framework\src\traditional\proc\p18f67j60.asm
              SSPSTATbits   0x000fc7       data     extern E:\3.46\pic18-lt\cxx-framework\src\traditional\proc\p18f67j60.asm
                  SSPSTAT   0x000fc7       data     extern E:\3.46\pic18-lt\cxx-framework\src\traditional\proc\p18f67j60.asm
                  SSP1ADD   0x000fc8       data     extern E:\3.46\pic18-lt\cxx-framework\src\traditional\proc\p18f67j60.asm
                   SSPADD   0x000fc8       data     extern E:\3.46\pic18-lt\cxx-framework\src\traditional\proc\p18f67j60.asm
                   SSPBUF   0x000fc9       data     extern E:\3.46\pic18-lt\cxx-framework\src\traditional\proc\p18f67j60.asm
                  SSP1BUF   0x000fc9       data     extern E:\3.46\pic18-lt\cxx-framework\src\traditional\proc\p18f67j60.asm
                T2CONbits   0x000fca       data     extern E:\3.46\pic18-lt\cxx-framework\src\traditional\proc\p18f67j60.asm
                    T2CON   0x000fca       data     extern E:\3.46\pic18-lt\cxx-framework\src\traditional\proc\p18f67j60.asm
                      PR2   0x000fcb       data     extern E:\3.46\pic18-lt\cxx-framework\src\traditional\proc\p18f67j60.asm
                     TMR2   0x000fcc       data     extern E:\3.46\pic18-lt\cxx-framework\src\traditional\proc\p18f67j60.asm
                T1CONbits   0x000fcd       data     extern E:\3.46\pic18-lt\cxx-framework\src\traditional\proc\p18f67j60.asm
                    T1CON   0x000fcd       data     extern E:\3.46\pic18-lt\cxx-framework\src\traditional\proc\p18f67j60.asm
                    TMR1L   0x000fce       data     extern E:\3.46\pic18-lt\cxx-framework\src\traditional\proc\p18f67j60.asm
                    TMR1H   0x000fcf       data     extern E:\3.46\pic18-lt\cxx-framework\src\traditional\proc\p18f67j60.asm
                 RCONbits   0x000fd0       data     extern E:\3.46\pic18-lt\cxx-framework\src\traditional\proc\p18f67j60.asm
                     RCON   0x000fd0       data     extern E:\3.46\pic18-lt\cxx-framework\src\traditional\proc\p18f67j60.asm
               WDTCONbits   0x000fd1       data     extern E:\3.46\pic18-lt\cxx-framework\src\traditional\proc\p18f67j60.asm
                   WDTCON   0x000fd1       data     extern E:\3.46\pic18-lt\cxx-framework\src\traditional\proc\p18f67j60.asm
                ECON1bits   0x000fd2       data     extern E:\3.46\pic18-lt\cxx-framework\src\traditional\proc\p18f67j60.asm
                    ECON1   0x000fd2       data     extern E:\3.46\pic18-lt\cxx-framework\src\traditional\proc\p18f67j60.asm
                   OSCCON   0x000fd3       data     extern E:\3.46\pic18-lt\cxx-framework\src\traditional\proc\p18f67j60.asm
               OSCCONbits   0x000fd3       data     extern E:\3.46\pic18-lt\cxx-framework\src\traditional\proc\p18f67j60.asm
                    T0CON   0x000fd5       data     extern E:\3.46\pic18-lt\cxx-framework\src\traditional\proc\p18f67j60.asm
                T0CONbits   0x000fd5       data     extern E:\3.46\pic18-lt\cxx-framework\src\traditional\proc\p18f67j60.asm
                    TMR0L   0x000fd6       data     extern E:\3.46\pic18-lt\cxx-framework\src\traditional\proc\p18f67j60.asm
                    TMR0H   0x000fd7       data     extern E:\3.46\pic18-lt\cxx-framework\src\traditional\proc\p18f67j60.asm
               STATUSbits   0x000fd8       data     extern E:\3.46\pic18-lt\cxx-framework\src\traditional\proc\p18f67j60.asm
                   STATUS   0x000fd8       data     extern E:\3.46\pic18-lt\cxx-framework\src\traditional\proc\p18f67j60.asm
                     FSR2   0x000fd9       data     extern E:\3.46\pic18-lt\cxx-framework\src\traditional\proc\p18f67j60.asm
                    FSR2L   0x000fd9       data     extern E:\3.46\pic18-lt\cxx-framework\src\traditional\proc\p18f67j60.asm
                    FSR2H   0x000fda       data     extern E:\3.46\pic18-lt\cxx-framework\src\traditional\proc\p18f67j60.asm
                   PLUSW2   0x000fdb       data     extern E:\3.46\pic18-lt\cxx-framework\src\traditional\proc\p18f67j60.asm
                  PREINC2   0x000fdc       data     extern E:\3.46\pic18-lt\cxx-framework\src\traditional\proc\p18f67j60.asm
                 POSTDEC2   0x000fdd       data     extern E:\3.46\pic18-lt\cxx-framework\src\traditional\proc\p18f67j60.asm
                 POSTINC2   0x000fde       data     extern E:\3.46\pic18-lt\cxx-framework\src\traditional\proc\p18f67j60.asm
                    INDF2   0x000fdf       data     extern E:\3.46\pic18-lt\cxx-framework\src\traditional\proc\p18f67j60.asm
                      BSR   0x000fe0       data     extern E:\3.46\pic18-lt\cxx-framework\src\traditional\proc\p18f67j60.asm
                    FSR1L   0x000fe1       data     extern E:\3.46\pic18-lt\cxx-framework\src\traditional\proc\p18f67j60.asm
                     FSR1   0x000fe1       data     extern E:\3.46\pic18-lt\cxx-framework\src\traditional\proc\p18f67j60.asm
                    FSR1H   0x000fe2       data     extern E:\3.46\pic18-lt\cxx-framework\src\traditional\proc\p18f67j60.asm
                   PLUSW1   0x000fe3       data     extern E:\3.46\pic18-lt\cxx-framework\src\traditional\proc\p18f67j60.asm
                  PREINC1   0x000fe4       data     extern E:\3.46\pic18-lt\cxx-framework\src\traditional\proc\p18f67j60.asm
                 POSTDEC1   0x000fe5       data     extern E:\3.46\pic18-lt\cxx-framework\src\traditional\proc\p18f67j60.asm
                 POSTINC1   0x000fe6       data     extern E:\3.46\pic18-lt\cxx-framework\src\traditional\proc\p18f67j60.asm
                    INDF1   0x000fe7       data     extern E:\3.46\pic18-lt\cxx-framework\src\traditional\proc\p18f67j60.asm
                     WREG   0x000fe8       data     extern E:\3.46\pic18-lt\cxx-framework\src\traditional\proc\p18f67j60.asm
                    FSR0L   0x000fe9       data     extern E:\3.46\pic18-lt\cxx-framework\src\traditional\proc\p18f67j60.asm
                     FSR0   0x000fe9       data     extern E:\3.46\pic18-lt\cxx-framework\src\traditional\proc\p18f67j60.asm
                    FSR0H   0x000fea       data     extern E:\3.46\pic18-lt\cxx-framework\src\traditional\proc\p18f67j60.asm
                   PLUSW0   0x000feb       data     extern E:\3.46\pic18-lt\cxx-framework\src\traditional\proc\p18f67j60.asm
                  PREINC0   0x000fec       data     extern E:\3.46\pic18-lt\cxx-framework\src\traditional\proc\p18f67j60.asm
                 POSTDEC0   0x000fed       data     extern E:\3.46\pic18-lt\cxx-framework\src\traditional\proc\p18f67j60.asm
                 POSTINC0   0x000fee       data     extern E:\3.46\pic18-lt\cxx-framework\src\traditional\proc\p18f67j60.asm
                    INDF0   0x000fef       data     extern E:\3.46\pic18-lt\cxx-framework\src\traditional\proc\p18f67j60.asm
                  INTCON3   0x000ff0       data     extern E:\3.46\pic18-lt\cxx-framework\src\traditional\proc\p18f67j60.asm
              INTCON3bits   0x000ff0       data     extern E:\3.46\pic18-lt\cxx-framework\src\traditional\proc\p18f67j60.asm
                  INTCON2   0x000ff1       data     extern E:\3.46\pic18-lt\cxx-framework\src\traditional\proc\p18f67j60.asm
              INTCON2bits   0x000ff1       data     extern E:\3.46\pic18-lt\cxx-framework\src\traditional\proc\p18f67j60.asm
                   INTCON   0x000ff2       data     extern E:\3.46\pic18-lt\cxx-framework\src\traditional\proc\p18f67j60.asm
               INTCONbits   0x000ff2       data     extern E:\3.46\pic18-lt\cxx-framework\src\traditional\proc\p18f67j60.asm
                     PROD   0x000ff3       data     extern E:\3.46\pic18-lt\cxx-framework\src\traditional\proc\p18f67j60.asm
                    PRODL   0x000ff3       data     extern E:\3.46\pic18-lt\cxx-framework\src\traditional\proc\p18f67j60.asm
                    PRODH   0x000ff4       data     extern E:\3.46\pic18-lt\cxx-framework\src\traditional\proc\p18f67j60.asm
                   TABLAT   0x000ff5       data     extern E:\3.46\pic18-lt\cxx-framework\src\traditional\proc\p18f67j60.asm
                   TBLPTR   0x000ff6       data     extern E:\3.46\pic18-lt\cxx-framework\src\traditional\proc\p18f67j60.asm
                  TBLPTRL   0x000ff6       data     extern E:\3.46\pic18-lt\cxx-framework\src\traditional\proc\p18f67j60.asm
                  TBLPTRH   0x000ff7       data     extern E:\3.46\pic18-lt\cxx-framework\src\traditional\proc\p18f67j60.asm
                  TBLPTRU   0x000ff8       data     extern E:\3.46\pic18-lt\cxx-framework\src\traditional\proc\p18f67j60.asm
                      PCL   0x000ff9       data     extern E:\3.46\pic18-lt\cxx-framework\src\traditional\proc\p18f67j60.asm
                       PC   0x000ff9       data     extern E:\3.46\pic18-lt\cxx-framework\src\traditional\proc\p18f67j60.asm
                   PCLATH   0x000ffa       data     extern E:\3.46\pic18-lt\cxx-framework\src\traditional\proc\p18f67j60.asm
                   PCLATU   0x000ffb       data     extern E:\3.46\pic18-lt\cxx-framework\src\traditional\proc\p18f67j60.asm
               STKPTRbits   0x000ffc       data     extern E:\3.46\pic18-lt\cxx-framework\src\traditional\proc\p18f67j60.asm
                   STKPTR   0x000ffc       data     extern E:\3.46\pic18-lt\cxx-framework\src\traditional\proc\p18f67j60.asm
                      TOS   0x000ffd       data     extern E:\3.46\pic18-lt\cxx-framework\src\traditional\proc\p18f67j60.asm
                     TOSL   0x000ffd       data     extern E:\3.46\pic18-lt\cxx-framework\src\traditional\proc\p18f67j60.asm
                     TOSH   0x000ffe       data     extern E:\3.46\pic18-lt\cxx-framework\src\traditional\proc\p18f67j60.asm
                     TOSU   0x000fff       data     extern E:\3.46\pic18-lt\cxx-framework\src\traditional\proc\p18f67j60.asm


